Certificate:
    Data:
        Version: 3 (0x2)
        Serial Number: 268435614 (0x1000009e)
    Signature Algorithm: sha1WithRSAEncryption
        Issuer: C=DE, ST=Hessen, O=privacyidea, CN=CA001
        Validity
            Not Before: Sep  4 13:26:51 2015 GMT
            Not After : Sep  3 13:26:51 2016 GMT
        Subject: C=DE, ST=Hessen, O=privacyidea, CN=requester.localdomain
        Subject Public Key Info:
            Public Key Algorithm: rsaEncryption
                Public-Key: (2048 bit)
                Modulus:
                    00:cd:be:14:4f:fa:ce:01:3f:42:22:1b:1d:9c:af:
                    dd:92:d2:7f:db:6c:b7:3e:39:43:43:6b:13:03:f1:
                    05:f4:07:74:bc:76:69:28:0b:af:19:8e:d7:fc:e3:
                    cd:c6:58:f2:ca:7f:08:6d:53:fc:07:02:44:24:c6:
                    b4:34:4c:8c:04:fe:33:0e:40:e2:20:ba:02:73:5a:
                    f7:f5:4f:63:6e:cc:c6:b6:df:54:1d:37:39:7d:51:
                    36:26:5f:bd:dc:3f:a8:8b:6b:a2:ae:b6:9d:d6:21:
                    e7:df:41:b8:7a:28:2a:68:48:ca:a8:2d:ed:e1:e9:
                    46:5e:5a:72:6d:b4:84:38:87:91:fd:94:11:0b:28:
                    84:c6:c2:2f:2a:fb:01:f9:36:7a:09:75:d1:33:88:
                    3c:73:41:5b:c8:bf:94:89:70:a1:f0:c0:b9:2e:50:
                    53:1e:b1:17:64:69:f4:2d:81:e0:a9:0d:0e:32:e9:
                    ba:55:8a:85:f1:1b:6f:49:79:b4:7f:88:c3:0d:3e:
                    54:88:9b:3d:1f:38:8c:04:f3:ee:6a:63:2b:f5:c6:
                    db:b4:83:aa:c4:78:41:3a:7d:4b:e1:c8:3e:71:ca:
                    1b:61:59:ea:c6:c4:ca:32:5e:c9:e9:bf:12:29:e6:
                    c6:c3:63:fe:a0:55:da:7a:f1:60:98:4d:26:ed:fa:
                    70:2d
                Exponent: 65537 (0x10001)
        X509v3 extensions:
            X509v3 Key Usage: 
                Digital Signature, Key Encipherment
            X509v3 Basic Constraints: 
                CA:FALSE
            Netscape Cert Type: 
                SSL Server
            Netscape Comment: 
                OpenSSL Generated Server Certificate
            X509v3 Subject Key Identifier: 
                53:3F:ED:5D:09:07:B3:65:7B:AB:45:C9:24:5B:09:77:80:0A:96:ED
            X509v3 Authority Key Identifier: 
                keyid:F4:A7:C0:CC:91:46:AF:64:F3:91:F2:27:F8:C8:B2:6F:8A:87:32:73
                DirName:/C=DE/ST=Hessen/O=privacyidea/CN=CA001
                serial:FB:C8:EB:AC:83:CD:12:07

            X509v3 Extended Key Usage: 
                TLS Web Server Authentication
    Signature Algorithm: sha1WithRSAEncryption
         3e:c0:50:7d:14:6a:e5:c2:4a:5a:08:9c:8d:49:a5:09:e5:93:
         15:25:c0:bd:e0:3d:a4:d5:b7:df:a5:1f:90:13:32:38:7d:60:
         e2:b1:a3:dc:68:bd:bc:ec:cc:7e:ea:e1:3c:e3:ed:36:81:38:
         33:2d:41:f7:8b:8c:35:24:73:6d:ee:19:4e:ea:23:c9:19:e6:
         57:7b:d4:b3:af:58:9c:15:3c:d8:b1:44:ac:0f:33:7d:d0:99:
         7f:9e:ea:ba:7d:1e:9f:48:a4:b2:4a:7c:9c:7b:fa:32:a1:4d:
         6b:ca:11:78:d4:d7:f9:ce:7c:c7:44:0e:68:f3:9b:5e:46:ff:
         15:df:f4:9a:8c:d4:77:73:79:80:79:c7:71:e4:ec:15:61:10:
         9a:6f:b6:59:3b:d0:60:fb:c5:64:81:a4:c8:93:ce:2f:e0:8f:
         12:d9:4e:1f:3e:17:76:1a:82:c7:7b:d2:79:00:a5:8d:52:cb:
         31:11:1a:47:46:cf:23:59:67:10:d0:ad:63:83:83:ab:79:8d:
         84:76:98:12:ea:2a:6f:21:68:cb:53:16:df:2e:ef:18:58:c1:
         09:9f:40:96:43:a7:b3:19:39:88:56:e0:88:a9:24:4b:8d:71:
         0c:51:b5:f6:61:b8:6f:f4:42:61:7b:2b:71:5d:8e:1c:ea:df:
         1f:37:2b:4f
-----BEGIN CERTIFICATE-----
MIIEJjCCAw6gAwIBAgIEEAAAnjANBgkqhkiG9w0BAQUFADBEMQswCQYDVQQGEwJE
RTEPMA0GA1UECAwGSGVzc2VuMRQwEgYDVQQKDAtwcml2YWN5aWRlYTEOMAwGA1UE
AwwFQ0EwMDEwHhcNMTUwOTA0MTMyNjUxWhcNMTYwOTAzMTMyNjUxWjBUMQswCQYD
VQQGEwJERTEPMA0GA1UECAwGSGVzc2VuMRQwEgYDVQQKDAtwcml2YWN5aWRlYTEe
MBwGA1UEAwwVcmVxdWVzdGVyLmxvY2FsZG9tYWluMIIBIjANBgkqhkiG9w0BAQEF
AAOCAQ8AMIIBCgKCAQEAzb4UT/rOAT9CIhsdnK/dktJ/22y3PjlDQ2sTA/EF9Ad0
vHZpKAuvGY7X/OPNxljyyn8IbVP8BwJEJMa0NEyMBP4zDkDiILoCc1r39U9jbszG
tt9UHTc5fVE2Jl+93D+oi2uirrad1iHn30G4eigqaEjKqC3t4elGXlpybbSEOIeR
/ZQRCyiExsIvKvsB+TZ6CXXRM4g8c0FbyL+UiXCh8MC5LlBTHrEXZGn0LYHgqQ0O
Mum6VYqF8RtvSXm0f4jDDT5UiJs9HziMBPPuamMr9cbbtIOqxHhBOn1L4cg+ccob
YVnqxsTKMl7J6b8SKebGw2P+oFXaevFgmE0m7fpwLQIDAQABo4IBDjCCAQowCwYD
VR0PBAQDAgWgMAkGA1UdEwQCMAAwEQYJYIZIAYb4QgEBBAQDAgZAMDMGCWCGSAGG
+EIBDQQmFiRPcGVuU1NMIEdlbmVyYXRlZCBTZXJ2ZXIgQ2VydGlmaWNhdGUwHQYD
VR0OBBYEFFM/7V0JB7Nle6tFySRbCXeACpbtMHQGA1UdIwRtMGuAFPSnwMyRRq9k
85HyJ/jIsm+KhzJzoUikRjBEMQswCQYDVQQGEwJERTEPMA0GA1UECAwGSGVzc2Vu
MRQwEgYDVQQKDAtwcml2YWN5aWRlYTEOMAwGA1UEAwwFQ0EwMDGCCQD7yOusg80S
BzATBgNVHSUEDDAKBggrBgEFBQcDATANBgkqhkiG9w0BAQUFAAOCAQEAPsBQfRRq
5cJKWgicjUmlCeWTFSXAveA9pNW336UfkBMyOH1g4rGj3Gi9vOzMfurhPOPtNoE4
My1B94uMNSRzbe4ZTuojyRnmV3vUs69YnBU82LFErA8zfdCZf57qun0en0ikskp8
nHv6MqFNa8oReNTX+c58x0QOaPObXkb/Fd/0mozUd3N5gHnHceTsFWEQmm+2WTvQ
YPvFZIGkyJPOL+CPEtlOHz4XdhqCx3vSeQCljVLLMREaR0bPI1lnENCtY4ODq3mN
hHaYEuoqbyFoy1MW3y7vGFjBCZ9AlkOnsxk5iFbgiKkkS41xDFG19mG4b/RCYXsr
cV2OHOrfHzcrTw==
-----END CERTIFICATE-----
