Certificate:
    Data:
        Version: 3 (0x2)
        Serial Number: 268435607 (0x10000097)
    Signature Algorithm: sha1WithRSAEncryption
        Issuer: C=DE, ST=Hessen, O=privacyidea, CN=CA001
        Validity
            Not Before: Sep  4 13:19:51 2015 GMT
            Not After : Sep  3 13:19:51 2016 GMT
        Subject: C=DE, ST=Hessen, O=privacyidea, CN=requester.localdomain
        Subject Public Key Info:
            Public Key Algorithm: rsaEncryption
                Public-Key: (2048 bit)
                Modulus:
                    00:cd:be:14:4f:fa:ce:01:3f:42:22:1b:1d:9c:af:
                    dd:92:d2:7f:db:6c:b7:3e:39:43:43:6b:13:03:f1:
                    05:f4:07:74:bc:76:69:28:0b:af:19:8e:d7:fc:e3:
                    cd:c6:58:f2:ca:7f:08:6d:53:fc:07:02:44:24:c6:
                    b4:34:4c:8c:04:fe:33:0e:40:e2:20:ba:02:73:5a:
                    f7:f5:4f:63:6e:cc:c6:b6:df:54:1d:37:39:7d:51:
                    36:26:5f:bd:dc:3f:a8:8b:6b:a2:ae:b6:9d:d6:21:
                    e7:df:41:b8:7a:28:2a:68:48:ca:a8:2d:ed:e1:e9:
                    46:5e:5a:72:6d:b4:84:38:87:91:fd:94:11:0b:28:
                    84:c6:c2:2f:2a:fb:01:f9:36:7a:09:75:d1:33:88:
                    3c:73:41:5b:c8:bf:94:89:70:a1:f0:c0:b9:2e:50:
                    53:1e:b1:17:64:69:f4:2d:81:e0:a9:0d:0e:32:e9:
                    ba:55:8a:85:f1:1b:6f:49:79:b4:7f:88:c3:0d:3e:
                    54:88:9b:3d:1f:38:8c:04:f3:ee:6a:63:2b:f5:c6:
                    db:b4:83:aa:c4:78:41:3a:7d:4b:e1:c8:3e:71:ca:
                    1b:61:59:ea:c6:c4:ca:32:5e:c9:e9:bf:12:29:e6:
                    c6:c3:63:fe:a0:55:da:7a:f1:60:98:4d:26:ed:fa:
                    70:2d
                Exponent: 65537 (0x10001)
        X509v3 extensions:
            X509v3 Key Usage: 
                Digital Signature, Key Encipherment
            X509v3 Basic Constraints: 
                CA:FALSE
            Netscape Cert Type: 
                SSL Server
            Netscape Comment: 
                OpenSSL Generated Server Certificate
            X509v3 Subject Key Identifier: 
                53:3F:ED:5D:09:07:B3:65:7B:AB:45:C9:24:5B:09:77:80:0A:96:ED
            X509v3 Authority Key Identifier: 
                keyid:F4:A7:C0:CC:91:46:AF:64:F3:91:F2:27:F8:C8:B2:6F:8A:87:32:73
                DirName:/C=DE/ST=Hessen/O=privacyidea/CN=CA001
                serial:FB:C8:EB:AC:83:CD:12:07

            X509v3 Extended Key Usage: 
                TLS Web Server Authentication
    Signature Algorithm: sha1WithRSAEncryption
         62:01:14:88:cb:0a:a2:0c:95:9b:3b:98:24:83:73:02:76:ef:
         e5:eb:b1:7c:08:fb:d5:12:5b:83:ac:5a:2b:11:f6:ae:0c:69:
         01:0d:84:91:a8:b1:76:f7:6d:fe:bd:63:ab:53:46:46:d9:4a:
         d1:6f:42:24:cb:ca:75:94:21:0f:12:06:00:7d:18:8e:0f:4a:
         0e:f0:2c:78:e2:04:64:f6:47:9e:a4:fe:78:dd:fb:a0:5f:3f:
         14:a7:c3:65:e2:fb:1e:cb:d4:eb:e6:0b:5d:b3:fd:ee:ed:2c:
         91:ec:f7:13:9f:59:ea:38:d9:74:5a:ac:ec:30:21:2e:b0:1d:
         78:54:47:20:78:5c:cb:23:d5:f2:1d:3c:77:7b:79:61:c2:b7:
         ee:c6:4f:93:cc:35:14:ca:1a:4e:35:5f:91:8f:14:a2:68:30:
         ff:19:a4:47:eb:39:68:30:3c:65:67:50:d5:df:f7:2e:d2:e0:
         dd:55:8d:87:fe:9f:ad:80:2c:8c:27:5c:a4:08:bc:52:ee:b8:
         d0:1c:ba:a8:e1:79:df:6a:35:62:46:a1:09:c2:73:f7:1b:9f:
         b4:3d:a3:60:e4:16:11:c9:8d:88:7b:85:4f:cf:dc:12:8e:8c:
         ad:6c:6c:0a:28:ed:5e:d4:ca:52:44:6b:34:c2:17:45:6c:b7:
         03:90:73:82
-----BEGIN CERTIFICATE-----
MIIEJjCCAw6gAwIBAgIEEAAAlzANBgkqhkiG9w0BAQUFADBEMQswCQYDVQQGEwJE
RTEPMA0GA1UECAwGSGVzc2VuMRQwEgYDVQQKDAtwcml2YWN5aWRlYTEOMAwGA1UE
AwwFQ0EwMDEwHhcNMTUwOTA0MTMxOTUxWhcNMTYwOTAzMTMxOTUxWjBUMQswCQYD
VQQGEwJERTEPMA0GA1UECAwGSGVzc2VuMRQwEgYDVQQKDAtwcml2YWN5aWRlYTEe
MBwGA1UEAwwVcmVxdWVzdGVyLmxvY2FsZG9tYWluMIIBIjANBgkqhkiG9w0BAQEF
AAOCAQ8AMIIBCgKCAQEAzb4UT/rOAT9CIhsdnK/dktJ/22y3PjlDQ2sTA/EF9Ad0
vHZpKAuvGY7X/OPNxljyyn8IbVP8BwJEJMa0NEyMBP4zDkDiILoCc1r39U9jbszG
tt9UHTc5fVE2Jl+93D+oi2uirrad1iHn30G4eigqaEjKqC3t4elGXlpybbSEOIeR
/ZQRCyiExsIvKvsB+TZ6CXXRM4g8c0FbyL+UiXCh8MC5LlBTHrEXZGn0LYHgqQ0O
Mum6VYqF8RtvSXm0f4jDDT5UiJs9HziMBPPuamMr9cbbtIOqxHhBOn1L4cg+ccob
YVnqxsTKMl7J6b8SKebGw2P+oFXaevFgmE0m7fpwLQIDAQABo4IBDjCCAQowCwYD
VR0PBAQDAgWgMAkGA1UdEwQCMAAwEQYJYIZIAYb4QgEBBAQDAgZAMDMGCWCGSAGG
+EIBDQQmFiRPcGVuU1NMIEdlbmVyYXRlZCBTZXJ2ZXIgQ2VydGlmaWNhdGUwHQYD
VR0OBBYEFFM/7V0JB7Nle6tFySRbCXeACpbtMHQGA1UdIwRtMGuAFPSnwMyRRq9k
85HyJ/jIsm+KhzJzoUikRjBEMQswCQYDVQQGEwJERTEPMA0GA1UECAwGSGVzc2Vu
MRQwEgYDVQQKDAtwcml2YWN5aWRlYTEOMAwGA1UEAwwFQ0EwMDGCCQD7yOusg80S
BzATBgNVHSUEDDAKBggrBgEFBQcDATANBgkqhkiG9w0BAQUFAAOCAQEAYgEUiMsK
ogyVmzuYJINzAnbv5euxfAj71RJbg6xaKxH2rgxpAQ2Ekaixdvdt/r1jq1NGRtlK
0W9CJMvKdZQhDxIGAH0Yjg9KDvAseOIEZPZHnqT+eN37oF8/FKfDZeL7HsvU6+YL
XbP97u0skez3E59Z6jjZdFqs7DAhLrAdeFRHIHhcyyPV8h08d3t5YcK37sZPk8w1
FMoaTjVfkY8Uomgw/xmkR+s5aDA8ZWdQ1d/3LtLg3VWNh/6frYAsjCdcpAi8Uu64
0By6qOF532o1YkahCcJz9xuftD2jYOQWEcmNiHuFT8/cEo6MrWxsCijtXtTKUkRr
NMIXRWy3A5Bzgg==
-----END CERTIFICATE-----
