Certificate:
    Data:
        Version: 3 (0x2)
        Serial Number: 268435625 (0x100000a9)
    Signature Algorithm: sha1WithRSAEncryption
        Issuer: C=DE, ST=Hessen, O=privacyidea, CN=CA001
        Validity
            Not Before: Aug 18 07:20:01 2015 GMT
            Not After : Aug 17 07:20:01 2016 GMT
        Subject: C=DE, ST=Hessen, O=privacyidea, CN=requester.localdomain
        Subject Public Key Info:
            Public Key Algorithm: rsaEncryption
                Public-Key: (2048 bit)
                Modulus:
                    00:cd:be:14:4f:fa:ce:01:3f:42:22:1b:1d:9c:af:
                    dd:92:d2:7f:db:6c:b7:3e:39:43:43:6b:13:03:f1:
                    05:f4:07:74:bc:76:69:28:0b:af:19:8e:d7:fc:e3:
                    cd:c6:58:f2:ca:7f:08:6d:53:fc:07:02:44:24:c6:
                    b4:34:4c:8c:04:fe:33:0e:40:e2:20:ba:02:73:5a:
                    f7:f5:4f:63:6e:cc:c6:b6:df:54:1d:37:39:7d:51:
                    36:26:5f:bd:dc:3f:a8:8b:6b:a2:ae:b6:9d:d6:21:
                    e7:df:41:b8:7a:28:2a:68:48:ca:a8:2d:ed:e1:e9:
                    46:5e:5a:72:6d:b4:84:38:87:91:fd:94:11:0b:28:
                    84:c6:c2:2f:2a:fb:01:f9:36:7a:09:75:d1:33:88:
                    3c:73:41:5b:c8:bf:94:89:70:a1:f0:c0:b9:2e:50:
                    53:1e:b1:17:64:69:f4:2d:81:e0:a9:0d:0e:32:e9:
                    ba:55:8a:85:f1:1b:6f:49:79:b4:7f:88:c3:0d:3e:
                    54:88:9b:3d:1f:38:8c:04:f3:ee:6a:63:2b:f5:c6:
                    db:b4:83:aa:c4:78:41:3a:7d:4b:e1:c8:3e:71:ca:
                    1b:61:59:ea:c6:c4:ca:32:5e:c9:e9:bf:12:29:e6:
                    c6:c3:63:fe:a0:55:da:7a:f1:60:98:4d:26:ed:fa:
                    70:2d
                Exponent: 65537 (0x10001)
        X509v3 extensions:
            X509v3 Key Usage: 
                Digital Signature, Key Encipherment
            X509v3 Basic Constraints: 
                CA:FALSE
            Netscape Cert Type: 
                SSL Server
            Netscape Comment: 
                OpenSSL Generated Server Certificate
            X509v3 Subject Key Identifier: 
                53:3F:ED:5D:09:07:B3:65:7B:AB:45:C9:24:5B:09:77:80:0A:96:ED
            X509v3 Authority Key Identifier: 
                keyid:F4:A7:C0:CC:91:46:AF:64:F3:91:F2:27:F8:C8:B2:6F:8A:87:32:73
                DirName:/C=DE/ST=Hessen/O=privacyidea/CN=CA001
                serial:FB:C8:EB:AC:83:CD:12:07

            X509v3 Extended Key Usage: 
                TLS Web Server Authentication
    Signature Algorithm: sha1WithRSAEncryption
         09:20:ea:ba:32:11:bd:f9:47:85:35:2d:ae:42:00:94:e5:0e:
         09:91:29:65:6e:0f:a8:0d:24:ba:00:ed:42:57:10:48:27:a2:
         18:04:56:84:65:7a:86:91:b9:76:b1:be:32:58:44:34:1f:0f:
         b2:c1:38:4e:b1:d7:ae:7f:f7:b3:c6:6c:74:3c:f6:b0:60:36:
         19:80:01:2b:cb:f2:5d:80:fc:7a:9c:38:2f:dd:03:29:d1:9f:
         e4:7d:dd:c2:65:0d:48:48:5e:b0:68:42:2a:f7:37:86:9f:0b:
         2e:a7:f4:03:55:48:f2:88:25:76:38:6e:87:ff:97:8f:74:37:
         48:23:e7:36:93:ea:a5:1c:e7:1a:25:d2:c3:56:7c:07:98:3c:
         54:db:5e:fe:87:af:b7:b7:de:72:90:e8:91:d2:4c:54:4d:f1:
         ff:c3:ec:a3:16:65:a7:fa:49:d5:fb:8f:ab:62:e4:15:88:37:
         bf:ea:7f:4b:73:a2:6b:25:b3:e7:c6:83:8a:90:84:f5:08:89:
         b6:aa:26:1b:d5:f7:45:8d:9f:93:93:5a:2d:e1:36:af:4e:c5:
         ce:c5:02:ea:e2:ab:91:bc:a6:75:3a:5e:55:72:6e:c3:1e:ee:
         14:2a:36:aa:e5:fe:7c:4c:97:bd:5b:e3:7c:55:31:f8:45:5a:
         8a:7b:ad:c1
-----BEGIN CERTIFICATE-----
MIIEJjCCAw6gAwIBAgIEEAAAqTANBgkqhkiG9w0BAQUFADBEMQswCQYDVQQGEwJE
RTEPMA0GA1UECAwGSGVzc2VuMRQwEgYDVQQKDAtwcml2YWN5aWRlYTEOMAwGA1UE
AwwFQ0EwMDEwHhcNMTUwODE4MDcyMDAxWhcNMTYwODE3MDcyMDAxWjBUMQswCQYD
VQQGEwJERTEPMA0GA1UECAwGSGVzc2VuMRQwEgYDVQQKDAtwcml2YWN5aWRlYTEe
MBwGA1UEAwwVcmVxdWVzdGVyLmxvY2FsZG9tYWluMIIBIjANBgkqhkiG9w0BAQEF
AAOCAQ8AMIIBCgKCAQEAzb4UT/rOAT9CIhsdnK/dktJ/22y3PjlDQ2sTA/EF9Ad0
vHZpKAuvGY7X/OPNxljyyn8IbVP8BwJEJMa0NEyMBP4zDkDiILoCc1r39U9jbszG
tt9UHTc5fVE2Jl+93D+oi2uirrad1iHn30G4eigqaEjKqC3t4elGXlpybbSEOIeR
/ZQRCyiExsIvKvsB+TZ6CXXRM4g8c0FbyL+UiXCh8MC5LlBTHrEXZGn0LYHgqQ0O
Mum6VYqF8RtvSXm0f4jDDT5UiJs9HziMBPPuamMr9cbbtIOqxHhBOn1L4cg+ccob
YVnqxsTKMl7J6b8SKebGw2P+oFXaevFgmE0m7fpwLQIDAQABo4IBDjCCAQowCwYD
VR0PBAQDAgWgMAkGA1UdEwQCMAAwEQYJYIZIAYb4QgEBBAQDAgZAMDMGCWCGSAGG
+EIBDQQmFiRPcGVuU1NMIEdlbmVyYXRlZCBTZXJ2ZXIgQ2VydGlmaWNhdGUwHQYD
VR0OBBYEFFM/7V0JB7Nle6tFySRbCXeACpbtMHQGA1UdIwRtMGuAFPSnwMyRRq9k
85HyJ/jIsm+KhzJzoUikRjBEMQswCQYDVQQGEwJERTEPMA0GA1UECAwGSGVzc2Vu
MRQwEgYDVQQKDAtwcml2YWN5aWRlYTEOMAwGA1UEAwwFQ0EwMDGCCQD7yOusg80S
BzATBgNVHSUEDDAKBggrBgEFBQcDATANBgkqhkiG9w0BAQUFAAOCAQEACSDqujIR
vflHhTUtrkIAlOUOCZEpZW4PqA0kugDtQlcQSCeiGARWhGV6hpG5drG+MlhENB8P
ssE4TrHXrn/3s8ZsdDz2sGA2GYABK8vyXYD8epw4L90DKdGf5H3dwmUNSEhesGhC
Kvc3hp8LLqf0A1VI8ogldjhuh/+Xj3Q3SCPnNpPqpRznGiXSw1Z8B5g8VNte/oev
t7fecpDokdJMVE3x/8PsoxZlp/pJ1fuPq2LkFYg3v+p/S3OiayWz58aDipCE9QiJ
tqomG9X3RY2fk5NaLeE2r07FzsUC6uKrkbymdTpeVXJuwx7uFCo2quX+fEyXvVvj
fFUx+EVainutwQ==
-----END CERTIFICATE-----
