Certificate:
    Data:
        Version: 3 (0x2)
        Serial Number: 268435610 (0x1000009a)
    Signature Algorithm: sha1WithRSAEncryption
        Issuer: C=DE, ST=Hessen, O=privacyidea, CN=CA001
        Validity
            Not Before: Sep  4 13:20:17 2015 GMT
            Not After : Sep  3 13:20:17 2016 GMT
        Subject: CN=Steve Test/emailAddress=steve@openssl.org
        Subject Public Key Info:
            Public Key Algorithm: rsaEncryption
                Public-Key: (2048 bit)
                Modulus:
                    00:d2:81:89:20:51:48:0f:73:f4:11:32:24:d5:1f:
                    1c:fd:5c:f5:b6:e6:c5:f0:52:81:dc:d2:af:66:4a:
                    7c:93:31:61:5c:af:d1:6d:06:70:03:60:7c:72:0c:
                    88:dd:49:cd:9e:02:6c:d2:5a:d7:53:0f:f3:da:be:
                    69:64:b5:0f:0c:00:e3:b3:50:47:a3:b3:9b:ba:13:
                    50:d6:58:5a:4b:ab:39:e0:11:ca:0a:27:67:03:78:
                    22:66:6d:92:1e:1b:5c:49:ae:e6:6b:d1:8e:3b:9d:
                    06:d3:c6:ac:4d:53:43:10:ab:e8:96:c1:87:82:97:
                    99:8f:20:d3:99:12:37:31:84:e1:8a:ff:29:03:5f:
                    22:90:3e:7f:9b:e0:20:c1:ad:dc:ae:4c:39:1a:31:
                    96:17:02:8c:b2:d9:b4:0d:20:12:9b:7d:86:54:fd:
                    33:fd:c1:2a:62:46:f8:60:96:cf:6e:01:6f:22:df:
                    13:47:e7:97:ec:05:72:23:a3:62:f8:fa:ef:ac:9c:
                    72:f0:37:cb:2f:37:cf:90:a8:27:51:86:c6:d7:78:
                    08:8f:7e:25:a2:15:70:a2:fb:1c:b6:15:5e:a0:97:
                    8b:81:4c:09:28:8a:27:3b:94:bc:71:db:5b:71:37:
                    9a:2b:16:e0:6f:b5:c9:f5:4b:4f:20:ba:65:cf:af:
                    ad:ad
                Exponent: 65537 (0x10001)
        X509v3 extensions:
            X509v3 Key Usage: 
                Digital Signature, Key Encipherment
            X509v3 Basic Constraints: 
                CA:FALSE
            Netscape Cert Type: 
                SSL Server
            Netscape Comment: 
                OpenSSL Generated Server Certificate
            X509v3 Subject Key Identifier: 
                E5:25:6D:3E:AF:0D:DD:3F:4C:F2:45:19:39:D5:14:DB:7E:9C:C0:AD
            X509v3 Authority Key Identifier: 
                keyid:F4:A7:C0:CC:91:46:AF:64:F3:91:F2:27:F8:C8:B2:6F:8A:87:32:73
                DirName:/C=DE/ST=Hessen/O=privacyidea/CN=CA001
                serial:FB:C8:EB:AC:83:CD:12:07

            X509v3 Extended Key Usage: 
                TLS Web Server Authentication
    Signature Algorithm: sha1WithRSAEncryption
         14:00:e1:12:2e:82:69:62:f8:2e:85:fe:ab:60:a1:8d:43:f6:
         e6:72:0d:68:bc:9b:4d:a7:b3:a6:31:d6:27:ff:a8:16:de:de:
         51:94:62:11:46:07:bc:2d:a4:90:28:a2:99:08:22:8b:80:ca:
         23:d5:13:67:d1:a2:dc:c2:d5:57:7e:36:7b:62:1f:c5:f8:4d:
         25:7a:59:e9:e0:db:cb:fa:ed:90:0c:57:b4:a7:fb:fe:23:79:
         9e:02:0d:01:33:84:40:23:83:d0:b5:fc:15:e6:98:55:d6:6b:
         92:fd:62:6d:a0:11:75:5c:20:d8:d9:f0:cb:ac:cb:36:df:d3:
         c5:2b:44:b7:ab:38:d3:62:b4:c4:68:c2:03:56:00:31:1d:6d:
         60:11:cd:57:57:78:a9:f8:91:d7:29:33:ad:88:c0:d3:af:09:
         dd:0b:e8:bb:61:7d:30:96:44:39:b5:77:da:f9:32:52:ba:07:
         0b:3f:db:84:22:58:12:2a:5a:d1:dd:e1:58:d4:43:28:a3:75:
         a3:a8:97:48:9c:7a:4e:b9:2e:b0:db:11:ce:6b:1e:8c:e3:b3:
         b6:15:a3:ea:65:84:56:c6:07:04:5e:ca:79:48:67:fa:ff:fb:
         47:7a:de:97:a2:d5:09:00:78:37:2b:3e:76:58:6a:5d:18:6d:
         67:6b:bb:47
-----BEGIN CERTIFICATE-----
MIIECTCCAvGgAwIBAgIEEAAAmjANBgkqhkiG9w0BAQUFADBEMQswCQYDVQQGEwJE
RTEPMA0GA1UECAwGSGVzc2VuMRQwEgYDVQQKDAtwcml2YWN5aWRlYTEOMAwGA1UE
AwwFQ0EwMDEwHhcNMTUwOTA0MTMyMDE3WhcNMTYwOTAzMTMyMDE3WjA3MRMwEQYD
VQQDEwpTdGV2ZSBUZXN0MSAwHgYJKoZIhvcNAQkBFhFzdGV2ZUBvcGVuc3NsLm9y
ZzCCASIwDQYJKoZIhvcNAQEBBQADggEPADCCAQoCggEBANKBiSBRSA9z9BEyJNUf
HP1c9bbmxfBSgdzSr2ZKfJMxYVyv0W0GcANgfHIMiN1JzZ4CbNJa11MP89q+aWS1
DwwA47NQR6Ozm7oTUNZYWkurOeARygonZwN4ImZtkh4bXEmu5mvRjjudBtPGrE1T
QxCr6JbBh4KXmY8g05kSNzGE4Yr/KQNfIpA+f5vgIMGt3K5MORoxlhcCjLLZtA0g
Ept9hlT9M/3BKmJG+GCWz24BbyLfE0fnl+wFciOjYvj676yccvA3yy83z5CoJ1GG
xtd4CI9+JaIVcKL7HLYVXqCXi4FMCSiKJzuUvHHbW3E3misW4G+1yfVLTyC6Zc+v
ra0CAwEAAaOCAQ4wggEKMAsGA1UdDwQEAwIFoDAJBgNVHRMEAjAAMBEGCWCGSAGG
+EIBAQQEAwIGQDAzBglghkgBhvhCAQ0EJhYkT3BlblNTTCBHZW5lcmF0ZWQgU2Vy
dmVyIENlcnRpZmljYXRlMB0GA1UdDgQWBBTlJW0+rw3dP0zyRRk51RTbfpzArTB0
BgNVHSMEbTBrgBT0p8DMkUavZPOR8if4yLJviocyc6FIpEYwRDELMAkGA1UEBhMC
REUxDzANBgNVBAgMBkhlc3NlbjEUMBIGA1UECgwLcHJpdmFjeWlkZWExDjAMBgNV
BAMMBUNBMDAxggkA+8jrrIPNEgcwEwYDVR0lBAwwCgYIKwYBBQUHAwEwDQYJKoZI
hvcNAQEFBQADggEBABQA4RIugmli+C6F/qtgoY1D9uZyDWi8m02ns6Yx1if/qBbe
3lGUYhFGB7wtpJAoopkIIouAyiPVE2fRotzC1Vd+NntiH8X4TSV6Weng28v67ZAM
V7Sn+/4jeZ4CDQEzhEAjg9C1/BXmmFXWa5L9Ym2gEXVcINjZ8Musyzbf08UrRLer
ONNitMRowgNWADEdbWARzVdXeKn4kdcpM62IwNOvCd0L6LthfTCWRDm1d9r5MlK6
Bws/24QiWBIqWtHd4VjUQyijdaOol0icek65LrDbEc5rHozjs7YVo+plhFbGBwRe
ynlIZ/r/+0d63pei1QkAeDcrPnZYal0YbWdru0c=
-----END CERTIFICATE-----
