Certificate:
    Data:
        Version: 3 (0x2)
        Serial Number: 268435637 (0x100000b5)
    Signature Algorithm: sha1WithRSAEncryption
        Issuer: C=DE, ST=Hessen, O=privacyidea, CN=CA001
        Validity
            Not Before: Jun 18 14:23:38 2015 GMT
            Not After : Jun 17 14:23:38 2016 GMT
        Subject: CN=admin,CN=admin,O=/emailAddress=meine
        Subject Public Key Info:
            Public Key Algorithm: rsaEncryption
                Public-Key: (2048 bit)
                Modulus:
                    00:d0:b3:19:61:66:a4:be:cf:30:53:a6:d8:ac:fb:
                    85:d4:6c:9a:c6:9d:8f:25:07:2d:a3:22:87:89:3c:
                    0a:79:9e:60:2d:31:2f:eb:ff:38:ee:6a:7e:26:87:
                    84:e0:51:c7:71:dd:19:19:18:39:78:a0:bb:ff:7c:
                    6d:8c:f9:29:7b:50:fd:14:5c:1a:db:1b:f1:74:96:
                    1c:17:ef:64:f2:ae:7c:86:d0:dd:17:bd:1a:c7:ec:
                    31:ac:c0:1d:22:de:9a:b4:67:70:35:4d:db:06:c9:
                    29:e7:2c:c4:d8:2e:bc:86:d5:61:08:42:97:9d:68:
                    cc:ed:a3:7b:ad:5c:7b:42:05:b5:5d:a5:31:0c:0b:
                    18:4f:1c:69:6d:e4:26:86:eb:97:a2:d8:66:30:9e:
                    59:83:50:dd:b6:9a:93:f3:e8:48:1a:eb:3f:05:b6:
                    fc:d4:8a:8b:d3:69:4c:01:bf:86:d5:20:20:f0:d6:
                    dc:9d:7d:c5:fe:a7:06:49:f9:6f:0a:71:81:ff:8e:
                    f0:24:5e:56:43:22:02:80:13:89:85:0d:15:6e:62:
                    7b:dd:fb:45:8a:d0:9d:4b:45:10:51:05:31:50:1b:
                    47:2f:96:a4:7f:bd:ad:e7:d5:7c:45:9c:44:b3:6c:
                    84:e2:b6:b6:96:cd:94:75:c0:5a:f7:58:f9:aa:83:
                    c0:5f
                Exponent: 65537 (0x10001)
        X509v3 extensions:
            X509v3 Key Usage: 
                Digital Signature, Key Encipherment
            X509v3 Basic Constraints: 
                CA:FALSE
            Netscape Cert Type: 
                SSL Server
            Netscape Comment: 
                OpenSSL Generated Server Certificate
            X509v3 Subject Key Identifier: 
                4E:7B:CF:42:17:91:8E:B1:2B:E2:6A:53:05:6A:0B:4C:A3:7E:28:27
            X509v3 Authority Key Identifier: 
                keyid:F4:A7:C0:CC:91:46:AF:64:F3:91:F2:27:F8:C8:B2:6F:8A:87:32:73
                DirName:/C=DE/ST=Hessen/O=privacyidea/CN=CA001
                serial:FB:C8:EB:AC:83:CD:12:07

            X509v3 Extended Key Usage: 
                TLS Web Server Authentication
    Signature Algorithm: sha1WithRSAEncryption
         6d:5b:37:1d:61:8f:44:c5:4f:37:13:d5:86:b7:cd:1c:ff:6a:
         6a:e3:78:3e:52:a3:45:eb:d0:e1:4a:cd:c0:78:62:08:90:28:
         1c:e5:b6:6d:01:9e:c5:2b:76:7e:11:ea:be:ec:26:0a:a1:ff:
         ac:b1:9b:a3:fe:e5:97:54:cf:aa:91:95:95:14:03:27:c6:e5:
         49:bb:a2:31:93:b7:bd:c6:1f:e9:1c:d6:ac:8c:5e:a3:21:ac:
         10:1c:de:f8:97:b8:58:ce:84:1d:8e:04:08:44:f8:46:09:1d:
         f8:77:e9:a1:0e:01:05:d3:dc:68:0a:97:60:60:ef:a9:ea:e7:
         d3:fc:89:72:6d:d9:f2:9e:18:a8:fe:f0:2a:08:47:1b:7d:04:
         ef:3b:f5:01:91:98:e2:2f:b9:78:29:16:18:8e:0e:c4:dd:84:
         73:4a:fd:05:e2:f5:40:b0:ef:96:a3:2a:db:09:79:7e:75:15:
         b2:f2:ac:73:88:b4:c9:04:c6:3b:4f:64:3e:81:cb:c7:25:38:
         33:35:97:86:0d:ef:19:13:01:b8:c4:47:30:b9:ba:7e:36:31:
         3e:b4:95:a4:05:8b:84:b8:16:3c:ce:12:85:38:d8:01:49:5e:
         76:1c:b7:b4:74:a2:49:c3:64:fd:fb:c4:3b:bb:5e:bd:9c:81:
         b3:12:ac:4c
-----BEGIN CERTIFICATE-----
MIIEBDCCAuygAwIBAgIEEAAAtTANBgkqhkiG9w0BAQUFADBEMQswCQYDVQQGEwJE
RTEPMA0GA1UECAwGSGVzc2VuMRQwEgYDVQQKDAtwcml2YWN5aWRlYTEOMAwGA1UE
AwwFQ0EwMDEwHhcNMTUwNjE4MTQyMzM4WhcNMTYwNjE3MTQyMzM4WjAyMRowGAYD
VQQDExFhZG1pbixDTj1hZG1pbixPPTEUMBIGCSqGSIb3DQEJARYFbWVpbmUwggEi
MA0GCSqGSIb3DQEBAQUAA4IBDwAwggEKAoIBAQDQsxlhZqS+zzBTptis+4XUbJrG
nY8lBy2jIoeJPAp5nmAtMS/r/zjuan4mh4TgUcdx3RkZGDl4oLv/fG2M+Sl7UP0U
XBrbG/F0lhwX72TyrnyG0N0XvRrH7DGswB0i3pq0Z3A1TdsGySnnLMTYLryG1WEI
QpedaMzto3utXHtCBbVdpTEMCxhPHGlt5CaG65ei2GYwnlmDUN22mpPz6Ega6z8F
tvzUiovTaUwBv4bVICDw1tydfcX+pwZJ+W8KcYH/jvAkXlZDIgKAE4mFDRVuYnvd
+0WK0J1LRRBRBTFQG0cvlqR/va3n1XxFnESzbITitraWzZR1wFr3WPmqg8BfAgMB
AAGjggEOMIIBCjALBgNVHQ8EBAMCBaAwCQYDVR0TBAIwADARBglghkgBhvhCAQEE
BAMCBkAwMwYJYIZIAYb4QgENBCYWJE9wZW5TU0wgR2VuZXJhdGVkIFNlcnZlciBD
ZXJ0aWZpY2F0ZTAdBgNVHQ4EFgQUTnvPQheRjrEr4mpTBWoLTKN+KCcwdAYDVR0j
BG0wa4AU9KfAzJFGr2TzkfIn+Miyb4qHMnOhSKRGMEQxCzAJBgNVBAYTAkRFMQ8w
DQYDVQQIDAZIZXNzZW4xFDASBgNVBAoMC3ByaXZhY3lpZGVhMQ4wDAYDVQQDDAVD
QTAwMYIJAPvI66yDzRIHMBMGA1UdJQQMMAoGCCsGAQUFBwMBMA0GCSqGSIb3DQEB
BQUAA4IBAQBtWzcdYY9ExU83E9WGt80c/2pq43g+UqNF69DhSs3AeGIIkCgc5bZt
AZ7FK3Z+Eeq+7CYKof+ssZuj/uWXVM+qkZWVFAMnxuVJu6Ixk7e9xh/pHNasjF6j
IawQHN74l7hYzoQdjgQIRPhGCR34d+mhDgEF09xoCpdgYO+p6ufT/Ilybdnynhio
/vAqCEcbfQTvO/UBkZjiL7l4KRYYjg7E3YRzSv0F4vVAsO+WoyrbCXl+dRWy8qxz
iLTJBMY7T2Q+gcvHJTgzNZeGDe8ZEwG4xEcwubp+NjE+tJWkBYuEuBY8zhKFONgB
SV52HLe0dKJJw2T9+8Q7u169nIGzEqxM
-----END CERTIFICATE-----
