Certificate:
    Data:
        Version: 3 (0x2)
        Serial Number: 268435616 (0x100000a0)
    Signature Algorithm: sha1WithRSAEncryption
        Issuer: C=DE, ST=Hessen, O=privacyidea, CN=CA001
        Validity
            Not Before: Sep  4 13:26:51 2015 GMT
            Not After : Sep  3 13:26:51 2016 GMT
        Subject: CN=Steve Test/emailAddress=steve@openssl.org
        Subject Public Key Info:
            Public Key Algorithm: rsaEncryption
                Public-Key: (2048 bit)
                Modulus:
                    00:d2:81:89:20:51:48:0f:73:f4:11:32:24:d5:1f:
                    1c:fd:5c:f5:b6:e6:c5:f0:52:81:dc:d2:af:66:4a:
                    7c:93:31:61:5c:af:d1:6d:06:70:03:60:7c:72:0c:
                    88:dd:49:cd:9e:02:6c:d2:5a:d7:53:0f:f3:da:be:
                    69:64:b5:0f:0c:00:e3:b3:50:47:a3:b3:9b:ba:13:
                    50:d6:58:5a:4b:ab:39:e0:11:ca:0a:27:67:03:78:
                    22:66:6d:92:1e:1b:5c:49:ae:e6:6b:d1:8e:3b:9d:
                    06:d3:c6:ac:4d:53:43:10:ab:e8:96:c1:87:82:97:
                    99:8f:20:d3:99:12:37:31:84:e1:8a:ff:29:03:5f:
                    22:90:3e:7f:9b:e0:20:c1:ad:dc:ae:4c:39:1a:31:
                    96:17:02:8c:b2:d9:b4:0d:20:12:9b:7d:86:54:fd:
                    33:fd:c1:2a:62:46:f8:60:96:cf:6e:01:6f:22:df:
                    13:47:e7:97:ec:05:72:23:a3:62:f8:fa:ef:ac:9c:
                    72:f0:37:cb:2f:37:cf:90:a8:27:51:86:c6:d7:78:
                    08:8f:7e:25:a2:15:70:a2:fb:1c:b6:15:5e:a0:97:
                    8b:81:4c:09:28:8a:27:3b:94:bc:71:db:5b:71:37:
                    9a:2b:16:e0:6f:b5:c9:f5:4b:4f:20:ba:65:cf:af:
                    ad:ad
                Exponent: 65537 (0x10001)
        X509v3 extensions:
            X509v3 Key Usage: 
                Digital Signature, Key Encipherment
            X509v3 Basic Constraints: 
                CA:FALSE
            Netscape Cert Type: 
                SSL Server
            Netscape Comment: 
                OpenSSL Generated Server Certificate
            X509v3 Subject Key Identifier: 
                E5:25:6D:3E:AF:0D:DD:3F:4C:F2:45:19:39:D5:14:DB:7E:9C:C0:AD
            X509v3 Authority Key Identifier: 
                keyid:F4:A7:C0:CC:91:46:AF:64:F3:91:F2:27:F8:C8:B2:6F:8A:87:32:73
                DirName:/C=DE/ST=Hessen/O=privacyidea/CN=CA001
                serial:FB:C8:EB:AC:83:CD:12:07

            X509v3 Extended Key Usage: 
                TLS Web Server Authentication
    Signature Algorithm: sha1WithRSAEncryption
         90:47:ad:33:91:a3:d6:cf:08:61:b1:11:a8:19:1c:56:95:20:
         7d:a6:88:4e:14:61:31:0f:18:93:0f:0a:d8:43:4b:b1:23:55:
         8a:19:61:cc:be:2c:8e:08:9f:ee:34:67:f1:ed:df:00:54:ae:
         28:c8:73:8b:2b:30:54:12:3f:1f:4c:5d:9a:9f:9b:b1:eb:21:
         94:2e:f5:8c:23:77:69:b1:d2:fe:3a:65:61:db:e0:f5:ee:b3:
         d3:62:00:d6:d0:fc:06:2d:fc:b4:ff:91:66:c7:ca:c2:48:92:
         86:68:2e:b2:67:cd:f4:c4:45:e6:76:8d:c2:57:fd:99:9f:4f:
         f0:cf:f4:40:61:de:bc:bc:73:3f:25:c0:9b:72:8a:2a:bd:80:
         59:22:9f:6d:0d:a3:51:95:ba:dc:ca:2c:39:f4:fb:4e:92:a6:
         7b:23:57:b5:e8:09:84:fd:98:de:2d:6c:d9:3e:b0:a4:51:55:
         73:5e:1f:ad:fb:19:dd:63:6a:07:f1:11:c6:8e:34:66:d2:57:
         36:bd:db:ac:04:83:d4:ef:f2:3d:d4:9f:b6:14:d6:48:53:52:
         5c:8a:ee:32:03:95:fd:18:e9:45:f6:30:05:fd:6b:6d:2c:65:
         ad:0a:86:4a:b1:06:a6:1c:de:5d:ef:91:51:30:c5:40:48:16:
         31:8e:0c:40
-----BEGIN CERTIFICATE-----
MIIECTCCAvGgAwIBAgIEEAAAoDANBgkqhkiG9w0BAQUFADBEMQswCQYDVQQGEwJE
RTEPMA0GA1UECAwGSGVzc2VuMRQwEgYDVQQKDAtwcml2YWN5aWRlYTEOMAwGA1UE
AwwFQ0EwMDEwHhcNMTUwOTA0MTMyNjUxWhcNMTYwOTAzMTMyNjUxWjA3MRMwEQYD
VQQDEwpTdGV2ZSBUZXN0MSAwHgYJKoZIhvcNAQkBFhFzdGV2ZUBvcGVuc3NsLm9y
ZzCCASIwDQYJKoZIhvcNAQEBBQADggEPADCCAQoCggEBANKBiSBRSA9z9BEyJNUf
HP1c9bbmxfBSgdzSr2ZKfJMxYVyv0W0GcANgfHIMiN1JzZ4CbNJa11MP89q+aWS1
DwwA47NQR6Ozm7oTUNZYWkurOeARygonZwN4ImZtkh4bXEmu5mvRjjudBtPGrE1T
QxCr6JbBh4KXmY8g05kSNzGE4Yr/KQNfIpA+f5vgIMGt3K5MORoxlhcCjLLZtA0g
Ept9hlT9M/3BKmJG+GCWz24BbyLfE0fnl+wFciOjYvj676yccvA3yy83z5CoJ1GG
xtd4CI9+JaIVcKL7HLYVXqCXi4FMCSiKJzuUvHHbW3E3misW4G+1yfVLTyC6Zc+v
ra0CAwEAAaOCAQ4wggEKMAsGA1UdDwQEAwIFoDAJBgNVHRMEAjAAMBEGCWCGSAGG
+EIBAQQEAwIGQDAzBglghkgBhvhCAQ0EJhYkT3BlblNTTCBHZW5lcmF0ZWQgU2Vy
dmVyIENlcnRpZmljYXRlMB0GA1UdDgQWBBTlJW0+rw3dP0zyRRk51RTbfpzArTB0
BgNVHSMEbTBrgBT0p8DMkUavZPOR8if4yLJviocyc6FIpEYwRDELMAkGA1UEBhMC
REUxDzANBgNVBAgMBkhlc3NlbjEUMBIGA1UECgwLcHJpdmFjeWlkZWExDjAMBgNV
BAMMBUNBMDAxggkA+8jrrIPNEgcwEwYDVR0lBAwwCgYIKwYBBQUHAwEwDQYJKoZI
hvcNAQEFBQADggEBAJBHrTORo9bPCGGxEagZHFaVIH2miE4UYTEPGJMPCthDS7Ej
VYoZYcy+LI4In+40Z/Ht3wBUrijIc4srMFQSPx9MXZqfm7HrIZQu9Ywjd2mx0v46
ZWHb4PXus9NiANbQ/AYt/LT/kWbHysJIkoZoLrJnzfTEReZ2jcJX/ZmfT/DP9EBh
3ry8cz8lwJtyiiq9gFkin20No1GVutzKLDn0+06SpnsjV7XoCYT9mN4tbNk+sKRR
VXNeH637Gd1jagfxEcaONGbSVza926wEg9Tv8j3Un7YU1khTUlyK7jIDlf0Y6UX2
MAX9a20sZa0KhkqxBqYc3l3vkVEwxUBIFjGODEA=
-----END CERTIFICATE-----
