Certificate:
    Data:
        Version: 3 (0x2)
        Serial Number: 268435613 (0x1000009d)
    Signature Algorithm: sha1WithRSAEncryption
        Issuer: C=DE, ST=Hessen, O=privacyidea, CN=CA001
        Validity
            Not Before: Sep  4 13:26:21 2015 GMT
            Not After : Sep  3 13:26:21 2016 GMT
        Subject: C=DE, ST=Hessen, O=privacyidea, CN=requester.localdomain
        Subject Public Key Info:
            Public Key Algorithm: rsaEncryption
                Public-Key: (2048 bit)
                Modulus:
                    00:cd:be:14:4f:fa:ce:01:3f:42:22:1b:1d:9c:af:
                    dd:92:d2:7f:db:6c:b7:3e:39:43:43:6b:13:03:f1:
                    05:f4:07:74:bc:76:69:28:0b:af:19:8e:d7:fc:e3:
                    cd:c6:58:f2:ca:7f:08:6d:53:fc:07:02:44:24:c6:
                    b4:34:4c:8c:04:fe:33:0e:40:e2:20:ba:02:73:5a:
                    f7:f5:4f:63:6e:cc:c6:b6:df:54:1d:37:39:7d:51:
                    36:26:5f:bd:dc:3f:a8:8b:6b:a2:ae:b6:9d:d6:21:
                    e7:df:41:b8:7a:28:2a:68:48:ca:a8:2d:ed:e1:e9:
                    46:5e:5a:72:6d:b4:84:38:87:91:fd:94:11:0b:28:
                    84:c6:c2:2f:2a:fb:01:f9:36:7a:09:75:d1:33:88:
                    3c:73:41:5b:c8:bf:94:89:70:a1:f0:c0:b9:2e:50:
                    53:1e:b1:17:64:69:f4:2d:81:e0:a9:0d:0e:32:e9:
                    ba:55:8a:85:f1:1b:6f:49:79:b4:7f:88:c3:0d:3e:
                    54:88:9b:3d:1f:38:8c:04:f3:ee:6a:63:2b:f5:c6:
                    db:b4:83:aa:c4:78:41:3a:7d:4b:e1:c8:3e:71:ca:
                    1b:61:59:ea:c6:c4:ca:32:5e:c9:e9:bf:12:29:e6:
                    c6:c3:63:fe:a0:55:da:7a:f1:60:98:4d:26:ed:fa:
                    70:2d
                Exponent: 65537 (0x10001)
        X509v3 extensions:
            X509v3 Key Usage: 
                Digital Signature, Key Encipherment
            X509v3 Basic Constraints: 
                CA:FALSE
            Netscape Cert Type: 
                SSL Server
            Netscape Comment: 
                OpenSSL Generated Server Certificate
            X509v3 Subject Key Identifier: 
                53:3F:ED:5D:09:07:B3:65:7B:AB:45:C9:24:5B:09:77:80:0A:96:ED
            X509v3 Authority Key Identifier: 
                keyid:F4:A7:C0:CC:91:46:AF:64:F3:91:F2:27:F8:C8:B2:6F:8A:87:32:73
                DirName:/C=DE/ST=Hessen/O=privacyidea/CN=CA001
                serial:FB:C8:EB:AC:83:CD:12:07

            X509v3 Extended Key Usage: 
                TLS Web Server Authentication
    Signature Algorithm: sha1WithRSAEncryption
         8f:86:6f:d0:bb:89:72:db:ef:26:f2:13:1d:b3:64:06:27:48:
         53:9c:30:01:34:e1:93:d5:bf:a8:c3:e8:5b:9d:bc:d1:d8:1a:
         8e:73:80:b6:89:59:8a:bc:f2:4c:17:b3:1e:d2:7a:a0:27:f5:
         18:99:cd:3a:53:17:74:ca:ab:5a:e6:bf:50:73:53:52:a5:9d:
         c1:de:9d:26:0d:00:49:b4:ae:0f:14:68:6d:53:2c:04:fd:78:
         19:a2:6c:52:a1:44:a6:2b:8c:9b:8b:40:bf:0a:14:cc:40:ef:
         e1:bd:0b:c0:10:57:4c:42:3c:a1:dd:bb:4b:fb:11:4e:43:53:
         62:a9:f4:3d:2a:e1:2d:44:09:11:8b:ed:20:60:35:ad:36:f7:
         b9:bf:aa:5e:77:fc:67:82:0a:c6:43:b2:03:f9:c7:65:11:cb:
         9d:c0:75:43:ea:8f:ce:3a:96:aa:0d:f1:33:05:d9:92:ff:d2:
         aa:6c:6c:c9:80:cb:98:46:d6:b1:01:4b:24:bf:ed:27:5e:d6:
         b3:1b:01:26:53:f3:76:a5:d6:26:f2:9d:55:b1:ee:3a:a4:2b:
         f9:9e:8c:56:e5:01:04:a7:42:6a:c9:d0:af:35:1e:a5:d6:fc:
         a2:ff:22:d9:9a:f8:e9:17:8e:2b:51:aa:5c:d5:39:2b:d7:32:
         c7:9b:95:c1
-----BEGIN CERTIFICATE-----
MIIEJjCCAw6gAwIBAgIEEAAAnTANBgkqhkiG9w0BAQUFADBEMQswCQYDVQQGEwJE
RTEPMA0GA1UECAwGSGVzc2VuMRQwEgYDVQQKDAtwcml2YWN5aWRlYTEOMAwGA1UE
AwwFQ0EwMDEwHhcNMTUwOTA0MTMyNjIxWhcNMTYwOTAzMTMyNjIxWjBUMQswCQYD
VQQGEwJERTEPMA0GA1UECAwGSGVzc2VuMRQwEgYDVQQKDAtwcml2YWN5aWRlYTEe
MBwGA1UEAwwVcmVxdWVzdGVyLmxvY2FsZG9tYWluMIIBIjANBgkqhkiG9w0BAQEF
AAOCAQ8AMIIBCgKCAQEAzb4UT/rOAT9CIhsdnK/dktJ/22y3PjlDQ2sTA/EF9Ad0
vHZpKAuvGY7X/OPNxljyyn8IbVP8BwJEJMa0NEyMBP4zDkDiILoCc1r39U9jbszG
tt9UHTc5fVE2Jl+93D+oi2uirrad1iHn30G4eigqaEjKqC3t4elGXlpybbSEOIeR
/ZQRCyiExsIvKvsB+TZ6CXXRM4g8c0FbyL+UiXCh8MC5LlBTHrEXZGn0LYHgqQ0O
Mum6VYqF8RtvSXm0f4jDDT5UiJs9HziMBPPuamMr9cbbtIOqxHhBOn1L4cg+ccob
YVnqxsTKMl7J6b8SKebGw2P+oFXaevFgmE0m7fpwLQIDAQABo4IBDjCCAQowCwYD
VR0PBAQDAgWgMAkGA1UdEwQCMAAwEQYJYIZIAYb4QgEBBAQDAgZAMDMGCWCGSAGG
+EIBDQQmFiRPcGVuU1NMIEdlbmVyYXRlZCBTZXJ2ZXIgQ2VydGlmaWNhdGUwHQYD
VR0OBBYEFFM/7V0JB7Nle6tFySRbCXeACpbtMHQGA1UdIwRtMGuAFPSnwMyRRq9k
85HyJ/jIsm+KhzJzoUikRjBEMQswCQYDVQQGEwJERTEPMA0GA1UECAwGSGVzc2Vu
MRQwEgYDVQQKDAtwcml2YWN5aWRlYTEOMAwGA1UEAwwFQ0EwMDGCCQD7yOusg80S
BzATBgNVHSUEDDAKBggrBgEFBQcDATANBgkqhkiG9w0BAQUFAAOCAQEAj4Zv0LuJ
ctvvJvITHbNkBidIU5wwATThk9W/qMPoW5280dgajnOAtolZirzyTBezHtJ6oCf1
GJnNOlMXdMqrWua/UHNTUqWdwd6dJg0ASbSuDxRobVMsBP14GaJsUqFEpiuMm4tA
vwoUzEDv4b0LwBBXTEI8od27S/sRTkNTYqn0PSrhLUQJEYvtIGA1rTb3ub+qXnf8
Z4IKxkOyA/nHZRHLncB1Q+qPzjqWqg3xMwXZkv/SqmxsyYDLmEbWsQFLJL/tJ17W
sxsBJlPzdqXWJvKdVbHuOqQr+Z6MVuUBBKdCasnQrzUepdb8ov8i2Zr46ReOK1Gq
XNU5K9cyx5uVwQ==
-----END CERTIFICATE-----
