Certificate:
    Data:
        Version: 3 (0x2)
        Serial Number: 268435631 (0x100000af)
    Signature Algorithm: sha1WithRSAEncryption
        Issuer: C=DE, ST=Hessen, O=privacyidea, CN=CA001
        Validity
            Not Before: Jun 18 14:14:04 2015 GMT
            Not After : Jun 17 14:14:04 2016 GMT
        Subject: CN=admin,CN=admin,O=/emailAddress=meine
        Subject Public Key Info:
            Public Key Algorithm: rsaEncryption
                Public-Key: (2048 bit)
                Modulus:
                    00:9c:7f:0b:81:fd:6a:b1:0c:e9:63:83:7b:11:73:
                    ff:0a:82:5b:cf:10:c5:e6:8b:22:ad:98:c3:4d:74:
                    23:1b:4d:6c:2f:c7:65:6a:2d:81:de:eb:82:57:69:
                    19:9c:7f:41:ff:b1:df:94:b9:13:05:0b:ed:0c:60:
                    c7:d9:17:8c:ab:01:4a:8a:74:9f:c2:9f:b7:48:c8:
                    cf:ed:e8:c0:3c:6a:f6:98:48:18:87:29:9c:d4:b7:
                    57:3b:61:e0:33:f2:79:a7:98:8b:22:ba:eb:34:e2:
                    3c:09:82:63:b3:5c:7b:84:2f:f1:56:45:da:bc:cc:
                    33:44:cc:40:d7:37:68:a1:75:53:fb:da:ce:fe:c4:
                    c4:70:c4:3f:ac:3a:14:74:37:3f:16:fa:8a:5c:7e:
                    bf:22:65:bc:3c:e7:55:42:bf:33:b9:9c:83:f5:f3:
                    a5:ad:68:34:ed:fb:d5:93:f5:7e:1f:10:16:a6:a0:
                    8e:fe:ca:c0:93:5b:a3:27:87:46:06:a9:ad:c3:8e:
                    ef:87:cf:0f:9b:e0:7d:88:2e:23:bf:24:a5:cd:4c:
                    5a:36:8a:39:89:67:70:7d:ad:65:d2:6f:45:48:05:
                    c2:6d:52:42:68:e8:66:5d:0b:05:b6:63:90:62:3f:
                    d1:6d:55:cd:68:8a:66:fd:86:a5:97:81:3c:a6:aa:
                    dc:71
                Exponent: 65537 (0x10001)
        X509v3 extensions:
            X509v3 Key Usage: 
                Digital Signature, Key Encipherment
            X509v3 Basic Constraints: 
                CA:FALSE
            Netscape Cert Type: 
                SSL Server
            Netscape Comment: 
                OpenSSL Generated Server Certificate
            X509v3 Subject Key Identifier: 
                68:26:E2:04:6C:46:72:2F:2E:03:18:47:CF:43:14:C7:31:71:D6:AB
            X509v3 Authority Key Identifier: 
                keyid:F4:A7:C0:CC:91:46:AF:64:F3:91:F2:27:F8:C8:B2:6F:8A:87:32:73
                DirName:/C=DE/ST=Hessen/O=privacyidea/CN=CA001
                serial:FB:C8:EB:AC:83:CD:12:07

            X509v3 Extended Key Usage: 
                TLS Web Server Authentication
    Signature Algorithm: sha1WithRSAEncryption
         6e:1a:2b:48:05:3c:53:a7:55:83:c9:f4:f1:c1:7d:4c:a9:09:
         6e:da:4a:8d:49:3c:b2:4f:8d:9b:b1:aa:c5:43:c0:e8:f5:94:
         7f:83:2f:0f:66:09:c8:cf:25:34:48:d9:9c:36:b6:a3:2e:95:
         94:bf:a4:12:8e:79:25:7d:33:b7:ac:d3:e4:da:de:ab:16:32:
         bb:85:c9:88:0e:bb:37:d7:1c:0c:82:11:ea:4b:b2:d4:7e:1b:
         18:ad:cf:5a:f0:d2:63:87:eb:d6:1c:3d:77:3d:64:e5:46:ae:
         12:ab:e1:99:49:3e:25:ba:5b:aa:e9:65:75:14:6e:6b:e0:b3:
         ba:37:64:18:a1:31:20:7a:fd:b9:6b:5e:5b:6e:e9:6a:e1:cb:
         36:1f:9c:b4:3e:57:50:0c:d3:21:bf:e6:1b:4a:4c:bf:16:1c:
         9f:05:fc:be:d5:37:3a:c1:91:03:81:63:9a:40:9a:a4:b2:e8:
         49:67:fb:29:c4:50:d0:d6:5f:fe:75:6c:df:1c:26:02:61:0c:
         e7:3e:2b:31:61:8a:07:ba:75:fe:62:39:3e:d1:ff:33:fb:07:
         da:7f:64:a0:81:a9:6a:1a:81:b4:be:d5:30:6c:c4:6d:e4:15:
         f9:bd:cf:24:1f:17:76:1c:e1:c9:80:55:3f:b0:7f:c7:4a:3f:
         f0:51:37:06
-----BEGIN CERTIFICATE-----
MIIEBDCCAuygAwIBAgIEEAAArzANBgkqhkiG9w0BAQUFADBEMQswCQYDVQQGEwJE
RTEPMA0GA1UECAwGSGVzc2VuMRQwEgYDVQQKDAtwcml2YWN5aWRlYTEOMAwGA1UE
AwwFQ0EwMDEwHhcNMTUwNjE4MTQxNDA0WhcNMTYwNjE3MTQxNDA0WjAyMRowGAYD
VQQDExFhZG1pbixDTj1hZG1pbixPPTEUMBIGCSqGSIb3DQEJARYFbWVpbmUwggEi
MA0GCSqGSIb3DQEBAQUAA4IBDwAwggEKAoIBAQCcfwuB/WqxDOljg3sRc/8KglvP
EMXmiyKtmMNNdCMbTWwvx2VqLYHe64JXaRmcf0H/sd+UuRMFC+0MYMfZF4yrAUqK
dJ/Cn7dIyM/t6MA8avaYSBiHKZzUt1c7YeAz8nmnmIsiuus04jwJgmOzXHuEL/FW
Rdq8zDNEzEDXN2ihdVP72s7+xMRwxD+sOhR0Nz8W+opcfr8iZbw851VCvzO5nIP1
86WtaDTt+9WT9X4fEBamoI7+ysCTW6Mnh0YGqa3Dju+Hzw+b4H2ILiO/JKXNTFo2
ijmJZ3B9rWXSb0VIBcJtUkJo6GZdCwW2Y5BiP9FtVc1oimb9hqWXgTymqtxxAgMB
AAGjggEOMIIBCjALBgNVHQ8EBAMCBaAwCQYDVR0TBAIwADARBglghkgBhvhCAQEE
BAMCBkAwMwYJYIZIAYb4QgENBCYWJE9wZW5TU0wgR2VuZXJhdGVkIFNlcnZlciBD
ZXJ0aWZpY2F0ZTAdBgNVHQ4EFgQUaCbiBGxGci8uAxhHz0MUxzFx1qswdAYDVR0j
BG0wa4AU9KfAzJFGr2TzkfIn+Miyb4qHMnOhSKRGMEQxCzAJBgNVBAYTAkRFMQ8w
DQYDVQQIDAZIZXNzZW4xFDASBgNVBAoMC3ByaXZhY3lpZGVhMQ4wDAYDVQQDDAVD
QTAwMYIJAPvI66yDzRIHMBMGA1UdJQQMMAoGCCsGAQUFBwMBMA0GCSqGSIb3DQEB
BQUAA4IBAQBuGitIBTxTp1WDyfTxwX1MqQlu2kqNSTyyT42bsarFQ8Do9ZR/gy8P
ZgnIzyU0SNmcNrajLpWUv6QSjnklfTO3rNPk2t6rFjK7hcmIDrs31xwMghHqS7LU
fhsYrc9a8NJjh+vWHD13PWTlRq4Sq+GZST4luluq6WV1FG5r4LO6N2QYoTEgev25
a15bbulq4cs2H5y0PldQDNMhv+YbSky/FhyfBfy+1Tc6wZEDgWOaQJqksuhJZ/sp
xFDQ1l/+dWzfHCYCYQznPisxYYoHunX+Yjk+0f8z+wfaf2SggalqGoG0vtUwbMRt
5BX5vc8kHxd2HOHJgFU/sH/HSj/wUTcG
-----END CERTIFICATE-----
