Certificate:
    Data:
        Version: 3 (0x2)
        Serial Number: 268435609 (0x10000099)
    Signature Algorithm: sha1WithRSAEncryption
        Issuer: C=DE, ST=Hessen, O=privacyidea, CN=CA001
        Validity
            Not Before: Sep  4 13:20:17 2015 GMT
            Not After : Sep  3 13:20:17 2016 GMT
        Subject: C=DE, ST=Hessen, O=privacyidea, CN=usercert
        Subject Public Key Info:
            Public Key Algorithm: rsaEncryption
                Public-Key: (2048 bit)
                Modulus:
                    00:dc:2f:d1:5f:29:97:d4:7c:c3:53:c8:30:bd:4b:
                    67:70:2c:24:6b:b8:5e:eb:21:7a:48:12:56:7c:81:
                    5c:48:75:b6:68:eb:f6:f2:98:4e:50:51:d1:7f:6c:
                    73:f3:0a:a7:ae:be:48:5e:e5:d6:e1:d9:2a:7c:32:
                    6e:4e:fd:08:f6:5a:54:49:23:73:c3:b9:07:18:d1:
                    ef:b3:ac:f8:8a:dc:94:96:a4:90:3a:8e:74:df:e6:
                    0d:37:1b:bd:5b:b7:25:1a:56:39:da:6f:91:aa:5e:
                    1c:74:f3:f9:7c:14:01:83:12:65:76:c7:bb:fe:36:
                    5b:95:e9:72:65:83:ed:3e:98:30:71:fa:87:dd:a3:
                    36:5a:30:03:2e:26:e0:61:d1:bf:02:3f:b6:06:1f:
                    4a:89:28:1c:5c:a2:ff:4e:be:94:e6:8c:e0:da:82:
                    f1:9d:29:32:48:30:73:b4:04:f6:42:1e:be:f7:e2:
                    32:32:27:3c:9d:89:2f:70:3e:85:9a:6f:5c:c5:09:
                    c0:8c:32:2f:72:22:c9:d2:95:1f:b6:ac:72:60:72:
                    b7:82:4d:6b:ce:5b:e3:00:d0:d2:2f:58:c6:e0:10:
                    e5:51:ca:4d:3b:2e:e6:7e:ab:84:d6:56:f1:93:35:
                    a0:93:64:26:81:75:2f:91:b5:16:06:38:0b:db:cc:
                    2d:07
                Exponent: 65537 (0x10001)
        X509v3 extensions:
            X509v3 Key Usage: 
                Digital Signature, Key Encipherment
            X509v3 Basic Constraints: 
                CA:FALSE
            Netscape Cert Type: 
                SSL Server
            Netscape Comment: 
                OpenSSL Generated Server Certificate
            X509v3 Subject Key Identifier: 
                FC:14:D1:F0:4B:8D:00:90:F2:F5:B8:71:9E:4E:97:C3:92:54:AD:0B
            X509v3 Authority Key Identifier: 
                keyid:F4:A7:C0:CC:91:46:AF:64:F3:91:F2:27:F8:C8:B2:6F:8A:87:32:73
                DirName:/C=DE/ST=Hessen/O=privacyidea/CN=CA001
                serial:FB:C8:EB:AC:83:CD:12:07

            X509v3 Extended Key Usage: 
                TLS Web Server Authentication
    Signature Algorithm: sha1WithRSAEncryption
         a5:17:53:bb:e5:04:ac:58:ee:04:26:3f:23:4c:81:1b:a6:00:
         f2:23:59:c2:ef:5b:4a:29:64:55:d3:4c:b4:1e:aa:cd:54:a3:
         6a:d3:2f:a6:22:d9:f2:4c:d8:e0:5d:81:06:26:01:c2:db:10:
         8b:b4:63:17:76:b9:b5:81:cd:8c:c7:d7:cd:9b:87:06:1e:57:
         17:93:25:c2:5b:2a:a3:c3:f5:89:bf:f3:a5:90:60:47:72:99:
         62:90:33:ef:69:9b:8c:35:95:2f:d2:85:6d:8c:5d:60:87:79:
         c3:a3:bf:af:97:08:8f:fb:36:47:3b:e5:cb:92:af:0c:65:aa:
         eb:bc:63:54:67:97:3e:e5:9e:f2:c6:41:ed:3e:3a:51:8c:2c:
         50:52:4a:af:3c:ed:c7:db:e3:d8:c9:ce:41:87:d5:73:4a:57:
         79:cc:fa:93:5e:b6:69:5c:7b:8d:6f:f5:39:f9:a0:1c:c7:ac:
         b2:8a:f0:f3:78:9b:af:c2:00:3b:c1:a1:c4:cf:45:0d:1d:e6:
         38:77:ba:26:e1:05:42:0e:03:d8:71:d7:51:1b:42:21:08:c7:
         bf:91:0d:e9:39:d6:dd:ed:1e:b5:bd:36:74:fe:5f:ce:ed:88:
         2a:dc:aa:8b:a2:05:ee:b8:3a:8d:22:09:e2:0d:bd:a2:c8:f5:
         30:cd:21:ac
-----BEGIN CERTIFICATE-----
MIIEGTCCAwGgAwIBAgIEEAAAmTANBgkqhkiG9w0BAQUFADBEMQswCQYDVQQGEwJE
RTEPMA0GA1UECAwGSGVzc2VuMRQwEgYDVQQKDAtwcml2YWN5aWRlYTEOMAwGA1UE
AwwFQ0EwMDEwHhcNMTUwOTA0MTMyMDE3WhcNMTYwOTAzMTMyMDE3WjBHMQswCQYD
VQQGEwJERTEPMA0GA1UECAwGSGVzc2VuMRQwEgYDVQQKDAtwcml2YWN5aWRlYTER
MA8GA1UEAwwIdXNlcmNlcnQwggEiMA0GCSqGSIb3DQEBAQUAA4IBDwAwggEKAoIB
AQDcL9FfKZfUfMNTyDC9S2dwLCRruF7rIXpIElZ8gVxIdbZo6/bymE5QUdF/bHPz
Cqeuvkhe5dbh2Sp8Mm5O/Qj2WlRJI3PDuQcY0e+zrPiK3JSWpJA6jnTf5g03G71b
tyUaVjnab5GqXhx08/l8FAGDEmV2x7v+NluV6XJlg+0+mDBx+ofdozZaMAMuJuBh
0b8CP7YGH0qJKBxcov9OvpTmjODagvGdKTJIMHO0BPZCHr734jIyJzydiS9wPoWa
b1zFCcCMMi9yIsnSlR+2rHJgcreCTWvOW+MA0NIvWMbgEOVRyk07LuZ+q4TWVvGT
NaCTZCaBdS+RtRYGOAvbzC0HAgMBAAGjggEOMIIBCjALBgNVHQ8EBAMCBaAwCQYD
VR0TBAIwADARBglghkgBhvhCAQEEBAMCBkAwMwYJYIZIAYb4QgENBCYWJE9wZW5T
U0wgR2VuZXJhdGVkIFNlcnZlciBDZXJ0aWZpY2F0ZTAdBgNVHQ4EFgQU/BTR8EuN
AJDy9bhxnk6Xw5JUrQswdAYDVR0jBG0wa4AU9KfAzJFGr2TzkfIn+Miyb4qHMnOh
SKRGMEQxCzAJBgNVBAYTAkRFMQ8wDQYDVQQIDAZIZXNzZW4xFDASBgNVBAoMC3By
aXZhY3lpZGVhMQ4wDAYDVQQDDAVDQTAwMYIJAPvI66yDzRIHMBMGA1UdJQQMMAoG
CCsGAQUFBwMBMA0GCSqGSIb3DQEBBQUAA4IBAQClF1O75QSsWO4EJj8jTIEbpgDy
I1nC71tKKWRV00y0HqrNVKNq0y+mItnyTNjgXYEGJgHC2xCLtGMXdrm1gc2Mx9fN
m4cGHlcXkyXCWyqjw/WJv/OlkGBHcplikDPvaZuMNZUv0oVtjF1gh3nDo7+vlwiP
+zZHO+XLkq8MZarrvGNUZ5c+5Z7yxkHtPjpRjCxQUkqvPO3H2+PYyc5Bh9VzSld5
zPqTXrZpXHuNb/U5+aAcx6yyivDzeJuvwgA7waHEz0UNHeY4d7om4QVCDgPYcddR
G0IhCMe/kQ3pOdbd7R61vTZ0/l/O7Ygq3KqLogXuuDqNIgniDb2iyPUwzSGs
-----END CERTIFICATE-----
