Certificate:
    Data:
        Version: 3 (0x2)
        Serial Number: 268435612 (0x1000009c)
    Signature Algorithm: sha1WithRSAEncryption
        Issuer: C=DE, ST=Hessen, O=privacyidea, CN=CA001
        Validity
            Not Before: Sep  4 13:21:55 2015 GMT
            Not After : Sep  3 13:21:55 2016 GMT
        Subject: CN=selfservice,CN=user,O=realm1/emailAddress=meine
        Subject Public Key Info:
            Public Key Algorithm: rsaEncryption
                Public-Key: (2048 bit)
                Modulus:
                    00:cf:3c:d4:33:0e:12:c4:e6:da:cd:b6:56:a1:1c:
                    26:bb:26:1c:8a:4a:73:a8:58:8a:b6:1e:b3:8b:99:
                    d2:1d:07:c2:92:89:79:c0:69:d8:c8:df:28:61:98:
                    1e:b3:fe:ae:2b:bd:78:a9:f7:6e:47:dc:a3:a0:16:
                    8c:85:02:c1:4e:92:fd:72:6e:f0:c8:03:29:9b:b8:
                    00:6e:c0:83:95:c8:34:20:36:9c:b3:e5:e4:e6:76:
                    73:a3:1a:ad:40:96:e0:53:54:00:ec:76:79:9a:c6:
                    0d:7e:b6:bd:29:ec:83:f3:cb:89:a4:cb:6c:00:ba:
                    0c:c5:78:0f:ff:69:b8:94:f4:04:70:43:3f:d8:9e:
                    d7:a7:fb:5d:ce:75:8e:da:e7:c4:07:b1:9d:de:6f:
                    88:4b:b6:4d:9a:cf:f9:bc:fa:9f:cd:32:6d:f6:3a:
                    0b:0d:23:42:78:ec:97:42:bf:0e:4d:60:56:e1:d3:
                    02:f2:19:cb:84:57:90:e5:70:a1:a2:83:35:86:e2:
                    da:86:9f:f9:8a:c4:79:b3:52:28:da:cb:bb:34:ca:
                    d3:da:91:4a:cf:8d:76:a2:b2:6b:9b:f9:96:fd:09:
                    2a:da:11:23:4d:f0:cb:d6:b2:b1:0e:12:6c:9a:19:
                    65:98:87:ca:e4:ee:24:ce:44:ac:90:8f:9d:1b:c5:
                    2a:9d
                Exponent: 65537 (0x10001)
        X509v3 extensions:
            X509v3 Key Usage: 
                Digital Signature, Key Encipherment
            X509v3 Basic Constraints: 
                CA:FALSE
            Netscape Cert Type: 
                SSL Server
            Netscape Comment: 
                OpenSSL Generated Server Certificate
            X509v3 Subject Key Identifier: 
                4D:07:90:AD:FF:1D:0D:E7:1A:DD:D6:2E:FA:BA:34:CB:AA:1F:24:C6
            X509v3 Authority Key Identifier: 
                keyid:F4:A7:C0:CC:91:46:AF:64:F3:91:F2:27:F8:C8:B2:6F:8A:87:32:73
                DirName:/C=DE/ST=Hessen/O=privacyidea/CN=CA001
                serial:FB:C8:EB:AC:83:CD:12:07

            X509v3 Extended Key Usage: 
                TLS Web Server Authentication
    Signature Algorithm: sha1WithRSAEncryption
         94:fc:72:2f:92:e7:49:c2:3c:1d:21:09:dd:e0:86:99:c9:d3:
         12:ae:c3:01:5c:cb:31:64:59:dc:e4:ae:a8:dd:42:db:40:d9:
         23:00:67:77:29:65:cb:da:ae:19:10:c7:83:36:4a:a0:e8:28:
         31:8d:22:11:50:aa:ed:95:f0:aa:69:78:9d:74:78:29:91:f5:
         c0:ad:93:25:14:83:79:4f:41:d7:3e:b5:a1:98:64:cc:bc:65:
         59:8c:9e:ef:f1:65:5f:e6:29:ed:b4:8e:9e:d3:3f:88:03:bb:
         7f:2d:a6:df:c5:ff:ab:9c:77:3b:c5:9b:32:ca:f4:23:3c:5c:
         5b:8a:d3:fc:d6:a3:27:7a:ad:1a:33:a3:02:9c:a7:70:01:2a:
         e2:24:3c:77:68:98:c9:d2:b7:48:70:3e:07:3c:17:6c:82:fb:
         b7:a8:2f:75:c6:6e:6e:b3:4f:52:b5:12:da:a0:0f:94:00:0d:
         40:8d:8f:12:ee:ed:24:63:33:20:f6:85:8a:33:69:fb:d3:de:
         19:0a:6f:40:f3:8f:9d:56:8a:d3:4e:39:2f:4c:7f:df:61:84:
         0f:2a:3e:68:50:f6:43:d1:f6:f7:c8:47:52:b6:58:58:e8:45:
         99:eb:6a:df:52:53:bb:fc:65:f4:1b:4b:d1:7f:64:91:2e:49:
         08:7f:94:1a
-----BEGIN CERTIFICATE-----
MIIEDzCCAvegAwIBAgIEEAAAnDANBgkqhkiG9w0BAQUFADBEMQswCQYDVQQGEwJE
RTEPMA0GA1UECAwGSGVzc2VuMRQwEgYDVQQKDAtwcml2YWN5aWRlYTEOMAwGA1UE
AwwFQ0EwMDEwHhcNMTUwOTA0MTMyMTU1WhcNMTYwOTAzMTMyMTU1WjA9MSUwIwYD
VQQDExxzZWxmc2VydmljZSxDTj11c2VyLE89cmVhbG0xMRQwEgYJKoZIhvcNAQkB
FgVtZWluZTCCASIwDQYJKoZIhvcNAQEBBQADggEPADCCAQoCggEBAM881DMOEsTm
2s22VqEcJrsmHIpKc6hYirYes4uZ0h0HwpKJecBp2MjfKGGYHrP+riu9eKn3bkfc
o6AWjIUCwU6S/XJu8MgDKZu4AG7Ag5XINCA2nLPl5OZ2c6MarUCW4FNUAOx2eZrG
DX62vSnsg/PLiaTLbAC6DMV4D/9puJT0BHBDP9ie16f7Xc51jtrnxAexnd5viEu2
TZrP+bz6n80ybfY6Cw0jQnjsl0K/Dk1gVuHTAvIZy4RXkOVwoaKDNYbi2oaf+YrE
ebNSKNrLuzTK09qRSs+NdqKya5v5lv0JKtoRI03wy9aysQ4SbJoZZZiHyuTuJM5E
rJCPnRvFKp0CAwEAAaOCAQ4wggEKMAsGA1UdDwQEAwIFoDAJBgNVHRMEAjAAMBEG
CWCGSAGG+EIBAQQEAwIGQDAzBglghkgBhvhCAQ0EJhYkT3BlblNTTCBHZW5lcmF0
ZWQgU2VydmVyIENlcnRpZmljYXRlMB0GA1UdDgQWBBRNB5Ct/x0N5xrd1i76ujTL
qh8kxjB0BgNVHSMEbTBrgBT0p8DMkUavZPOR8if4yLJviocyc6FIpEYwRDELMAkG
A1UEBhMCREUxDzANBgNVBAgMBkhlc3NlbjEUMBIGA1UECgwLcHJpdmFjeWlkZWEx
DjAMBgNVBAMMBUNBMDAxggkA+8jrrIPNEgcwEwYDVR0lBAwwCgYIKwYBBQUHAwEw
DQYJKoZIhvcNAQEFBQADggEBAJT8ci+S50nCPB0hCd3ghpnJ0xKuwwFcyzFkWdzk
rqjdQttA2SMAZ3cpZcvarhkQx4M2SqDoKDGNIhFQqu2V8KppeJ10eCmR9cCtkyUU
g3lPQdc+taGYZMy8ZVmMnu/xZV/mKe20jp7TP4gDu38tpt/F/6ucdzvFmzLK9CM8
XFuK0/zWoyd6rRozowKcp3ABKuIkPHdomMnSt0hwPgc8F2yC+7eoL3XGbm6zT1K1
EtqgD5QADUCNjxLu7SRjMyD2hYozafvT3hkKb0Dzj51WitNOOS9Mf99hhA8qPmhQ
9kPR9vfIR1K2WFjoRZnrat9SU7v8ZfQbS9F/ZJEuSQh/lBo=
-----END CERTIFICATE-----
