Certificate:
    Data:
        Version: 3 (0x2)
        Serial Number: 268435615 (0x1000009f)
    Signature Algorithm: sha1WithRSAEncryption
        Issuer: C=DE, ST=Hessen, O=privacyidea, CN=CA001
        Validity
            Not Before: Sep  4 13:26:51 2015 GMT
            Not After : Sep  3 13:26:51 2016 GMT
        Subject: C=DE, ST=Hessen, O=privacyidea, CN=usercert
        Subject Public Key Info:
            Public Key Algorithm: rsaEncryption
                Public-Key: (2048 bit)
                Modulus:
                    00:dc:2f:d1:5f:29:97:d4:7c:c3:53:c8:30:bd:4b:
                    67:70:2c:24:6b:b8:5e:eb:21:7a:48:12:56:7c:81:
                    5c:48:75:b6:68:eb:f6:f2:98:4e:50:51:d1:7f:6c:
                    73:f3:0a:a7:ae:be:48:5e:e5:d6:e1:d9:2a:7c:32:
                    6e:4e:fd:08:f6:5a:54:49:23:73:c3:b9:07:18:d1:
                    ef:b3:ac:f8:8a:dc:94:96:a4:90:3a:8e:74:df:e6:
                    0d:37:1b:bd:5b:b7:25:1a:56:39:da:6f:91:aa:5e:
                    1c:74:f3:f9:7c:14:01:83:12:65:76:c7:bb:fe:36:
                    5b:95:e9:72:65:83:ed:3e:98:30:71:fa:87:dd:a3:
                    36:5a:30:03:2e:26:e0:61:d1:bf:02:3f:b6:06:1f:
                    4a:89:28:1c:5c:a2:ff:4e:be:94:e6:8c:e0:da:82:
                    f1:9d:29:32:48:30:73:b4:04:f6:42:1e:be:f7:e2:
                    32:32:27:3c:9d:89:2f:70:3e:85:9a:6f:5c:c5:09:
                    c0:8c:32:2f:72:22:c9:d2:95:1f:b6:ac:72:60:72:
                    b7:82:4d:6b:ce:5b:e3:00:d0:d2:2f:58:c6:e0:10:
                    e5:51:ca:4d:3b:2e:e6:7e:ab:84:d6:56:f1:93:35:
                    a0:93:64:26:81:75:2f:91:b5:16:06:38:0b:db:cc:
                    2d:07
                Exponent: 65537 (0x10001)
        X509v3 extensions:
            X509v3 Key Usage: 
                Digital Signature, Key Encipherment
            X509v3 Basic Constraints: 
                CA:FALSE
            Netscape Cert Type: 
                SSL Server
            Netscape Comment: 
                OpenSSL Generated Server Certificate
            X509v3 Subject Key Identifier: 
                FC:14:D1:F0:4B:8D:00:90:F2:F5:B8:71:9E:4E:97:C3:92:54:AD:0B
            X509v3 Authority Key Identifier: 
                keyid:F4:A7:C0:CC:91:46:AF:64:F3:91:F2:27:F8:C8:B2:6F:8A:87:32:73
                DirName:/C=DE/ST=Hessen/O=privacyidea/CN=CA001
                serial:FB:C8:EB:AC:83:CD:12:07

            X509v3 Extended Key Usage: 
                TLS Web Server Authentication
    Signature Algorithm: sha1WithRSAEncryption
         52:1d:0c:32:74:07:15:2e:6a:af:ce:cd:9a:5f:8a:1a:66:ee:
         ae:49:7b:70:e0:2c:79:f4:95:05:d7:04:10:e0:b3:6b:64:42:
         b7:29:cd:57:b4:72:ad:cc:67:17:26:19:85:56:18:5d:e2:ca:
         e5:48:65:c7:a6:53:76:c6:a4:f6:bd:41:e9:38:ab:2b:8a:d9:
         25:4b:80:58:4c:2b:af:40:82:3a:72:6a:d8:da:5e:34:dd:58:
         fc:ad:17:d5:b9:2c:4c:d0:50:79:14:66:20:9e:7d:52:f0:da:
         ec:03:1f:9b:6c:5a:33:c7:17:3d:4d:8d:6a:14:77:91:92:f8:
         bc:a6:b7:83:53:16:a3:4a:53:2e:ad:59:1e:ac:1a:1f:01:68:
         bc:50:61:cc:16:9a:17:5a:16:21:88:c8:ed:18:8a:92:65:30:
         2c:c2:38:79:29:13:6b:6d:8f:ea:1e:3b:6a:fd:ca:83:f5:8c:
         0d:cb:07:fa:ae:6b:e2:a7:2e:a9:22:40:cc:12:16:5e:4e:d4:
         98:58:52:31:96:59:af:cf:d7:60:62:f4:2c:7a:4a:2f:d1:a2:
         19:39:d2:32:23:5d:03:19:85:a6:1e:eb:0e:28:01:f2:55:c4:
         74:4e:8b:00:e6:81:cd:10:eb:98:4e:40:8c:69:11:a3:ed:60:
         f1:33:de:17
-----BEGIN CERTIFICATE-----
MIIEGTCCAwGgAwIBAgIEEAAAnzANBgkqhkiG9w0BAQUFADBEMQswCQYDVQQGEwJE
RTEPMA0GA1UECAwGSGVzc2VuMRQwEgYDVQQKDAtwcml2YWN5aWRlYTEOMAwGA1UE
AwwFQ0EwMDEwHhcNMTUwOTA0MTMyNjUxWhcNMTYwOTAzMTMyNjUxWjBHMQswCQYD
VQQGEwJERTEPMA0GA1UECAwGSGVzc2VuMRQwEgYDVQQKDAtwcml2YWN5aWRlYTER
MA8GA1UEAwwIdXNlcmNlcnQwggEiMA0GCSqGSIb3DQEBAQUAA4IBDwAwggEKAoIB
AQDcL9FfKZfUfMNTyDC9S2dwLCRruF7rIXpIElZ8gVxIdbZo6/bymE5QUdF/bHPz
Cqeuvkhe5dbh2Sp8Mm5O/Qj2WlRJI3PDuQcY0e+zrPiK3JSWpJA6jnTf5g03G71b
tyUaVjnab5GqXhx08/l8FAGDEmV2x7v+NluV6XJlg+0+mDBx+ofdozZaMAMuJuBh
0b8CP7YGH0qJKBxcov9OvpTmjODagvGdKTJIMHO0BPZCHr734jIyJzydiS9wPoWa
b1zFCcCMMi9yIsnSlR+2rHJgcreCTWvOW+MA0NIvWMbgEOVRyk07LuZ+q4TWVvGT
NaCTZCaBdS+RtRYGOAvbzC0HAgMBAAGjggEOMIIBCjALBgNVHQ8EBAMCBaAwCQYD
VR0TBAIwADARBglghkgBhvhCAQEEBAMCBkAwMwYJYIZIAYb4QgENBCYWJE9wZW5T
U0wgR2VuZXJhdGVkIFNlcnZlciBDZXJ0aWZpY2F0ZTAdBgNVHQ4EFgQU/BTR8EuN
AJDy9bhxnk6Xw5JUrQswdAYDVR0jBG0wa4AU9KfAzJFGr2TzkfIn+Miyb4qHMnOh
SKRGMEQxCzAJBgNVBAYTAkRFMQ8wDQYDVQQIDAZIZXNzZW4xFDASBgNVBAoMC3By
aXZhY3lpZGVhMQ4wDAYDVQQDDAVDQTAwMYIJAPvI66yDzRIHMBMGA1UdJQQMMAoG
CCsGAQUFBwMBMA0GCSqGSIb3DQEBBQUAA4IBAQBSHQwydAcVLmqvzs2aX4oaZu6u
SXtw4Cx59JUF1wQQ4LNrZEK3Kc1XtHKtzGcXJhmFVhhd4srlSGXHplN2xqT2vUHp
OKsritklS4BYTCuvQII6cmrY2l403Vj8rRfVuSxM0FB5FGYgnn1S8NrsAx+bbFoz
xxc9TY1qFHeRkvi8preDUxajSlMurVkerBofAWi8UGHMFpoXWhYhiMjtGIqSZTAs
wjh5KRNrbY/qHjtq/cqD9YwNywf6rmvipy6pIkDMEhZeTtSYWFIxllmvz9dgYvQs
ekov0aIZOdIyI10DGYWmHusOKAHyVcR0TosA5oHNEOuYTkCMaRGj7WDxM94X
-----END CERTIFICATE-----
