Certificate:
    Data:
        Version: 3 (0x2)
        Serial Number: 268435608 (0x10000098)
    Signature Algorithm: sha1WithRSAEncryption
        Issuer: C=DE, ST=Hessen, O=privacyidea, CN=CA001
        Validity
            Not Before: Sep  5 07:16:25 2015 GMT
            Not After : Sep  4 07:16:25 2016 GMT
        Subject: C=DE, ST=Hessen, O=privacyidea, CN=requester.localdomain
        Subject Public Key Info:
            Public Key Algorithm: rsaEncryption
                Public-Key: (2048 bit)
                Modulus:
                    00:cd:be:14:4f:fa:ce:01:3f:42:22:1b:1d:9c:af:
                    dd:92:d2:7f:db:6c:b7:3e:39:43:43:6b:13:03:f1:
                    05:f4:07:74:bc:76:69:28:0b:af:19:8e:d7:fc:e3:
                    cd:c6:58:f2:ca:7f:08:6d:53:fc:07:02:44:24:c6:
                    b4:34:4c:8c:04:fe:33:0e:40:e2:20:ba:02:73:5a:
                    f7:f5:4f:63:6e:cc:c6:b6:df:54:1d:37:39:7d:51:
                    36:26:5f:bd:dc:3f:a8:8b:6b:a2:ae:b6:9d:d6:21:
                    e7:df:41:b8:7a:28:2a:68:48:ca:a8:2d:ed:e1:e9:
                    46:5e:5a:72:6d:b4:84:38:87:91:fd:94:11:0b:28:
                    84:c6:c2:2f:2a:fb:01:f9:36:7a:09:75:d1:33:88:
                    3c:73:41:5b:c8:bf:94:89:70:a1:f0:c0:b9:2e:50:
                    53:1e:b1:17:64:69:f4:2d:81:e0:a9:0d:0e:32:e9:
                    ba:55:8a:85:f1:1b:6f:49:79:b4:7f:88:c3:0d:3e:
                    54:88:9b:3d:1f:38:8c:04:f3:ee:6a:63:2b:f5:c6:
                    db:b4:83:aa:c4:78:41:3a:7d:4b:e1:c8:3e:71:ca:
                    1b:61:59:ea:c6:c4:ca:32:5e:c9:e9:bf:12:29:e6:
                    c6:c3:63:fe:a0:55:da:7a:f1:60:98:4d:26:ed:fa:
                    70:2d
                Exponent: 65537 (0x10001)
        X509v3 extensions:
            X509v3 Key Usage: 
                Digital Signature, Key Encipherment
            X509v3 Basic Constraints: 
                CA:FALSE
            Netscape Cert Type: 
                SSL Server
            Netscape Comment: 
                OpenSSL Generated Server Certificate
            X509v3 Subject Key Identifier: 
                53:3F:ED:5D:09:07:B3:65:7B:AB:45:C9:24:5B:09:77:80:0A:96:ED
            X509v3 Authority Key Identifier: 
                keyid:F4:A7:C0:CC:91:46:AF:64:F3:91:F2:27:F8:C8:B2:6F:8A:87:32:73
                DirName:/C=DE/ST=Hessen/O=privacyidea/CN=CA001
                serial:FB:C8:EB:AC:83:CD:12:07

            X509v3 Extended Key Usage: 
                TLS Web Server Authentication
    Signature Algorithm: sha1WithRSAEncryption
         25:b9:bb:92:43:ec:82:e5:f6:af:01:93:57:05:1f:5f:14:bf:
         8e:13:20:aa:27:5d:d7:29:c7:8e:fe:52:e5:4d:6c:8b:e0:61:
         06:ed:94:a7:ae:da:68:b5:8d:cf:b0:e3:74:c5:eb:dc:ac:ff:
         5f:ba:a5:a8:63:54:59:11:91:8d:37:1d:45:6c:24:73:d9:b3:
         ad:fc:12:13:63:96:f1:60:5a:29:12:c1:fd:26:51:9e:68:52:
         43:19:0e:9d:7e:a2:4d:46:9c:31:a8:09:31:f1:b8:09:d0:26:
         2d:06:eb:f2:cf:0b:d0:e8:2d:05:43:68:42:17:c4:21:93:4c:
         84:46:28:ff:88:a7:f2:1b:6a:53:3f:a4:00:a4:69:60:1c:39:
         2e:f8:29:07:f0:f5:49:23:9a:a2:21:f9:c4:17:09:ea:e2:a7:
         9b:a1:9c:8c:97:d4:eb:9b:9e:12:74:26:47:95:fb:36:27:d6:
         4e:a2:b9:a6:27:e5:26:4b:50:2a:22:90:69:25:60:22:5f:f4:
         7d:19:0f:f7:7d:3b:fa:53:45:62:1d:c8:78:6d:13:06:2b:33:
         b6:8d:4c:57:7b:93:ca:d6:b2:75:93:7a:dc:9f:3e:24:34:cb:
         e1:b1:68:e5:38:ca:95:92:d6:0c:ba:c0:e5:5f:70:03:39:e2:
         d0:67:5b:2d
-----BEGIN CERTIFICATE-----
MIIEJjCCAw6gAwIBAgIEEAAAmDANBgkqhkiG9w0BAQUFADBEMQswCQYDVQQGEwJE
RTEPMA0GA1UECAwGSGVzc2VuMRQwEgYDVQQKDAtwcml2YWN5aWRlYTEOMAwGA1UE
AwwFQ0EwMDEwHhcNMTUwOTA1MDcxNjI1WhcNMTYwOTA0MDcxNjI1WjBUMQswCQYD
VQQGEwJERTEPMA0GA1UECAwGSGVzc2VuMRQwEgYDVQQKDAtwcml2YWN5aWRlYTEe
MBwGA1UEAwwVcmVxdWVzdGVyLmxvY2FsZG9tYWluMIIBIjANBgkqhkiG9w0BAQEF
AAOCAQ8AMIIBCgKCAQEAzb4UT/rOAT9CIhsdnK/dktJ/22y3PjlDQ2sTA/EF9Ad0
vHZpKAuvGY7X/OPNxljyyn8IbVP8BwJEJMa0NEyMBP4zDkDiILoCc1r39U9jbszG
tt9UHTc5fVE2Jl+93D+oi2uirrad1iHn30G4eigqaEjKqC3t4elGXlpybbSEOIeR
/ZQRCyiExsIvKvsB+TZ6CXXRM4g8c0FbyL+UiXCh8MC5LlBTHrEXZGn0LYHgqQ0O
Mum6VYqF8RtvSXm0f4jDDT5UiJs9HziMBPPuamMr9cbbtIOqxHhBOn1L4cg+ccob
YVnqxsTKMl7J6b8SKebGw2P+oFXaevFgmE0m7fpwLQIDAQABo4IBDjCCAQowCwYD
VR0PBAQDAgWgMAkGA1UdEwQCMAAwEQYJYIZIAYb4QgEBBAQDAgZAMDMGCWCGSAGG
+EIBDQQmFiRPcGVuU1NMIEdlbmVyYXRlZCBTZXJ2ZXIgQ2VydGlmaWNhdGUwHQYD
VR0OBBYEFFM/7V0JB7Nle6tFySRbCXeACpbtMHQGA1UdIwRtMGuAFPSnwMyRRq9k
85HyJ/jIsm+KhzJzoUikRjBEMQswCQYDVQQGEwJERTEPMA0GA1UECAwGSGVzc2Vu
MRQwEgYDVQQKDAtwcml2YWN5aWRlYTEOMAwGA1UEAwwFQ0EwMDGCCQD7yOusg80S
BzATBgNVHSUEDDAKBggrBgEFBQcDATANBgkqhkiG9w0BAQUFAAOCAQEAJbm7kkPs
guX2rwGTVwUfXxS/jhMgqidd1ynHjv5S5U1si+BhBu2Up67aaLWNz7DjdMXr3Kz/
X7qlqGNUWRGRjTcdRWwkc9mzrfwSE2OW8WBaKRLB/SZRnmhSQxkOnX6iTUacMagJ
MfG4CdAmLQbr8s8L0OgtBUNoQhfEIZNMhEYo/4in8htqUz+kAKRpYBw5LvgpB/D1
SSOaoiH5xBcJ6uKnm6GcjJfU65ueEnQmR5X7NifWTqK5piflJktQKiKQaSVgIl/0
fRkP9307+lNFYh3IeG0TBiszto1MV3uTytaydZN63J8+JDTL4bFo5TjKlZLWDLrA
5V9wAzni0GdbLQ==
-----END CERTIFICATE-----
