Certificate:
    Data:
        Version: 3 (0x2)
        Serial Number: 268435611 (0x1000009b)
    Signature Algorithm: sha1WithRSAEncryption
        Issuer: C=DE, ST=Hessen, O=privacyidea, CN=CA001
        Validity
            Not Before: Sep  5 07:16:51 2015 GMT
            Not After : Sep  4 07:16:51 2016 GMT
        Subject: CN=Steve Test/emailAddress=steve@openssl.org
        Subject Public Key Info:
            Public Key Algorithm: rsaEncryption
                Public-Key: (2048 bit)
                Modulus:
                    00:d2:81:89:20:51:48:0f:73:f4:11:32:24:d5:1f:
                    1c:fd:5c:f5:b6:e6:c5:f0:52:81:dc:d2:af:66:4a:
                    7c:93:31:61:5c:af:d1:6d:06:70:03:60:7c:72:0c:
                    88:dd:49:cd:9e:02:6c:d2:5a:d7:53:0f:f3:da:be:
                    69:64:b5:0f:0c:00:e3:b3:50:47:a3:b3:9b:ba:13:
                    50:d6:58:5a:4b:ab:39:e0:11:ca:0a:27:67:03:78:
                    22:66:6d:92:1e:1b:5c:49:ae:e6:6b:d1:8e:3b:9d:
                    06:d3:c6:ac:4d:53:43:10:ab:e8:96:c1:87:82:97:
                    99:8f:20:d3:99:12:37:31:84:e1:8a:ff:29:03:5f:
                    22:90:3e:7f:9b:e0:20:c1:ad:dc:ae:4c:39:1a:31:
                    96:17:02:8c:b2:d9:b4:0d:20:12:9b:7d:86:54:fd:
                    33:fd:c1:2a:62:46:f8:60:96:cf:6e:01:6f:22:df:
                    13:47:e7:97:ec:05:72:23:a3:62:f8:fa:ef:ac:9c:
                    72:f0:37:cb:2f:37:cf:90:a8:27:51:86:c6:d7:78:
                    08:8f:7e:25:a2:15:70:a2:fb:1c:b6:15:5e:a0:97:
                    8b:81:4c:09:28:8a:27:3b:94:bc:71:db:5b:71:37:
                    9a:2b:16:e0:6f:b5:c9:f5:4b:4f:20:ba:65:cf:af:
                    ad:ad
                Exponent: 65537 (0x10001)
        X509v3 extensions:
            X509v3 Key Usage: 
                Digital Signature, Key Encipherment
            X509v3 Basic Constraints: 
                CA:FALSE
            Netscape Cert Type: 
                SSL Server
            Netscape Comment: 
                OpenSSL Generated Server Certificate
            X509v3 Subject Key Identifier: 
                E5:25:6D:3E:AF:0D:DD:3F:4C:F2:45:19:39:D5:14:DB:7E:9C:C0:AD
            X509v3 Authority Key Identifier: 
                keyid:F4:A7:C0:CC:91:46:AF:64:F3:91:F2:27:F8:C8:B2:6F:8A:87:32:73
                DirName:/C=DE/ST=Hessen/O=privacyidea/CN=CA001
                serial:FB:C8:EB:AC:83:CD:12:07

            X509v3 Extended Key Usage: 
                TLS Web Server Authentication
    Signature Algorithm: sha1WithRSAEncryption
         01:2a:7e:43:f0:f5:f8:ca:30:49:a9:83:ff:31:6a:3f:f0:14:
         b2:85:3b:40:f3:3c:48:e9:b6:ca:30:92:53:8d:2d:6c:24:e3:
         05:55:89:ba:63:fb:a6:ab:50:a4:8e:77:5c:6c:d4:d2:2a:59:
         a4:3c:fe:59:1a:ed:19:dc:bf:bf:43:77:a9:33:49:11:a4:1a:
         f8:8e:b2:a5:05:bc:54:36:6d:41:f5:2f:e3:cf:18:15:81:87:
         41:96:93:0d:b7:f4:f4:41:78:ad:31:d2:94:2c:3a:de:0f:68:
         38:f3:9d:a7:03:72:d4:f8:72:bc:cd:9a:d7:cf:ea:b9:d4:67:
         a4:d7:83:4a:ee:49:f2:cb:81:03:03:e2:c6:be:66:d3:61:5c:
         86:dc:f2:bb:f5:65:26:dc:4b:8a:68:80:0a:5a:91:b6:3d:49:
         b9:d7:91:f1:6a:9c:1f:3e:ad:af:87:b5:72:f5:ba:11:fb:28:
         d7:27:4d:42:29:67:6f:45:05:b4:de:2b:d5:6a:c4:bd:d3:13:
         2e:72:e9:14:6e:a0:6c:91:7a:71:5b:77:ed:e4:46:bd:50:6d:
         7f:34:5c:8e:03:9c:2b:0a:54:dc:65:8a:7d:d3:6a:20:63:36:
         ab:b8:41:77:19:ab:74:56:ff:dc:19:30:e3:df:be:9d:dd:96:
         82:e1:00:43
-----BEGIN CERTIFICATE-----
MIIECTCCAvGgAwIBAgIEEAAAmzANBgkqhkiG9w0BAQUFADBEMQswCQYDVQQGEwJE
RTEPMA0GA1UECAwGSGVzc2VuMRQwEgYDVQQKDAtwcml2YWN5aWRlYTEOMAwGA1UE
AwwFQ0EwMDEwHhcNMTUwOTA1MDcxNjUxWhcNMTYwOTA0MDcxNjUxWjA3MRMwEQYD
VQQDEwpTdGV2ZSBUZXN0MSAwHgYJKoZIhvcNAQkBFhFzdGV2ZUBvcGVuc3NsLm9y
ZzCCASIwDQYJKoZIhvcNAQEBBQADggEPADCCAQoCggEBANKBiSBRSA9z9BEyJNUf
HP1c9bbmxfBSgdzSr2ZKfJMxYVyv0W0GcANgfHIMiN1JzZ4CbNJa11MP89q+aWS1
DwwA47NQR6Ozm7oTUNZYWkurOeARygonZwN4ImZtkh4bXEmu5mvRjjudBtPGrE1T
QxCr6JbBh4KXmY8g05kSNzGE4Yr/KQNfIpA+f5vgIMGt3K5MORoxlhcCjLLZtA0g
Ept9hlT9M/3BKmJG+GCWz24BbyLfE0fnl+wFciOjYvj676yccvA3yy83z5CoJ1GG
xtd4CI9+JaIVcKL7HLYVXqCXi4FMCSiKJzuUvHHbW3E3misW4G+1yfVLTyC6Zc+v
ra0CAwEAAaOCAQ4wggEKMAsGA1UdDwQEAwIFoDAJBgNVHRMEAjAAMBEGCWCGSAGG
+EIBAQQEAwIGQDAzBglghkgBhvhCAQ0EJhYkT3BlblNTTCBHZW5lcmF0ZWQgU2Vy
dmVyIENlcnRpZmljYXRlMB0GA1UdDgQWBBTlJW0+rw3dP0zyRRk51RTbfpzArTB0
BgNVHSMEbTBrgBT0p8DMkUavZPOR8if4yLJviocyc6FIpEYwRDELMAkGA1UEBhMC
REUxDzANBgNVBAgMBkhlc3NlbjEUMBIGA1UECgwLcHJpdmFjeWlkZWExDjAMBgNV
BAMMBUNBMDAxggkA+8jrrIPNEgcwEwYDVR0lBAwwCgYIKwYBBQUHAwEwDQYJKoZI
hvcNAQEFBQADggEBAAEqfkPw9fjKMEmpg/8xaj/wFLKFO0DzPEjptsowklONLWwk
4wVVibpj+6arUKSOd1xs1NIqWaQ8/lka7Rncv79Dd6kzSRGkGviOsqUFvFQ2bUH1
L+PPGBWBh0GWkw239PRBeK0x0pQsOt4PaDjznacDctT4crzNmtfP6rnUZ6TXg0ru
SfLLgQMD4sa+ZtNhXIbc8rv1ZSbcS4pogApakbY9SbnXkfFqnB8+ra+HtXL1uhH7
KNcnTUIpZ29FBbTeK9VqxL3TEy5y6RRuoGyRenFbd+3kRr1QbX80XI4DnCsKVNxl
in3TaiBjNqu4QXcZq3RW/9wZMOPfvp3dloLhAEM=
-----END CERTIFICATE-----
