Certificate:
    Data:
        Version: 3 (0x2)
        Serial Number: 268435618 (0x100000a2)
    Signature Algorithm: sha1WithRSAEncryption
        Issuer: C=DE, ST=Hessen, O=privacyidea, CN=CA001
        Validity
            Not Before: Sep  4 13:28:41 2015 GMT
            Not After : Sep  3 13:28:41 2016 GMT
        Subject: CN=selfservice,CN=user,O=realm1/emailAddress=meine
        Subject Public Key Info:
            Public Key Algorithm: rsaEncryption
                Public-Key: (2048 bit)
                Modulus:
                    00:cf:3c:d4:33:0e:12:c4:e6:da:cd:b6:56:a1:1c:
                    26:bb:26:1c:8a:4a:73:a8:58:8a:b6:1e:b3:8b:99:
                    d2:1d:07:c2:92:89:79:c0:69:d8:c8:df:28:61:98:
                    1e:b3:fe:ae:2b:bd:78:a9:f7:6e:47:dc:a3:a0:16:
                    8c:85:02:c1:4e:92:fd:72:6e:f0:c8:03:29:9b:b8:
                    00:6e:c0:83:95:c8:34:20:36:9c:b3:e5:e4:e6:76:
                    73:a3:1a:ad:40:96:e0:53:54:00:ec:76:79:9a:c6:
                    0d:7e:b6:bd:29:ec:83:f3:cb:89:a4:cb:6c:00:ba:
                    0c:c5:78:0f:ff:69:b8:94:f4:04:70:43:3f:d8:9e:
                    d7:a7:fb:5d:ce:75:8e:da:e7:c4:07:b1:9d:de:6f:
                    88:4b:b6:4d:9a:cf:f9:bc:fa:9f:cd:32:6d:f6:3a:
                    0b:0d:23:42:78:ec:97:42:bf:0e:4d:60:56:e1:d3:
                    02:f2:19:cb:84:57:90:e5:70:a1:a2:83:35:86:e2:
                    da:86:9f:f9:8a:c4:79:b3:52:28:da:cb:bb:34:ca:
                    d3:da:91:4a:cf:8d:76:a2:b2:6b:9b:f9:96:fd:09:
                    2a:da:11:23:4d:f0:cb:d6:b2:b1:0e:12:6c:9a:19:
                    65:98:87:ca:e4:ee:24:ce:44:ac:90:8f:9d:1b:c5:
                    2a:9d
                Exponent: 65537 (0x10001)
        X509v3 extensions:
            X509v3 Key Usage: 
                Digital Signature, Key Encipherment
            X509v3 Basic Constraints: 
                CA:FALSE
            Netscape Cert Type: 
                SSL Server
            Netscape Comment: 
                OpenSSL Generated Server Certificate
            X509v3 Subject Key Identifier: 
                4D:07:90:AD:FF:1D:0D:E7:1A:DD:D6:2E:FA:BA:34:CB:AA:1F:24:C6
            X509v3 Authority Key Identifier: 
                keyid:F4:A7:C0:CC:91:46:AF:64:F3:91:F2:27:F8:C8:B2:6F:8A:87:32:73
                DirName:/C=DE/ST=Hessen/O=privacyidea/CN=CA001
                serial:FB:C8:EB:AC:83:CD:12:07

            X509v3 Extended Key Usage: 
                TLS Web Server Authentication
    Signature Algorithm: sha1WithRSAEncryption
         3a:d7:0b:5c:e5:70:1d:0a:29:7a:e8:9a:13:ad:ec:25:c7:63:
         96:6f:4c:f1:b7:17:56:05:47:b8:4e:e6:6b:80:a6:23:86:a3:
         77:21:b0:5e:b5:85:c0:a6:21:a0:cf:e8:b7:de:73:67:32:42:
         09:c3:37:ba:4a:48:16:db:c1:7c:ec:38:b0:42:13:ad:ab:80:
         d3:67:63:9e:18:52:24:9b:4c:bd:d8:d0:1d:52:79:b6:82:b0:
         d0:ea:34:64:81:83:0d:be:13:84:72:8b:e8:05:d1:b5:d6:ea:
         5d:27:7c:9b:88:8f:8b:26:bf:ca:55:a4:7c:bf:e9:d5:4b:f6:
         e4:a4:a9:b9:c3:c0:e7:7b:7c:8d:4e:b0:a2:cb:dc:44:73:24:
         58:b5:74:24:6e:bf:f9:74:29:05:ab:00:11:68:84:73:9b:4d:
         a1:06:ec:a4:70:37:9c:7e:32:fd:74:23:76:a5:00:c0:a3:01:
         11:97:cf:3e:87:f1:e5:6c:6c:d0:af:c8:f0:95:f1:7f:3d:62:
         66:da:7a:81:b2:e8:ca:46:88:9b:5c:1a:03:c0:b7:a1:1b:b7:
         cc:6b:67:b1:1f:74:c4:e4:03:fa:8c:c2:e1:7f:12:36:f7:f4:
         50:c0:5c:21:4c:62:3d:af:89:6e:44:aa:9e:86:93:8d:80:67:
         d7:38:2a:23
-----BEGIN CERTIFICATE-----
MIIEDzCCAvegAwIBAgIEEAAAojANBgkqhkiG9w0BAQUFADBEMQswCQYDVQQGEwJE
RTEPMA0GA1UECAwGSGVzc2VuMRQwEgYDVQQKDAtwcml2YWN5aWRlYTEOMAwGA1UE
AwwFQ0EwMDEwHhcNMTUwOTA0MTMyODQxWhcNMTYwOTAzMTMyODQxWjA9MSUwIwYD
VQQDExxzZWxmc2VydmljZSxDTj11c2VyLE89cmVhbG0xMRQwEgYJKoZIhvcNAQkB
FgVtZWluZTCCASIwDQYJKoZIhvcNAQEBBQADggEPADCCAQoCggEBAM881DMOEsTm
2s22VqEcJrsmHIpKc6hYirYes4uZ0h0HwpKJecBp2MjfKGGYHrP+riu9eKn3bkfc
o6AWjIUCwU6S/XJu8MgDKZu4AG7Ag5XINCA2nLPl5OZ2c6MarUCW4FNUAOx2eZrG
DX62vSnsg/PLiaTLbAC6DMV4D/9puJT0BHBDP9ie16f7Xc51jtrnxAexnd5viEu2
TZrP+bz6n80ybfY6Cw0jQnjsl0K/Dk1gVuHTAvIZy4RXkOVwoaKDNYbi2oaf+YrE
ebNSKNrLuzTK09qRSs+NdqKya5v5lv0JKtoRI03wy9aysQ4SbJoZZZiHyuTuJM5E
rJCPnRvFKp0CAwEAAaOCAQ4wggEKMAsGA1UdDwQEAwIFoDAJBgNVHRMEAjAAMBEG
CWCGSAGG+EIBAQQEAwIGQDAzBglghkgBhvhCAQ0EJhYkT3BlblNTTCBHZW5lcmF0
ZWQgU2VydmVyIENlcnRpZmljYXRlMB0GA1UdDgQWBBRNB5Ct/x0N5xrd1i76ujTL
qh8kxjB0BgNVHSMEbTBrgBT0p8DMkUavZPOR8if4yLJviocyc6FIpEYwRDELMAkG
A1UEBhMCREUxDzANBgNVBAgMBkhlc3NlbjEUMBIGA1UECgwLcHJpdmFjeWlkZWEx
DjAMBgNVBAMMBUNBMDAxggkA+8jrrIPNEgcwEwYDVR0lBAwwCgYIKwYBBQUHAwEw
DQYJKoZIhvcNAQEFBQADggEBADrXC1zlcB0KKXromhOt7CXHY5ZvTPG3F1YFR7hO
5muApiOGo3chsF61hcCmIaDP6Lfec2cyQgnDN7pKSBbbwXzsOLBCE62rgNNnY54Y
UiSbTL3Y0B1SebaCsNDqNGSBgw2+E4Ryi+gF0bXW6l0nfJuIj4smv8pVpHy/6dVL
9uSkqbnDwOd7fI1OsKLL3ERzJFi1dCRuv/l0KQWrABFohHObTaEG7KRwN5x+Mv10
I3alAMCjARGXzz6H8eVsbNCvyPCV8X89YmbaeoGy6MpGiJtcGgPAt6Ebt8xrZ7Ef
dMTkA/qMwuF/Ejb39FDAXCFMYj2viW5Eqp6Gk42AZ9c4KiM=
-----END CERTIFICATE-----
