Certificate:
    Data:
        Version: 3 (0x2)
        Serial Number: 268435626 (0x100000aa)
    Signature Algorithm: sha1WithRSAEncryption
        Issuer: C=DE, ST=Hessen, O=privacyidea, CN=CA001
        Validity
            Not Before: Aug 18 07:20:49 2015 GMT
            Not After : Aug 17 07:20:49 2016 GMT
        Subject: CN=selfservice,CN=user,O=realm1/emailAddress=meine
        Subject Public Key Info:
            Public Key Algorithm: rsaEncryption
                Public-Key: (2048 bit)
                Modulus:
                    00:cf:3c:d4:33:0e:12:c4:e6:da:cd:b6:56:a1:1c:
                    26:bb:26:1c:8a:4a:73:a8:58:8a:b6:1e:b3:8b:99:
                    d2:1d:07:c2:92:89:79:c0:69:d8:c8:df:28:61:98:
                    1e:b3:fe:ae:2b:bd:78:a9:f7:6e:47:dc:a3:a0:16:
                    8c:85:02:c1:4e:92:fd:72:6e:f0:c8:03:29:9b:b8:
                    00:6e:c0:83:95:c8:34:20:36:9c:b3:e5:e4:e6:76:
                    73:a3:1a:ad:40:96:e0:53:54:00:ec:76:79:9a:c6:
                    0d:7e:b6:bd:29:ec:83:f3:cb:89:a4:cb:6c:00:ba:
                    0c:c5:78:0f:ff:69:b8:94:f4:04:70:43:3f:d8:9e:
                    d7:a7:fb:5d:ce:75:8e:da:e7:c4:07:b1:9d:de:6f:
                    88:4b:b6:4d:9a:cf:f9:bc:fa:9f:cd:32:6d:f6:3a:
                    0b:0d:23:42:78:ec:97:42:bf:0e:4d:60:56:e1:d3:
                    02:f2:19:cb:84:57:90:e5:70:a1:a2:83:35:86:e2:
                    da:86:9f:f9:8a:c4:79:b3:52:28:da:cb:bb:34:ca:
                    d3:da:91:4a:cf:8d:76:a2:b2:6b:9b:f9:96:fd:09:
                    2a:da:11:23:4d:f0:cb:d6:b2:b1:0e:12:6c:9a:19:
                    65:98:87:ca:e4:ee:24:ce:44:ac:90:8f:9d:1b:c5:
                    2a:9d
                Exponent: 65537 (0x10001)
        X509v3 extensions:
            X509v3 Key Usage: 
                Digital Signature, Key Encipherment
            X509v3 Basic Constraints: 
                CA:FALSE
            Netscape Cert Type: 
                SSL Server
            Netscape Comment: 
                OpenSSL Generated Server Certificate
            X509v3 Subject Key Identifier: 
                4D:07:90:AD:FF:1D:0D:E7:1A:DD:D6:2E:FA:BA:34:CB:AA:1F:24:C6
            X509v3 Authority Key Identifier: 
                keyid:F4:A7:C0:CC:91:46:AF:64:F3:91:F2:27:F8:C8:B2:6F:8A:87:32:73
                DirName:/C=DE/ST=Hessen/O=privacyidea/CN=CA001
                serial:FB:C8:EB:AC:83:CD:12:07

            X509v3 Extended Key Usage: 
                TLS Web Server Authentication
    Signature Algorithm: sha1WithRSAEncryption
         36:a3:89:c2:b7:f8:ca:b6:c4:b2:6f:03:90:61:09:46:76:a8:
         ab:07:89:d4:78:c5:00:de:35:4d:e4:77:df:2f:9e:1f:01:9e:
         97:65:6a:ec:82:46:52:d4:7f:6f:c0:b9:7b:30:04:69:dd:c5:
         2d:d5:f6:4a:00:d2:e1:c7:8a:d5:c9:48:c6:bd:04:4e:fc:4e:
         ea:a4:0e:7b:ed:6d:b9:19:05:e9:fc:5f:02:84:76:25:e0:fd:
         f9:d8:30:31:3a:32:eb:28:65:e8:36:32:ed:ac:7c:a4:66:ef:
         42:4c:e5:5e:d7:47:62:ba:ce:76:c2:6e:14:28:99:0d:4f:92:
         3c:5c:94:47:20:bc:11:cc:73:e4:c2:70:85:29:3f:66:1b:de:
         93:bb:77:b0:73:62:8a:d6:7e:b3:b6:3d:e8:87:06:2d:f8:5b:
         bb:ad:07:92:26:fa:5c:de:59:db:b8:d2:77:cc:b0:86:a3:46:
         fd:3c:3d:50:03:57:56:f0:14:3f:27:e8:7b:50:2f:16:fc:b1:
         8b:4c:79:63:07:ca:e5:f5:44:cc:0e:69:6b:f0:64:7c:2c:10:
         03:48:f5:ee:3e:63:3a:61:8b:b7:c1:d9:6b:c6:98:03:b0:0a:
         f5:5a:02:70:21:be:b5:85:58:cc:74:96:d3:2d:1d:4f:c6:54:
         e2:1f:d7:75
-----BEGIN CERTIFICATE-----
MIIEDzCCAvegAwIBAgIEEAAAqjANBgkqhkiG9w0BAQUFADBEMQswCQYDVQQGEwJE
RTEPMA0GA1UECAwGSGVzc2VuMRQwEgYDVQQKDAtwcml2YWN5aWRlYTEOMAwGA1UE
AwwFQ0EwMDEwHhcNMTUwODE4MDcyMDQ5WhcNMTYwODE3MDcyMDQ5WjA9MSUwIwYD
VQQDExxzZWxmc2VydmljZSxDTj11c2VyLE89cmVhbG0xMRQwEgYJKoZIhvcNAQkB
FgVtZWluZTCCASIwDQYJKoZIhvcNAQEBBQADggEPADCCAQoCggEBAM881DMOEsTm
2s22VqEcJrsmHIpKc6hYirYes4uZ0h0HwpKJecBp2MjfKGGYHrP+riu9eKn3bkfc
o6AWjIUCwU6S/XJu8MgDKZu4AG7Ag5XINCA2nLPl5OZ2c6MarUCW4FNUAOx2eZrG
DX62vSnsg/PLiaTLbAC6DMV4D/9puJT0BHBDP9ie16f7Xc51jtrnxAexnd5viEu2
TZrP+bz6n80ybfY6Cw0jQnjsl0K/Dk1gVuHTAvIZy4RXkOVwoaKDNYbi2oaf+YrE
ebNSKNrLuzTK09qRSs+NdqKya5v5lv0JKtoRI03wy9aysQ4SbJoZZZiHyuTuJM5E
rJCPnRvFKp0CAwEAAaOCAQ4wggEKMAsGA1UdDwQEAwIFoDAJBgNVHRMEAjAAMBEG
CWCGSAGG+EIBAQQEAwIGQDAzBglghkgBhvhCAQ0EJhYkT3BlblNTTCBHZW5lcmF0
ZWQgU2VydmVyIENlcnRpZmljYXRlMB0GA1UdDgQWBBRNB5Ct/x0N5xrd1i76ujTL
qh8kxjB0BgNVHSMEbTBrgBT0p8DMkUavZPOR8if4yLJviocyc6FIpEYwRDELMAkG
A1UEBhMCREUxDzANBgNVBAgMBkhlc3NlbjEUMBIGA1UECgwLcHJpdmFjeWlkZWEx
DjAMBgNVBAMMBUNBMDAxggkA+8jrrIPNEgcwEwYDVR0lBAwwCgYIKwYBBQUHAwEw
DQYJKoZIhvcNAQEFBQADggEBADajicK3+Mq2xLJvA5BhCUZ2qKsHidR4xQDeNU3k
d98vnh8BnpdlauyCRlLUf2/AuXswBGndxS3V9koA0uHHitXJSMa9BE78TuqkDnvt
bbkZBen8XwKEdiXg/fnYMDE6MusoZeg2Mu2sfKRm70JM5V7XR2K6znbCbhQomQ1P
kjxclEcgvBHMc+TCcIUpP2Yb3pO7d7BzYorWfrO2PeiHBi34W7utB5Im+lzeWdu4
0nfMsIajRv08PVADV1bwFD8n6HtQLxb8sYtMeWMHyuX1RMwOaWvwZHwsEANI9e4+
Yzphi7fB2WvGmAOwCvVaAnAhvrWFWMx0ltMtHU/GVOIf13U=
-----END CERTIFICATE-----
