Certificate:
    Data:
        Version: 3 (0x2)
        Serial Number: 268435640 (0x100000b8)
    Signature Algorithm: sha1WithRSAEncryption
        Issuer: C=DE, ST=Hessen, O=privacyidea, CN=CA001
        Validity
            Not Before: Jun 18 14:30:51 2015 GMT
            Not After : Jun 17 14:30:51 2016 GMT
        Subject: CN=admin,CN=admin,O=/emailAddress=meine
        Subject Public Key Info:
            Public Key Algorithm: rsaEncryption
                Public-Key: (2048 bit)
                Modulus:
                    00:d0:b3:19:61:66:a4:be:cf:30:53:a6:d8:ac:fb:
                    85:d4:6c:9a:c6:9d:8f:25:07:2d:a3:22:87:89:3c:
                    0a:79:9e:60:2d:31:2f:eb:ff:38:ee:6a:7e:26:87:
                    84:e0:51:c7:71:dd:19:19:18:39:78:a0:bb:ff:7c:
                    6d:8c:f9:29:7b:50:fd:14:5c:1a:db:1b:f1:74:96:
                    1c:17:ef:64:f2:ae:7c:86:d0:dd:17:bd:1a:c7:ec:
                    31:ac:c0:1d:22:de:9a:b4:67:70:35:4d:db:06:c9:
                    29:e7:2c:c4:d8:2e:bc:86:d5:61:08:42:97:9d:68:
                    cc:ed:a3:7b:ad:5c:7b:42:05:b5:5d:a5:31:0c:0b:
                    18:4f:1c:69:6d:e4:26:86:eb:97:a2:d8:66:30:9e:
                    59:83:50:dd:b6:9a:93:f3:e8:48:1a:eb:3f:05:b6:
                    fc:d4:8a:8b:d3:69:4c:01:bf:86:d5:20:20:f0:d6:
                    dc:9d:7d:c5:fe:a7:06:49:f9:6f:0a:71:81:ff:8e:
                    f0:24:5e:56:43:22:02:80:13:89:85:0d:15:6e:62:
                    7b:dd:fb:45:8a:d0:9d:4b:45:10:51:05:31:50:1b:
                    47:2f:96:a4:7f:bd:ad:e7:d5:7c:45:9c:44:b3:6c:
                    84:e2:b6:b6:96:cd:94:75:c0:5a:f7:58:f9:aa:83:
                    c0:5f
                Exponent: 65537 (0x10001)
        X509v3 extensions:
            X509v3 Key Usage: 
                Digital Signature, Key Encipherment
            X509v3 Basic Constraints: 
                CA:FALSE
            Netscape Cert Type: 
                SSL Server
            Netscape Comment: 
                OpenSSL Generated Server Certificate
            X509v3 Subject Key Identifier: 
                4E:7B:CF:42:17:91:8E:B1:2B:E2:6A:53:05:6A:0B:4C:A3:7E:28:27
            X509v3 Authority Key Identifier: 
                keyid:F4:A7:C0:CC:91:46:AF:64:F3:91:F2:27:F8:C8:B2:6F:8A:87:32:73
                DirName:/C=DE/ST=Hessen/O=privacyidea/CN=CA001
                serial:FB:C8:EB:AC:83:CD:12:07

            X509v3 Extended Key Usage: 
                TLS Web Server Authentication
    Signature Algorithm: sha1WithRSAEncryption
         46:84:5f:0f:04:be:d7:e8:fe:54:c5:ae:e4:93:af:25:11:a9:
         16:6e:c4:88:4d:2a:c8:5f:3e:9e:a6:b7:9d:2b:77:82:ed:d2:
         cc:f2:4d:54:e9:e8:e7:2a:c8:8c:30:16:0e:f9:88:d9:c9:3f:
         62:ae:64:5f:f6:c0:23:81:e9:b7:e8:cd:bb:fa:0a:75:09:1a:
         82:da:85:95:22:5f:07:d3:24:c0:d6:b6:e9:d0:20:7d:69:7e:
         a7:20:c9:c0:cf:33:e8:30:a7:fb:bd:90:60:22:f5:76:3f:f6:
         7a:63:33:6f:44:f5:b2:1a:36:07:97:23:7b:87:5d:04:fb:82:
         2d:01:11:ca:9d:b6:44:60:71:eb:a7:80:49:eb:c0:89:e5:97:
         cd:09:7d:d7:47:e7:17:7e:61:13:23:ff:f8:ab:31:3e:9a:ef:
         17:25:82:c6:69:89:a0:d5:49:2c:51:1f:e3:39:9a:e4:7e:58:
         06:c8:97:d0:6d:0b:76:bd:29:7c:d2:5d:6a:57:75:95:c5:a3:
         03:27:b7:fb:74:80:a7:b3:ca:b9:a3:c4:93:e3:65:51:f6:44:
         d6:6c:72:aa:ae:29:d0:50:4e:70:c7:78:ed:87:fb:27:5a:63:
         8c:9e:b8:11:db:6f:95:03:cc:a6:4a:40:a1:2c:16:8d:0f:67:
         a5:8b:b0:73
-----BEGIN CERTIFICATE-----
MIIEBDCCAuygAwIBAgIEEAAAuDANBgkqhkiG9w0BAQUFADBEMQswCQYDVQQGEwJE
RTEPMA0GA1UECAwGSGVzc2VuMRQwEgYDVQQKDAtwcml2YWN5aWRlYTEOMAwGA1UE
AwwFQ0EwMDEwHhcNMTUwNjE4MTQzMDUxWhcNMTYwNjE3MTQzMDUxWjAyMRowGAYD
VQQDExFhZG1pbixDTj1hZG1pbixPPTEUMBIGCSqGSIb3DQEJARYFbWVpbmUwggEi
MA0GCSqGSIb3DQEBAQUAA4IBDwAwggEKAoIBAQDQsxlhZqS+zzBTptis+4XUbJrG
nY8lBy2jIoeJPAp5nmAtMS/r/zjuan4mh4TgUcdx3RkZGDl4oLv/fG2M+Sl7UP0U
XBrbG/F0lhwX72TyrnyG0N0XvRrH7DGswB0i3pq0Z3A1TdsGySnnLMTYLryG1WEI
QpedaMzto3utXHtCBbVdpTEMCxhPHGlt5CaG65ei2GYwnlmDUN22mpPz6Ega6z8F
tvzUiovTaUwBv4bVICDw1tydfcX+pwZJ+W8KcYH/jvAkXlZDIgKAE4mFDRVuYnvd
+0WK0J1LRRBRBTFQG0cvlqR/va3n1XxFnESzbITitraWzZR1wFr3WPmqg8BfAgMB
AAGjggEOMIIBCjALBgNVHQ8EBAMCBaAwCQYDVR0TBAIwADARBglghkgBhvhCAQEE
BAMCBkAwMwYJYIZIAYb4QgENBCYWJE9wZW5TU0wgR2VuZXJhdGVkIFNlcnZlciBD
ZXJ0aWZpY2F0ZTAdBgNVHQ4EFgQUTnvPQheRjrEr4mpTBWoLTKN+KCcwdAYDVR0j
BG0wa4AU9KfAzJFGr2TzkfIn+Miyb4qHMnOhSKRGMEQxCzAJBgNVBAYTAkRFMQ8w
DQYDVQQIDAZIZXNzZW4xFDASBgNVBAoMC3ByaXZhY3lpZGVhMQ4wDAYDVQQDDAVD
QTAwMYIJAPvI66yDzRIHMBMGA1UdJQQMMAoGCCsGAQUFBwMBMA0GCSqGSIb3DQEB
BQUAA4IBAQBGhF8PBL7X6P5Uxa7kk68lEakWbsSITSrIXz6epredK3eC7dLM8k1U
6ejnKsiMMBYO+YjZyT9irmRf9sAjgem36M27+gp1CRqC2oWVIl8H0yTA1rbp0CB9
aX6nIMnAzzPoMKf7vZBgIvV2P/Z6YzNvRPWyGjYHlyN7h10E+4ItARHKnbZEYHHr
p4BJ68CJ5ZfNCX3XR+cXfmETI//4qzE+mu8XJYLGaYmg1UksUR/jOZrkflgGyJfQ
bQt2vSl80l1qV3WVxaMDJ7f7dICns8q5o8ST42VR9kTWbHKqrinQUE5wx3jth/sn
WmOMnrgR22+VA8ymSkChLBaND2eli7Bz
-----END CERTIFICATE-----
