Certificate:
    Data:
        Version: 3 (0x2)
        Serial Number: 268435607 (0x10000097)
    Signature Algorithm: sha1WithRSAEncryption
        Issuer: C=DE, ST=Hessen, O=privacyidea, CN=CA001
        Validity
            Not Before: Sep  5 07:15:08 2015 GMT
            Not After : Sep  4 07:15:08 2016 GMT
        Subject: C=DE, ST=Hessen, O=privacyidea, CN=requester.localdomain
        Subject Public Key Info:
            Public Key Algorithm: rsaEncryption
                Public-Key: (2048 bit)
                Modulus:
                    00:cd:be:14:4f:fa:ce:01:3f:42:22:1b:1d:9c:af:
                    dd:92:d2:7f:db:6c:b7:3e:39:43:43:6b:13:03:f1:
                    05:f4:07:74:bc:76:69:28:0b:af:19:8e:d7:fc:e3:
                    cd:c6:58:f2:ca:7f:08:6d:53:fc:07:02:44:24:c6:
                    b4:34:4c:8c:04:fe:33:0e:40:e2:20:ba:02:73:5a:
                    f7:f5:4f:63:6e:cc:c6:b6:df:54:1d:37:39:7d:51:
                    36:26:5f:bd:dc:3f:a8:8b:6b:a2:ae:b6:9d:d6:21:
                    e7:df:41:b8:7a:28:2a:68:48:ca:a8:2d:ed:e1:e9:
                    46:5e:5a:72:6d:b4:84:38:87:91:fd:94:11:0b:28:
                    84:c6:c2:2f:2a:fb:01:f9:36:7a:09:75:d1:33:88:
                    3c:73:41:5b:c8:bf:94:89:70:a1:f0:c0:b9:2e:50:
                    53:1e:b1:17:64:69:f4:2d:81:e0:a9:0d:0e:32:e9:
                    ba:55:8a:85:f1:1b:6f:49:79:b4:7f:88:c3:0d:3e:
                    54:88:9b:3d:1f:38:8c:04:f3:ee:6a:63:2b:f5:c6:
                    db:b4:83:aa:c4:78:41:3a:7d:4b:e1:c8:3e:71:ca:
                    1b:61:59:ea:c6:c4:ca:32:5e:c9:e9:bf:12:29:e6:
                    c6:c3:63:fe:a0:55:da:7a:f1:60:98:4d:26:ed:fa:
                    70:2d
                Exponent: 65537 (0x10001)
        X509v3 extensions:
            X509v3 Key Usage: 
                Digital Signature, Key Encipherment
            X509v3 Basic Constraints: 
                CA:FALSE
            Netscape Cert Type: 
                SSL Server
            Netscape Comment: 
                OpenSSL Generated Server Certificate
            X509v3 Subject Key Identifier: 
                53:3F:ED:5D:09:07:B3:65:7B:AB:45:C9:24:5B:09:77:80:0A:96:ED
            X509v3 Authority Key Identifier: 
                keyid:F4:A7:C0:CC:91:46:AF:64:F3:91:F2:27:F8:C8:B2:6F:8A:87:32:73
                DirName:/C=DE/ST=Hessen/O=privacyidea/CN=CA001
                serial:FB:C8:EB:AC:83:CD:12:07

            X509v3 Extended Key Usage: 
                TLS Web Server Authentication
    Signature Algorithm: sha1WithRSAEncryption
         8f:bd:62:fb:46:49:dc:0e:e6:24:be:4c:14:ba:d0:e3:10:1a:
         8d:94:ac:1b:0a:ec:bd:47:f8:72:af:8f:95:54:53:aa:1e:f0:
         1d:ac:18:67:fa:b2:c3:18:dc:e3:ce:2b:f2:ef:3f:9b:26:e3:
         3e:e3:e5:c0:99:c0:b6:7d:f3:a3:dc:25:6f:96:06:54:ab:a6:
         8e:07:d2:ae:76:ab:6c:a3:12:8b:2e:98:6c:b3:32:ab:f1:9e:
         cf:2a:b2:d1:8c:0e:48:b7:41:ab:2e:fc:44:78:55:c3:b2:2f:
         a6:c2:d8:ff:bd:ca:8d:9b:1d:b3:97:5a:3b:80:a5:33:e1:f2:
         23:7a:3b:4e:a8:65:2a:47:df:ca:72:af:ae:79:47:83:53:24:
         ab:08:5e:77:bf:f7:db:8b:f6:55:9b:83:a7:2e:e9:3e:24:79:
         f6:b2:4a:b4:a2:68:38:39:96:9f:a6:70:8b:cd:c0:37:8e:7c:
         c8:f1:31:c6:82:cb:2f:b1:a9:63:c4:69:8b:aa:c2:4e:c0:d8:
         f2:9a:bd:f7:db:83:54:b9:59:22:2d:ef:9d:a5:89:83:2d:f5:
         de:b8:6f:7e:f8:95:e4:05:52:38:9c:53:a5:87:0b:27:1b:ee:
         e3:40:20:16:fb:02:83:30:e7:a3:c8:83:a8:9f:b9:05:0f:93:
         7c:95:ed:43
-----BEGIN CERTIFICATE-----
MIIEJjCCAw6gAwIBAgIEEAAAlzANBgkqhkiG9w0BAQUFADBEMQswCQYDVQQGEwJE
RTEPMA0GA1UECAwGSGVzc2VuMRQwEgYDVQQKDAtwcml2YWN5aWRlYTEOMAwGA1UE
AwwFQ0EwMDEwHhcNMTUwOTA1MDcxNTA4WhcNMTYwOTA0MDcxNTA4WjBUMQswCQYD
VQQGEwJERTEPMA0GA1UECAwGSGVzc2VuMRQwEgYDVQQKDAtwcml2YWN5aWRlYTEe
MBwGA1UEAwwVcmVxdWVzdGVyLmxvY2FsZG9tYWluMIIBIjANBgkqhkiG9w0BAQEF
AAOCAQ8AMIIBCgKCAQEAzb4UT/rOAT9CIhsdnK/dktJ/22y3PjlDQ2sTA/EF9Ad0
vHZpKAuvGY7X/OPNxljyyn8IbVP8BwJEJMa0NEyMBP4zDkDiILoCc1r39U9jbszG
tt9UHTc5fVE2Jl+93D+oi2uirrad1iHn30G4eigqaEjKqC3t4elGXlpybbSEOIeR
/ZQRCyiExsIvKvsB+TZ6CXXRM4g8c0FbyL+UiXCh8MC5LlBTHrEXZGn0LYHgqQ0O
Mum6VYqF8RtvSXm0f4jDDT5UiJs9HziMBPPuamMr9cbbtIOqxHhBOn1L4cg+ccob
YVnqxsTKMl7J6b8SKebGw2P+oFXaevFgmE0m7fpwLQIDAQABo4IBDjCCAQowCwYD
VR0PBAQDAgWgMAkGA1UdEwQCMAAwEQYJYIZIAYb4QgEBBAQDAgZAMDMGCWCGSAGG
+EIBDQQmFiRPcGVuU1NMIEdlbmVyYXRlZCBTZXJ2ZXIgQ2VydGlmaWNhdGUwHQYD
VR0OBBYEFFM/7V0JB7Nle6tFySRbCXeACpbtMHQGA1UdIwRtMGuAFPSnwMyRRq9k
85HyJ/jIsm+KhzJzoUikRjBEMQswCQYDVQQGEwJERTEPMA0GA1UECAwGSGVzc2Vu
MRQwEgYDVQQKDAtwcml2YWN5aWRlYTEOMAwGA1UEAwwFQ0EwMDGCCQD7yOusg80S
BzATBgNVHSUEDDAKBggrBgEFBQcDATANBgkqhkiG9w0BAQUFAAOCAQEAj71i+0ZJ
3A7mJL5MFLrQ4xAajZSsGwrsvUf4cq+PlVRTqh7wHawYZ/qywxjc484r8u8/mybj
PuPlwJnAtn3zo9wlb5YGVKumjgfSrnarbKMSiy6YbLMyq/Gezyqy0YwOSLdBqy78
RHhVw7IvpsLY/73KjZsds5daO4ClM+HyI3o7TqhlKkffynKvrnlHg1Mkqwhed7/3
24v2VZuDpy7pPiR59rJKtKJoODmWn6Zwi83AN458yPExxoLLL7GpY8Rpi6rCTsDY
8pq999uDVLlZIi3vnaWJgy313rhvfviV5AVSOJxTpYcLJxvu40AgFvsCgzDno8iD
qJ+5BQ+TfJXtQw==
-----END CERTIFICATE-----
