Certificate:
    Data:
        Version: 3 (0x2)
        Serial Number: 268435619 (0x100000a3)
    Signature Algorithm: sha1WithRSAEncryption
        Issuer: C=DE, ST=Hessen, O=privacyidea, CN=CA001
        Validity
            Not Before: Aug 27 13:10:50 2015 GMT
            Not After : Aug 26 13:10:50 2016 GMT
        Subject: CN=selfservice,CN=user,O=realm1/emailAddress=meine
        Subject Public Key Info:
            Public Key Algorithm: rsaEncryption
                Public-Key: (2048 bit)
                Modulus:
                    00:cf:3c:d4:33:0e:12:c4:e6:da:cd:b6:56:a1:1c:
                    26:bb:26:1c:8a:4a:73:a8:58:8a:b6:1e:b3:8b:99:
                    d2:1d:07:c2:92:89:79:c0:69:d8:c8:df:28:61:98:
                    1e:b3:fe:ae:2b:bd:78:a9:f7:6e:47:dc:a3:a0:16:
                    8c:85:02:c1:4e:92:fd:72:6e:f0:c8:03:29:9b:b8:
                    00:6e:c0:83:95:c8:34:20:36:9c:b3:e5:e4:e6:76:
                    73:a3:1a:ad:40:96:e0:53:54:00:ec:76:79:9a:c6:
                    0d:7e:b6:bd:29:ec:83:f3:cb:89:a4:cb:6c:00:ba:
                    0c:c5:78:0f:ff:69:b8:94:f4:04:70:43:3f:d8:9e:
                    d7:a7:fb:5d:ce:75:8e:da:e7:c4:07:b1:9d:de:6f:
                    88:4b:b6:4d:9a:cf:f9:bc:fa:9f:cd:32:6d:f6:3a:
                    0b:0d:23:42:78:ec:97:42:bf:0e:4d:60:56:e1:d3:
                    02:f2:19:cb:84:57:90:e5:70:a1:a2:83:35:86:e2:
                    da:86:9f:f9:8a:c4:79:b3:52:28:da:cb:bb:34:ca:
                    d3:da:91:4a:cf:8d:76:a2:b2:6b:9b:f9:96:fd:09:
                    2a:da:11:23:4d:f0:cb:d6:b2:b1:0e:12:6c:9a:19:
                    65:98:87:ca:e4:ee:24:ce:44:ac:90:8f:9d:1b:c5:
                    2a:9d
                Exponent: 65537 (0x10001)
        X509v3 extensions:
            X509v3 Key Usage: 
                Digital Signature, Key Encipherment
            X509v3 Basic Constraints: 
                CA:FALSE
            Netscape Cert Type: 
                SSL Server
            Netscape Comment: 
                OpenSSL Generated Server Certificate
            X509v3 Subject Key Identifier: 
                4D:07:90:AD:FF:1D:0D:E7:1A:DD:D6:2E:FA:BA:34:CB:AA:1F:24:C6
            X509v3 Authority Key Identifier: 
                keyid:F4:A7:C0:CC:91:46:AF:64:F3:91:F2:27:F8:C8:B2:6F:8A:87:32:73
                DirName:/C=DE/ST=Hessen/O=privacyidea/CN=CA001
                serial:FB:C8:EB:AC:83:CD:12:07

            X509v3 Extended Key Usage: 
                TLS Web Server Authentication
    Signature Algorithm: sha1WithRSAEncryption
         43:03:96:d6:35:11:80:85:1c:e2:f4:cb:e1:79:05:c7:00:2e:
         a4:21:45:96:00:54:0c:a9:06:2e:0f:66:e5:36:9f:dc:e1:03:
         b2:cf:e0:d0:58:68:1f:6a:98:76:53:03:32:5a:b1:82:7f:0d:
         86:d3:35:60:ea:ce:e5:82:cb:60:0d:43:3a:05:d1:e2:93:5a:
         8d:7f:4a:9b:02:11:4c:ae:93:01:c2:74:e1:f2:1b:86:ba:e0:
         5f:a0:d1:83:bb:2d:7e:c1:c8:ed:40:86:d8:f1:c0:7c:38:25:
         0b:5b:76:54:c0:83:38:e3:ee:c7:d7:74:d0:56:db:35:5c:79:
         f0:0b:c6:af:65:e9:a4:3a:71:47:9d:d2:c4:09:ea:dc:c3:a0:
         7a:92:5e:11:03:58:2c:19:97:6b:c1:69:ed:c6:02:8c:d1:04:
         3a:24:b0:7c:bb:34:08:f2:25:b9:0a:8f:ac:95:93:4f:ca:ab:
         f3:ff:c1:d3:9c:ec:19:0d:01:ec:d7:f1:42:c6:a1:6d:2d:69:
         b5:e1:02:f6:9b:84:46:42:e7:12:db:d1:c2:b6:3f:55:0a:4d:
         85:1c:a4:2b:4e:d3:55:3e:78:de:33:fd:45:40:31:df:98:0e:
         1e:f8:4c:13:ea:4f:cb:07:80:a4:00:74:16:ab:b2:c7:fd:0b:
         26:89:a2:5d
-----BEGIN CERTIFICATE-----
MIIEDzCCAvegAwIBAgIEEAAAozANBgkqhkiG9w0BAQUFADBEMQswCQYDVQQGEwJE
RTEPMA0GA1UECAwGSGVzc2VuMRQwEgYDVQQKDAtwcml2YWN5aWRlYTEOMAwGA1UE
AwwFQ0EwMDEwHhcNMTUwODI3MTMxMDUwWhcNMTYwODI2MTMxMDUwWjA9MSUwIwYD
VQQDExxzZWxmc2VydmljZSxDTj11c2VyLE89cmVhbG0xMRQwEgYJKoZIhvcNAQkB
FgVtZWluZTCCASIwDQYJKoZIhvcNAQEBBQADggEPADCCAQoCggEBAM881DMOEsTm
2s22VqEcJrsmHIpKc6hYirYes4uZ0h0HwpKJecBp2MjfKGGYHrP+riu9eKn3bkfc
o6AWjIUCwU6S/XJu8MgDKZu4AG7Ag5XINCA2nLPl5OZ2c6MarUCW4FNUAOx2eZrG
DX62vSnsg/PLiaTLbAC6DMV4D/9puJT0BHBDP9ie16f7Xc51jtrnxAexnd5viEu2
TZrP+bz6n80ybfY6Cw0jQnjsl0K/Dk1gVuHTAvIZy4RXkOVwoaKDNYbi2oaf+YrE
ebNSKNrLuzTK09qRSs+NdqKya5v5lv0JKtoRI03wy9aysQ4SbJoZZZiHyuTuJM5E
rJCPnRvFKp0CAwEAAaOCAQ4wggEKMAsGA1UdDwQEAwIFoDAJBgNVHRMEAjAAMBEG
CWCGSAGG+EIBAQQEAwIGQDAzBglghkgBhvhCAQ0EJhYkT3BlblNTTCBHZW5lcmF0
ZWQgU2VydmVyIENlcnRpZmljYXRlMB0GA1UdDgQWBBRNB5Ct/x0N5xrd1i76ujTL
qh8kxjB0BgNVHSMEbTBrgBT0p8DMkUavZPOR8if4yLJviocyc6FIpEYwRDELMAkG
A1UEBhMCREUxDzANBgNVBAgMBkhlc3NlbjEUMBIGA1UECgwLcHJpdmFjeWlkZWEx
DjAMBgNVBAMMBUNBMDAxggkA+8jrrIPNEgcwEwYDVR0lBAwwCgYIKwYBBQUHAwEw
DQYJKoZIhvcNAQEFBQADggEBAEMDltY1EYCFHOL0y+F5BccALqQhRZYAVAypBi4P
ZuU2n9zhA7LP4NBYaB9qmHZTAzJasYJ/DYbTNWDqzuWCy2ANQzoF0eKTWo1/SpsC
EUyukwHCdOHyG4a64F+g0YO7LX7ByO1AhtjxwHw4JQtbdlTAgzjj7sfXdNBW2zVc
efALxq9l6aQ6cUed0sQJ6tzDoHqSXhEDWCwZl2vBae3GAozRBDoksHy7NAjyJbkK
j6yVk0/Kq/P/wdOc7BkNAezX8ULGoW0tabXhAvabhEZC5xLb0cK2P1UKTYUcpCtO
01U+eN4z/UVAMd+YDh74TBPqT8sHgKQAdBarssf9CyaJol0=
-----END CERTIFICATE-----
