Certificate:
    Data:
        Version: 3 (0x2)
        Serial Number: 268435613 (0x1000009d)
    Signature Algorithm: sha1WithRSAEncryption
        Issuer: C=DE, ST=Hessen, O=privacyidea, CN=CA001
        Validity
            Not Before: Sep  5 07:18:31 2015 GMT
            Not After : Sep  4 07:18:31 2016 GMT
        Subject: CN=selfservice,CN=user,O=realm1/emailAddress=meine
        Subject Public Key Info:
            Public Key Algorithm: rsaEncryption
                Public-Key: (2048 bit)
                Modulus:
                    00:cf:3c:d4:33:0e:12:c4:e6:da:cd:b6:56:a1:1c:
                    26:bb:26:1c:8a:4a:73:a8:58:8a:b6:1e:b3:8b:99:
                    d2:1d:07:c2:92:89:79:c0:69:d8:c8:df:28:61:98:
                    1e:b3:fe:ae:2b:bd:78:a9:f7:6e:47:dc:a3:a0:16:
                    8c:85:02:c1:4e:92:fd:72:6e:f0:c8:03:29:9b:b8:
                    00:6e:c0:83:95:c8:34:20:36:9c:b3:e5:e4:e6:76:
                    73:a3:1a:ad:40:96:e0:53:54:00:ec:76:79:9a:c6:
                    0d:7e:b6:bd:29:ec:83:f3:cb:89:a4:cb:6c:00:ba:
                    0c:c5:78:0f:ff:69:b8:94:f4:04:70:43:3f:d8:9e:
                    d7:a7:fb:5d:ce:75:8e:da:e7:c4:07:b1:9d:de:6f:
                    88:4b:b6:4d:9a:cf:f9:bc:fa:9f:cd:32:6d:f6:3a:
                    0b:0d:23:42:78:ec:97:42:bf:0e:4d:60:56:e1:d3:
                    02:f2:19:cb:84:57:90:e5:70:a1:a2:83:35:86:e2:
                    da:86:9f:f9:8a:c4:79:b3:52:28:da:cb:bb:34:ca:
                    d3:da:91:4a:cf:8d:76:a2:b2:6b:9b:f9:96:fd:09:
                    2a:da:11:23:4d:f0:cb:d6:b2:b1:0e:12:6c:9a:19:
                    65:98:87:ca:e4:ee:24:ce:44:ac:90:8f:9d:1b:c5:
                    2a:9d
                Exponent: 65537 (0x10001)
        X509v3 extensions:
            X509v3 Key Usage: 
                Digital Signature, Key Encipherment
            X509v3 Basic Constraints: 
                CA:FALSE
            Netscape Cert Type: 
                SSL Server
            Netscape Comment: 
                OpenSSL Generated Server Certificate
            X509v3 Subject Key Identifier: 
                4D:07:90:AD:FF:1D:0D:E7:1A:DD:D6:2E:FA:BA:34:CB:AA:1F:24:C6
            X509v3 Authority Key Identifier: 
                keyid:F4:A7:C0:CC:91:46:AF:64:F3:91:F2:27:F8:C8:B2:6F:8A:87:32:73
                DirName:/C=DE/ST=Hessen/O=privacyidea/CN=CA001
                serial:FB:C8:EB:AC:83:CD:12:07

            X509v3 Extended Key Usage: 
                TLS Web Server Authentication
    Signature Algorithm: sha1WithRSAEncryption
         a1:aa:9a:0b:41:8e:1b:4e:7a:10:55:3b:09:fd:73:4d:4a:10:
         b4:87:25:da:d2:6e:df:e1:45:10:5f:c6:d7:b7:52:ca:58:c4:
         41:91:10:b1:73:63:9e:74:33:73:5e:0f:be:d4:be:fc:83:2f:
         14:c5:9f:33:84:d7:60:fe:39:f0:5d:e8:a6:2c:ad:6f:53:3f:
         4a:45:0f:95:52:94:d6:dd:94:0a:b4:78:3e:e9:ad:64:43:f4:
         a3:31:18:52:68:e1:ec:73:a8:3d:cd:da:e7:19:ea:8c:f5:e9:
         47:8d:bf:09:f6:d4:70:1c:f8:bd:75:15:d8:bd:9e:71:0b:d6:
         19:83:8a:68:7e:99:00:44:92:6b:35:7a:ee:4e:1e:bf:57:86:
         d7:01:87:0b:99:4c:14:1f:6b:cd:f9:6e:b6:c6:75:bc:fc:60:
         34:5f:06:25:ad:06:ff:aa:10:a4:da:af:12:9d:c1:9b:88:48:
         87:97:61:a5:8e:b2:93:3c:8a:a7:8f:5a:fa:09:d2:02:7f:b6:
         0f:17:2a:b6:54:19:8b:fd:54:1a:72:72:3d:49:3b:71:9e:4e:
         0f:76:2b:aa:45:0a:89:63:c5:7a:5f:d8:a7:b6:b7:48:d4:76:
         0d:7f:b9:e2:e0:29:0c:0f:97:03:e1:6e:d5:86:66:7c:84:18:
         ad:0a:9d:73
-----BEGIN CERTIFICATE-----
MIIEDzCCAvegAwIBAgIEEAAAnTANBgkqhkiG9w0BAQUFADBEMQswCQYDVQQGEwJE
RTEPMA0GA1UECAwGSGVzc2VuMRQwEgYDVQQKDAtwcml2YWN5aWRlYTEOMAwGA1UE
AwwFQ0EwMDEwHhcNMTUwOTA1MDcxODMxWhcNMTYwOTA0MDcxODMxWjA9MSUwIwYD
VQQDExxzZWxmc2VydmljZSxDTj11c2VyLE89cmVhbG0xMRQwEgYJKoZIhvcNAQkB
FgVtZWluZTCCASIwDQYJKoZIhvcNAQEBBQADggEPADCCAQoCggEBAM881DMOEsTm
2s22VqEcJrsmHIpKc6hYirYes4uZ0h0HwpKJecBp2MjfKGGYHrP+riu9eKn3bkfc
o6AWjIUCwU6S/XJu8MgDKZu4AG7Ag5XINCA2nLPl5OZ2c6MarUCW4FNUAOx2eZrG
DX62vSnsg/PLiaTLbAC6DMV4D/9puJT0BHBDP9ie16f7Xc51jtrnxAexnd5viEu2
TZrP+bz6n80ybfY6Cw0jQnjsl0K/Dk1gVuHTAvIZy4RXkOVwoaKDNYbi2oaf+YrE
ebNSKNrLuzTK09qRSs+NdqKya5v5lv0JKtoRI03wy9aysQ4SbJoZZZiHyuTuJM5E
rJCPnRvFKp0CAwEAAaOCAQ4wggEKMAsGA1UdDwQEAwIFoDAJBgNVHRMEAjAAMBEG
CWCGSAGG+EIBAQQEAwIGQDAzBglghkgBhvhCAQ0EJhYkT3BlblNTTCBHZW5lcmF0
ZWQgU2VydmVyIENlcnRpZmljYXRlMB0GA1UdDgQWBBRNB5Ct/x0N5xrd1i76ujTL
qh8kxjB0BgNVHSMEbTBrgBT0p8DMkUavZPOR8if4yLJviocyc6FIpEYwRDELMAkG
A1UEBhMCREUxDzANBgNVBAgMBkhlc3NlbjEUMBIGA1UECgwLcHJpdmFjeWlkZWEx
DjAMBgNVBAMMBUNBMDAxggkA+8jrrIPNEgcwEwYDVR0lBAwwCgYIKwYBBQUHAwEw
DQYJKoZIhvcNAQEFBQADggEBAKGqmgtBjhtOehBVOwn9c01KELSHJdrSbt/hRRBf
xte3UspYxEGRELFzY550M3NeD77UvvyDLxTFnzOE12D+OfBd6KYsrW9TP0pFD5VS
lNbdlAq0eD7prWRD9KMxGFJo4exzqD3N2ucZ6oz16UeNvwn21HAc+L11Fdi9nnEL
1hmDimh+mQBEkms1eu5OHr9XhtcBhwuZTBQfa835brbGdbz8YDRfBiWtBv+qEKTa
rxKdwZuISIeXYaWOspM8iqePWvoJ0gJ/tg8XKrZUGYv9VBpycj1JO3GeTg92K6pF
ColjxXpf2Ke2t0jUdg1/ueLgKQwPlwPhbtWGZnyEGK0KnXM=
-----END CERTIFICATE-----
