Certificate:
    Data:
        Version: 3 (0x2)
        Serial Number: 268435620 (0x100000a4)
    Signature Algorithm: sha1WithRSAEncryption
        Issuer: C=DE, ST=Hessen, O=privacyidea, CN=CA001
        Validity
            Not Before: Aug 18 07:17:57 2015 GMT
            Not After : Aug 17 07:17:57 2016 GMT
        Subject: C=DE, ST=Hessen, O=privacyidea, CN=requester.localdomain
        Subject Public Key Info:
            Public Key Algorithm: rsaEncryption
                Public-Key: (2048 bit)
                Modulus:
                    00:cd:be:14:4f:fa:ce:01:3f:42:22:1b:1d:9c:af:
                    dd:92:d2:7f:db:6c:b7:3e:39:43:43:6b:13:03:f1:
                    05:f4:07:74:bc:76:69:28:0b:af:19:8e:d7:fc:e3:
                    cd:c6:58:f2:ca:7f:08:6d:53:fc:07:02:44:24:c6:
                    b4:34:4c:8c:04:fe:33:0e:40:e2:20:ba:02:73:5a:
                    f7:f5:4f:63:6e:cc:c6:b6:df:54:1d:37:39:7d:51:
                    36:26:5f:bd:dc:3f:a8:8b:6b:a2:ae:b6:9d:d6:21:
                    e7:df:41:b8:7a:28:2a:68:48:ca:a8:2d:ed:e1:e9:
                    46:5e:5a:72:6d:b4:84:38:87:91:fd:94:11:0b:28:
                    84:c6:c2:2f:2a:fb:01:f9:36:7a:09:75:d1:33:88:
                    3c:73:41:5b:c8:bf:94:89:70:a1:f0:c0:b9:2e:50:
                    53:1e:b1:17:64:69:f4:2d:81:e0:a9:0d:0e:32:e9:
                    ba:55:8a:85:f1:1b:6f:49:79:b4:7f:88:c3:0d:3e:
                    54:88:9b:3d:1f:38:8c:04:f3:ee:6a:63:2b:f5:c6:
                    db:b4:83:aa:c4:78:41:3a:7d:4b:e1:c8:3e:71:ca:
                    1b:61:59:ea:c6:c4:ca:32:5e:c9:e9:bf:12:29:e6:
                    c6:c3:63:fe:a0:55:da:7a:f1:60:98:4d:26:ed:fa:
                    70:2d
                Exponent: 65537 (0x10001)
        X509v3 extensions:
            X509v3 Key Usage: 
                Digital Signature, Key Encipherment
            X509v3 Basic Constraints: 
                CA:FALSE
            Netscape Cert Type: 
                SSL Server
            Netscape Comment: 
                OpenSSL Generated Server Certificate
            X509v3 Subject Key Identifier: 
                53:3F:ED:5D:09:07:B3:65:7B:AB:45:C9:24:5B:09:77:80:0A:96:ED
            X509v3 Authority Key Identifier: 
                keyid:F4:A7:C0:CC:91:46:AF:64:F3:91:F2:27:F8:C8:B2:6F:8A:87:32:73
                DirName:/C=DE/ST=Hessen/O=privacyidea/CN=CA001
                serial:FB:C8:EB:AC:83:CD:12:07

            X509v3 Extended Key Usage: 
                TLS Web Server Authentication
    Signature Algorithm: sha1WithRSAEncryption
         23:60:a8:b8:94:c3:d5:b7:c9:2c:c3:72:f1:e1:e6:85:49:17:
         3a:7d:50:74:0e:63:a1:28:a8:bb:17:bf:68:c5:29:61:0d:b2:
         f7:bb:c4:82:06:42:44:cd:97:8f:09:d3:15:cd:da:f6:f1:58:
         52:33:84:ad:49:3f:be:63:98:5a:f4:ca:df:0a:d7:af:65:d6:
         44:45:d9:f9:c0:04:94:88:9f:92:ed:5b:63:a1:05:75:51:38:
         3e:84:65:7e:16:36:58:ef:18:2a:6d:95:96:7e:d5:76:59:b4:
         d1:0d:9a:66:f1:23:26:cf:a5:d6:7b:6c:ee:20:96:37:b8:0a:
         df:7e:53:2d:f2:63:3c:f7:18:e6:9b:2c:4d:2b:9a:98:0e:bd:
         8c:4e:e2:aa:a8:90:e3:f0:25:ac:1c:eb:a5:bf:26:84:59:c8:
         cc:19:56:04:04:f8:7b:64:53:8f:7e:a6:1b:13:8b:cc:50:91:
         d3:81:c7:1c:d3:b5:30:f2:55:c9:d3:a6:cb:66:9a:2e:ea:75:
         4e:8c:31:a9:d8:47:53:0b:d7:af:ff:26:a5:d8:ea:17:f9:87:
         02:24:c6:06:58:cf:c6:ac:c9:b8:83:54:31:0c:e5:dc:0e:60:
         c8:56:37:55:86:41:26:49:b9:f5:be:48:49:1d:e3:ca:b9:33:
         1f:9a:14:ae
-----BEGIN CERTIFICATE-----
MIIEJjCCAw6gAwIBAgIEEAAApDANBgkqhkiG9w0BAQUFADBEMQswCQYDVQQGEwJE
RTEPMA0GA1UECAwGSGVzc2VuMRQwEgYDVQQKDAtwcml2YWN5aWRlYTEOMAwGA1UE
AwwFQ0EwMDEwHhcNMTUwODE4MDcxNzU3WhcNMTYwODE3MDcxNzU3WjBUMQswCQYD
VQQGEwJERTEPMA0GA1UECAwGSGVzc2VuMRQwEgYDVQQKDAtwcml2YWN5aWRlYTEe
MBwGA1UEAwwVcmVxdWVzdGVyLmxvY2FsZG9tYWluMIIBIjANBgkqhkiG9w0BAQEF
AAOCAQ8AMIIBCgKCAQEAzb4UT/rOAT9CIhsdnK/dktJ/22y3PjlDQ2sTA/EF9Ad0
vHZpKAuvGY7X/OPNxljyyn8IbVP8BwJEJMa0NEyMBP4zDkDiILoCc1r39U9jbszG
tt9UHTc5fVE2Jl+93D+oi2uirrad1iHn30G4eigqaEjKqC3t4elGXlpybbSEOIeR
/ZQRCyiExsIvKvsB+TZ6CXXRM4g8c0FbyL+UiXCh8MC5LlBTHrEXZGn0LYHgqQ0O
Mum6VYqF8RtvSXm0f4jDDT5UiJs9HziMBPPuamMr9cbbtIOqxHhBOn1L4cg+ccob
YVnqxsTKMl7J6b8SKebGw2P+oFXaevFgmE0m7fpwLQIDAQABo4IBDjCCAQowCwYD
VR0PBAQDAgWgMAkGA1UdEwQCMAAwEQYJYIZIAYb4QgEBBAQDAgZAMDMGCWCGSAGG
+EIBDQQmFiRPcGVuU1NMIEdlbmVyYXRlZCBTZXJ2ZXIgQ2VydGlmaWNhdGUwHQYD
VR0OBBYEFFM/7V0JB7Nle6tFySRbCXeACpbtMHQGA1UdIwRtMGuAFPSnwMyRRq9k
85HyJ/jIsm+KhzJzoUikRjBEMQswCQYDVQQGEwJERTEPMA0GA1UECAwGSGVzc2Vu
MRQwEgYDVQQKDAtwcml2YWN5aWRlYTEOMAwGA1UEAwwFQ0EwMDGCCQD7yOusg80S
BzATBgNVHSUEDDAKBggrBgEFBQcDATANBgkqhkiG9w0BAQUFAAOCAQEAI2CouJTD
1bfJLMNy8eHmhUkXOn1QdA5joSiouxe/aMUpYQ2y97vEggZCRM2XjwnTFc3a9vFY
UjOErUk/vmOYWvTK3wrXr2XWREXZ+cAElIifku1bY6EFdVE4PoRlfhY2WO8YKm2V
ln7Vdlm00Q2aZvEjJs+l1nts7iCWN7gK335TLfJjPPcY5pssTSuamA69jE7iqqiQ
4/AlrBzrpb8mhFnIzBlWBAT4e2RTj36mGxOLzFCR04HHHNO1MPJVydOmy2aaLup1
TowxqdhHUwvXr/8mpdjqF/mHAiTGBljPxqzJuINUMQzl3A5gyFY3VYZBJkm59b5I
SR3jyrkzH5oUrg==
-----END CERTIFICATE-----
