Certificate:
    Data:
        Version: 3 (0x2)
        Serial Number: 268435610 (0x1000009a)
    Signature Algorithm: sha1WithRSAEncryption
        Issuer: C=DE, ST=Hessen, O=privacyidea, CN=CA001
        Validity
            Not Before: Sep  5 07:16:51 2015 GMT
            Not After : Sep  4 07:16:51 2016 GMT
        Subject: C=DE, ST=Hessen, O=privacyidea, CN=usercert
        Subject Public Key Info:
            Public Key Algorithm: rsaEncryption
                Public-Key: (2048 bit)
                Modulus:
                    00:dc:2f:d1:5f:29:97:d4:7c:c3:53:c8:30:bd:4b:
                    67:70:2c:24:6b:b8:5e:eb:21:7a:48:12:56:7c:81:
                    5c:48:75:b6:68:eb:f6:f2:98:4e:50:51:d1:7f:6c:
                    73:f3:0a:a7:ae:be:48:5e:e5:d6:e1:d9:2a:7c:32:
                    6e:4e:fd:08:f6:5a:54:49:23:73:c3:b9:07:18:d1:
                    ef:b3:ac:f8:8a:dc:94:96:a4:90:3a:8e:74:df:e6:
                    0d:37:1b:bd:5b:b7:25:1a:56:39:da:6f:91:aa:5e:
                    1c:74:f3:f9:7c:14:01:83:12:65:76:c7:bb:fe:36:
                    5b:95:e9:72:65:83:ed:3e:98:30:71:fa:87:dd:a3:
                    36:5a:30:03:2e:26:e0:61:d1:bf:02:3f:b6:06:1f:
                    4a:89:28:1c:5c:a2:ff:4e:be:94:e6:8c:e0:da:82:
                    f1:9d:29:32:48:30:73:b4:04:f6:42:1e:be:f7:e2:
                    32:32:27:3c:9d:89:2f:70:3e:85:9a:6f:5c:c5:09:
                    c0:8c:32:2f:72:22:c9:d2:95:1f:b6:ac:72:60:72:
                    b7:82:4d:6b:ce:5b:e3:00:d0:d2:2f:58:c6:e0:10:
                    e5:51:ca:4d:3b:2e:e6:7e:ab:84:d6:56:f1:93:35:
                    a0:93:64:26:81:75:2f:91:b5:16:06:38:0b:db:cc:
                    2d:07
                Exponent: 65537 (0x10001)
        X509v3 extensions:
            X509v3 Key Usage: 
                Digital Signature, Key Encipherment
            X509v3 Basic Constraints: 
                CA:FALSE
            Netscape Cert Type: 
                SSL Server
            Netscape Comment: 
                OpenSSL Generated Server Certificate
            X509v3 Subject Key Identifier: 
                FC:14:D1:F0:4B:8D:00:90:F2:F5:B8:71:9E:4E:97:C3:92:54:AD:0B
            X509v3 Authority Key Identifier: 
                keyid:F4:A7:C0:CC:91:46:AF:64:F3:91:F2:27:F8:C8:B2:6F:8A:87:32:73
                DirName:/C=DE/ST=Hessen/O=privacyidea/CN=CA001
                serial:FB:C8:EB:AC:83:CD:12:07

            X509v3 Extended Key Usage: 
                TLS Web Server Authentication
    Signature Algorithm: sha1WithRSAEncryption
         59:41:bb:05:0e:a8:ee:00:b1:1e:6c:5c:66:4f:84:67:4a:69:
         a2:96:2e:5a:89:f1:81:70:8c:b8:a1:32:60:8a:c4:27:6c:72:
         0f:42:ad:bb:8e:97:63:bd:b9:58:f6:ef:5c:27:ff:83:5c:29:
         f0:96:15:4a:8b:58:94:70:97:87:85:9e:3f:da:17:23:70:cd:
         b8:59:0e:52:c8:5f:11:03:8d:4d:1b:d5:49:16:f2:75:d4:fe:
         5b:42:07:9e:1a:ea:2d:b4:81:6f:d7:ec:04:e5:eb:9b:42:c0:
         58:b1:a2:03:3b:20:b5:27:a1:4d:ea:79:cd:e1:f2:01:da:75:
         d2:9d:3c:b0:6f:fa:f8:42:eb:f5:08:5e:84:df:7b:f8:3a:ee:
         c9:a2:30:45:39:78:2c:ad:f4:36:99:44:7d:b0:c2:f6:91:70:
         b6:85:2e:91:bc:83:e0:3e:16:ec:3b:5f:30:dc:a2:bd:11:55:
         8d:1b:bd:f2:df:2a:6b:bf:4c:d5:a8:f5:44:79:34:9b:4c:0a:
         6f:0d:f7:e8:07:34:5c:89:02:cf:15:c6:90:20:06:b4:47:c4:
         25:a3:fb:38:c2:0c:55:20:b9:8e:7e:90:f0:54:eb:d9:63:27:
         39:69:a1:54:bb:d0:4b:8e:37:9c:d6:06:95:d8:22:7b:1d:20:
         72:7d:64:f9
-----BEGIN CERTIFICATE-----
MIIEGTCCAwGgAwIBAgIEEAAAmjANBgkqhkiG9w0BAQUFADBEMQswCQYDVQQGEwJE
RTEPMA0GA1UECAwGSGVzc2VuMRQwEgYDVQQKDAtwcml2YWN5aWRlYTEOMAwGA1UE
AwwFQ0EwMDEwHhcNMTUwOTA1MDcxNjUxWhcNMTYwOTA0MDcxNjUxWjBHMQswCQYD
VQQGEwJERTEPMA0GA1UECAwGSGVzc2VuMRQwEgYDVQQKDAtwcml2YWN5aWRlYTER
MA8GA1UEAwwIdXNlcmNlcnQwggEiMA0GCSqGSIb3DQEBAQUAA4IBDwAwggEKAoIB
AQDcL9FfKZfUfMNTyDC9S2dwLCRruF7rIXpIElZ8gVxIdbZo6/bymE5QUdF/bHPz
Cqeuvkhe5dbh2Sp8Mm5O/Qj2WlRJI3PDuQcY0e+zrPiK3JSWpJA6jnTf5g03G71b
tyUaVjnab5GqXhx08/l8FAGDEmV2x7v+NluV6XJlg+0+mDBx+ofdozZaMAMuJuBh
0b8CP7YGH0qJKBxcov9OvpTmjODagvGdKTJIMHO0BPZCHr734jIyJzydiS9wPoWa
b1zFCcCMMi9yIsnSlR+2rHJgcreCTWvOW+MA0NIvWMbgEOVRyk07LuZ+q4TWVvGT
NaCTZCaBdS+RtRYGOAvbzC0HAgMBAAGjggEOMIIBCjALBgNVHQ8EBAMCBaAwCQYD
VR0TBAIwADARBglghkgBhvhCAQEEBAMCBkAwMwYJYIZIAYb4QgENBCYWJE9wZW5T
U0wgR2VuZXJhdGVkIFNlcnZlciBDZXJ0aWZpY2F0ZTAdBgNVHQ4EFgQU/BTR8EuN
AJDy9bhxnk6Xw5JUrQswdAYDVR0jBG0wa4AU9KfAzJFGr2TzkfIn+Miyb4qHMnOh
SKRGMEQxCzAJBgNVBAYTAkRFMQ8wDQYDVQQIDAZIZXNzZW4xFDASBgNVBAoMC3By
aXZhY3lpZGVhMQ4wDAYDVQQDDAVDQTAwMYIJAPvI66yDzRIHMBMGA1UdJQQMMAoG
CCsGAQUFBwMBMA0GCSqGSIb3DQEBBQUAA4IBAQBZQbsFDqjuALEebFxmT4RnSmmi
li5aifGBcIy4oTJgisQnbHIPQq27jpdjvblY9u9cJ/+DXCnwlhVKi1iUcJeHhZ4/
2hcjcM24WQ5SyF8RA41NG9VJFvJ11P5bQgeeGuottIFv1+wE5eubQsBYsaIDOyC1
J6FN6nnN4fIB2nXSnTywb/r4Quv1CF6E33v4Ou7JojBFOXgsrfQ2mUR9sML2kXC2
hS6RvIPgPhbsO18w3KK9EVWNG73y3yprv0zVqPVEeTSbTApvDffoBzRciQLPFcaQ
IAa0R8Qlo/s4wgxVILmOfpDwVOvZYyc5aaFUu9BLjjec1gaV2CJ7HSByfWT5
-----END CERTIFICATE-----
