Certificate:
    Data:
        Version: 3 (0x2)
        Serial Number: 268435612 (0x1000009c)
    Signature Algorithm: sha1WithRSAEncryption
        Issuer: C=DE, ST=Hessen, O=privacyidea, CN=CA001
        Validity
            Not Before: Sep  5 07:17:37 2015 GMT
            Not After : Sep  4 07:17:37 2016 GMT
        Subject: C=DE, ST=Hessen, O=privacyidea, CN=requester.localdomain
        Subject Public Key Info:
            Public Key Algorithm: rsaEncryption
                Public-Key: (2048 bit)
                Modulus:
                    00:cd:be:14:4f:fa:ce:01:3f:42:22:1b:1d:9c:af:
                    dd:92:d2:7f:db:6c:b7:3e:39:43:43:6b:13:03:f1:
                    05:f4:07:74:bc:76:69:28:0b:af:19:8e:d7:fc:e3:
                    cd:c6:58:f2:ca:7f:08:6d:53:fc:07:02:44:24:c6:
                    b4:34:4c:8c:04:fe:33:0e:40:e2:20:ba:02:73:5a:
                    f7:f5:4f:63:6e:cc:c6:b6:df:54:1d:37:39:7d:51:
                    36:26:5f:bd:dc:3f:a8:8b:6b:a2:ae:b6:9d:d6:21:
                    e7:df:41:b8:7a:28:2a:68:48:ca:a8:2d:ed:e1:e9:
                    46:5e:5a:72:6d:b4:84:38:87:91:fd:94:11:0b:28:
                    84:c6:c2:2f:2a:fb:01:f9:36:7a:09:75:d1:33:88:
                    3c:73:41:5b:c8:bf:94:89:70:a1:f0:c0:b9:2e:50:
                    53:1e:b1:17:64:69:f4:2d:81:e0:a9:0d:0e:32:e9:
                    ba:55:8a:85:f1:1b:6f:49:79:b4:7f:88:c3:0d:3e:
                    54:88:9b:3d:1f:38:8c:04:f3:ee:6a:63:2b:f5:c6:
                    db:b4:83:aa:c4:78:41:3a:7d:4b:e1:c8:3e:71:ca:
                    1b:61:59:ea:c6:c4:ca:32:5e:c9:e9:bf:12:29:e6:
                    c6:c3:63:fe:a0:55:da:7a:f1:60:98:4d:26:ed:fa:
                    70:2d
                Exponent: 65537 (0x10001)
        X509v3 extensions:
            X509v3 Key Usage: 
                Digital Signature, Key Encipherment
            X509v3 Basic Constraints: 
                CA:FALSE
            Netscape Cert Type: 
                SSL Server
            Netscape Comment: 
                OpenSSL Generated Server Certificate
            X509v3 Subject Key Identifier: 
                53:3F:ED:5D:09:07:B3:65:7B:AB:45:C9:24:5B:09:77:80:0A:96:ED
            X509v3 Authority Key Identifier: 
                keyid:F4:A7:C0:CC:91:46:AF:64:F3:91:F2:27:F8:C8:B2:6F:8A:87:32:73
                DirName:/C=DE/ST=Hessen/O=privacyidea/CN=CA001
                serial:FB:C8:EB:AC:83:CD:12:07

            X509v3 Extended Key Usage: 
                TLS Web Server Authentication
    Signature Algorithm: sha1WithRSAEncryption
         27:9e:27:f2:d0:83:8b:48:91:47:cc:6d:0f:37:b1:c8:29:50:
         65:48:23:8d:a6:f3:b3:53:85:eb:e1:de:8c:10:e5:f0:c3:59:
         7c:82:00:d3:e6:d4:75:51:41:64:f5:fb:2e:d8:f6:64:9e:ce:
         b0:5a:45:5a:7e:64:af:d4:b4:7b:10:48:46:e2:43:c0:a1:69:
         0b:0f:53:04:95:3e:4b:37:01:f9:17:b1:7a:e4:80:e0:ec:b3:
         25:43:e4:93:95:79:19:bb:57:74:3a:ca:10:e0:ed:84:5c:39:
         45:a8:49:fa:36:ea:6b:81:34:38:0d:ad:09:72:0e:80:72:52:
         e1:fb:bb:25:69:1f:31:5b:fd:c9:d4:d9:b1:03:bb:e6:11:c1:
         f9:29:ec:2a:53:04:ff:32:9b:13:df:e4:f6:0a:33:9c:18:44:
         e0:64:66:c5:8e:0c:24:f5:0c:1e:ef:be:12:23:04:27:98:55:
         40:3b:2d:1a:fb:1f:63:41:87:35:7f:0f:45:c9:55:bd:2a:62:
         56:74:48:11:78:f0:1f:f6:2e:49:c7:96:f0:4e:5b:24:b2:ed:
         10:5f:88:05:d4:d4:04:c9:ee:95:09:25:f0:5a:3b:28:d1:bb:
         d0:07:da:fa:93:34:35:8f:d3:25:8b:25:7f:bd:4b:fa:4b:4e:
         e2:a1:b4:87
-----BEGIN CERTIFICATE-----
MIIEJjCCAw6gAwIBAgIEEAAAnDANBgkqhkiG9w0BAQUFADBEMQswCQYDVQQGEwJE
RTEPMA0GA1UECAwGSGVzc2VuMRQwEgYDVQQKDAtwcml2YWN5aWRlYTEOMAwGA1UE
AwwFQ0EwMDEwHhcNMTUwOTA1MDcxNzM3WhcNMTYwOTA0MDcxNzM3WjBUMQswCQYD
VQQGEwJERTEPMA0GA1UECAwGSGVzc2VuMRQwEgYDVQQKDAtwcml2YWN5aWRlYTEe
MBwGA1UEAwwVcmVxdWVzdGVyLmxvY2FsZG9tYWluMIIBIjANBgkqhkiG9w0BAQEF
AAOCAQ8AMIIBCgKCAQEAzb4UT/rOAT9CIhsdnK/dktJ/22y3PjlDQ2sTA/EF9Ad0
vHZpKAuvGY7X/OPNxljyyn8IbVP8BwJEJMa0NEyMBP4zDkDiILoCc1r39U9jbszG
tt9UHTc5fVE2Jl+93D+oi2uirrad1iHn30G4eigqaEjKqC3t4elGXlpybbSEOIeR
/ZQRCyiExsIvKvsB+TZ6CXXRM4g8c0FbyL+UiXCh8MC5LlBTHrEXZGn0LYHgqQ0O
Mum6VYqF8RtvSXm0f4jDDT5UiJs9HziMBPPuamMr9cbbtIOqxHhBOn1L4cg+ccob
YVnqxsTKMl7J6b8SKebGw2P+oFXaevFgmE0m7fpwLQIDAQABo4IBDjCCAQowCwYD
VR0PBAQDAgWgMAkGA1UdEwQCMAAwEQYJYIZIAYb4QgEBBAQDAgZAMDMGCWCGSAGG
+EIBDQQmFiRPcGVuU1NMIEdlbmVyYXRlZCBTZXJ2ZXIgQ2VydGlmaWNhdGUwHQYD
VR0OBBYEFFM/7V0JB7Nle6tFySRbCXeACpbtMHQGA1UdIwRtMGuAFPSnwMyRRq9k
85HyJ/jIsm+KhzJzoUikRjBEMQswCQYDVQQGEwJERTEPMA0GA1UECAwGSGVzc2Vu
MRQwEgYDVQQKDAtwcml2YWN5aWRlYTEOMAwGA1UEAwwFQ0EwMDGCCQD7yOusg80S
BzATBgNVHSUEDDAKBggrBgEFBQcDATANBgkqhkiG9w0BAQUFAAOCAQEAJ54n8tCD
i0iRR8xtDzexyClQZUgjjabzs1OF6+HejBDl8MNZfIIA0+bUdVFBZPX7Ltj2ZJ7O
sFpFWn5kr9S0exBIRuJDwKFpCw9TBJU+SzcB+RexeuSA4OyzJUPkk5V5GbtXdDrK
EODthFw5RahJ+jbqa4E0OA2tCXIOgHJS4fu7JWkfMVv9ydTZsQO75hHB+SnsKlME
/zKbE9/k9goznBhE4GRmxY4MJPUMHu++EiMEJ5hVQDstGvsfY0GHNX8PRclVvSpi
VnRIEXjwH/YuSceW8E5bJLLtEF+IBdTUBMnulQkl8Fo7KNG70Afa+pM0NY/TJYsl
f71L+ktO4qG0hw==
-----END CERTIFICATE-----
