Certificate:
    Data:
        Version: 3 (0x2)
        Serial Number: 268435627 (0x100000ab)
    Signature Algorithm: sha1WithRSAEncryption
        Issuer: C=DE, ST=Hessen, O=privacyidea, CN=CA001
        Validity
            Not Before: Jul  1 14:10:41 2015 GMT
            Not After : Jun 30 14:10:41 2016 GMT
        Subject: C=DE, ST=Hessen, O=privacyidea, CN=usercert
        Subject Public Key Info:
            Public Key Algorithm: rsaEncryption
                Public-Key: (2048 bit)
                Modulus:
                    00:dc:2f:d1:5f:29:97:d4:7c:c3:53:c8:30:bd:4b:
                    67:70:2c:24:6b:b8:5e:eb:21:7a:48:12:56:7c:81:
                    5c:48:75:b6:68:eb:f6:f2:98:4e:50:51:d1:7f:6c:
                    73:f3:0a:a7:ae:be:48:5e:e5:d6:e1:d9:2a:7c:32:
                    6e:4e:fd:08:f6:5a:54:49:23:73:c3:b9:07:18:d1:
                    ef:b3:ac:f8:8a:dc:94:96:a4:90:3a:8e:74:df:e6:
                    0d:37:1b:bd:5b:b7:25:1a:56:39:da:6f:91:aa:5e:
                    1c:74:f3:f9:7c:14:01:83:12:65:76:c7:bb:fe:36:
                    5b:95:e9:72:65:83:ed:3e:98:30:71:fa:87:dd:a3:
                    36:5a:30:03:2e:26:e0:61:d1:bf:02:3f:b6:06:1f:
                    4a:89:28:1c:5c:a2:ff:4e:be:94:e6:8c:e0:da:82:
                    f1:9d:29:32:48:30:73:b4:04:f6:42:1e:be:f7:e2:
                    32:32:27:3c:9d:89:2f:70:3e:85:9a:6f:5c:c5:09:
                    c0:8c:32:2f:72:22:c9:d2:95:1f:b6:ac:72:60:72:
                    b7:82:4d:6b:ce:5b:e3:00:d0:d2:2f:58:c6:e0:10:
                    e5:51:ca:4d:3b:2e:e6:7e:ab:84:d6:56:f1:93:35:
                    a0:93:64:26:81:75:2f:91:b5:16:06:38:0b:db:cc:
                    2d:07
                Exponent: 65537 (0x10001)
        X509v3 extensions:
            X509v3 Key Usage: 
                Digital Signature, Key Encipherment
            X509v3 Basic Constraints: 
                CA:FALSE
            Netscape Cert Type: 
                SSL Server
            Netscape Comment: 
                OpenSSL Generated Server Certificate
            X509v3 Subject Key Identifier: 
                FC:14:D1:F0:4B:8D:00:90:F2:F5:B8:71:9E:4E:97:C3:92:54:AD:0B
            X509v3 Authority Key Identifier: 
                keyid:F4:A7:C0:CC:91:46:AF:64:F3:91:F2:27:F8:C8:B2:6F:8A:87:32:73
                DirName:/C=DE/ST=Hessen/O=privacyidea/CN=CA001
                serial:FB:C8:EB:AC:83:CD:12:07

            X509v3 Extended Key Usage: 
                TLS Web Server Authentication
    Signature Algorithm: sha1WithRSAEncryption
         21:f4:92:03:52:f7:c2:e3:16:b8:3b:b5:94:60:95:7a:39:14:
         b2:85:0c:af:a1:90:b4:3a:b1:97:60:11:2c:34:6e:7d:f8:8e:
         66:e7:cf:3a:a0:f8:74:7c:37:2a:d4:7b:09:00:5b:f9:73:33:
         e4:f4:b5:39:c5:4d:4b:ec:8b:13:62:80:58:d8:8b:64:07:97:
         24:59:2b:87:59:dd:b8:ff:17:b3:84:ce:ed:c1:ce:f2:a1:44:
         54:6c:e6:11:df:46:1e:2b:61:d2:8f:7f:8a:ad:50:07:dc:97:
         97:0b:ed:2f:e3:f6:a6:9c:b1:89:75:c6:cd:21:06:22:b8:ec:
         e1:d2:67:d8:9c:64:a0:49:75:32:a4:d4:55:47:0f:8b:15:1e:
         6a:4f:ff:7d:d1:ed:04:e6:fe:b6:b2:96:6d:f9:5a:f3:63:dd:
         1b:34:eb:4d:62:72:54:4b:3b:b1:18:29:fe:82:2e:95:a7:1c:
         3f:6f:fd:2a:5e:60:a1:90:55:73:ac:56:f4:49:ae:55:69:59:
         c6:9a:78:2d:f4:09:cc:e2:e8:08:84:b5:06:e7:ce:e5:5b:ac:
         7a:39:ab:3b:61:9f:80:a8:55:83:73:da:6e:d9:e1:1a:1e:6a:
         1b:3a:2b:a9:ef:e9:86:50:d9:1b:07:66:e4:42:e1:a0:0f:c6:
         3b:d2:de:12
-----BEGIN CERTIFICATE-----
MIIEGTCCAwGgAwIBAgIEEAAAqzANBgkqhkiG9w0BAQUFADBEMQswCQYDVQQGEwJE
RTEPMA0GA1UECAwGSGVzc2VuMRQwEgYDVQQKDAtwcml2YWN5aWRlYTEOMAwGA1UE
AwwFQ0EwMDEwHhcNMTUwNzAxMTQxMDQxWhcNMTYwNjMwMTQxMDQxWjBHMQswCQYD
VQQGEwJERTEPMA0GA1UECAwGSGVzc2VuMRQwEgYDVQQKDAtwcml2YWN5aWRlYTER
MA8GA1UEAwwIdXNlcmNlcnQwggEiMA0GCSqGSIb3DQEBAQUAA4IBDwAwggEKAoIB
AQDcL9FfKZfUfMNTyDC9S2dwLCRruF7rIXpIElZ8gVxIdbZo6/bymE5QUdF/bHPz
Cqeuvkhe5dbh2Sp8Mm5O/Qj2WlRJI3PDuQcY0e+zrPiK3JSWpJA6jnTf5g03G71b
tyUaVjnab5GqXhx08/l8FAGDEmV2x7v+NluV6XJlg+0+mDBx+ofdozZaMAMuJuBh
0b8CP7YGH0qJKBxcov9OvpTmjODagvGdKTJIMHO0BPZCHr734jIyJzydiS9wPoWa
b1zFCcCMMi9yIsnSlR+2rHJgcreCTWvOW+MA0NIvWMbgEOVRyk07LuZ+q4TWVvGT
NaCTZCaBdS+RtRYGOAvbzC0HAgMBAAGjggEOMIIBCjALBgNVHQ8EBAMCBaAwCQYD
VR0TBAIwADARBglghkgBhvhCAQEEBAMCBkAwMwYJYIZIAYb4QgENBCYWJE9wZW5T
U0wgR2VuZXJhdGVkIFNlcnZlciBDZXJ0aWZpY2F0ZTAdBgNVHQ4EFgQU/BTR8EuN
AJDy9bhxnk6Xw5JUrQswdAYDVR0jBG0wa4AU9KfAzJFGr2TzkfIn+Miyb4qHMnOh
SKRGMEQxCzAJBgNVBAYTAkRFMQ8wDQYDVQQIDAZIZXNzZW4xFDASBgNVBAoMC3By
aXZhY3lpZGVhMQ4wDAYDVQQDDAVDQTAwMYIJAPvI66yDzRIHMBMGA1UdJQQMMAoG
CCsGAQUFBwMBMA0GCSqGSIb3DQEBBQUAA4IBAQAh9JIDUvfC4xa4O7WUYJV6ORSy
hQyvoZC0OrGXYBEsNG59+I5m5886oPh0fDcq1HsJAFv5czPk9LU5xU1L7IsTYoBY
2ItkB5ckWSuHWd24/xezhM7twc7yoURUbOYR30YeK2HSj3+KrVAH3JeXC+0v4/am
nLGJdcbNIQYiuOzh0mfYnGSgSXUypNRVRw+LFR5qT/990e0E5v62spZt+VrzY90b
NOtNYnJUSzuxGCn+gi6Vpxw/b/0qXmChkFVzrFb0Sa5VaVnGmngt9AnM4ugIhLUG
587lW6x6Oas7YZ+AqFWDc9pu2eEaHmobOiup7+mGUNkbB2bkQuGgD8Y70t4S
-----END CERTIFICATE-----
