Certificate:
    Data:
        Version: 3 (0x2)
        Serial Number: 268435607 (0x10000097)
    Signature Algorithm: sha1WithRSAEncryption
        Issuer: C=DE, ST=Hessen, O=privacyidea, CN=CA001
        Validity
            Not Before: Aug 17 21:09:23 2015 GMT
            Not After : Aug 16 21:09:23 2016 GMT
        Subject: C=DE, ST=Hessen, O=privacyidea, CN=requester.localdomain
        Subject Public Key Info:
            Public Key Algorithm: rsaEncryption
                Public-Key: (2048 bit)
                Modulus:
                    00:cd:be:14:4f:fa:ce:01:3f:42:22:1b:1d:9c:af:
                    dd:92:d2:7f:db:6c:b7:3e:39:43:43:6b:13:03:f1:
                    05:f4:07:74:bc:76:69:28:0b:af:19:8e:d7:fc:e3:
                    cd:c6:58:f2:ca:7f:08:6d:53:fc:07:02:44:24:c6:
                    b4:34:4c:8c:04:fe:33:0e:40:e2:20:ba:02:73:5a:
                    f7:f5:4f:63:6e:cc:c6:b6:df:54:1d:37:39:7d:51:
                    36:26:5f:bd:dc:3f:a8:8b:6b:a2:ae:b6:9d:d6:21:
                    e7:df:41:b8:7a:28:2a:68:48:ca:a8:2d:ed:e1:e9:
                    46:5e:5a:72:6d:b4:84:38:87:91:fd:94:11:0b:28:
                    84:c6:c2:2f:2a:fb:01:f9:36:7a:09:75:d1:33:88:
                    3c:73:41:5b:c8:bf:94:89:70:a1:f0:c0:b9:2e:50:
                    53:1e:b1:17:64:69:f4:2d:81:e0:a9:0d:0e:32:e9:
                    ba:55:8a:85:f1:1b:6f:49:79:b4:7f:88:c3:0d:3e:
                    54:88:9b:3d:1f:38:8c:04:f3:ee:6a:63:2b:f5:c6:
                    db:b4:83:aa:c4:78:41:3a:7d:4b:e1:c8:3e:71:ca:
                    1b:61:59:ea:c6:c4:ca:32:5e:c9:e9:bf:12:29:e6:
                    c6:c3:63:fe:a0:55:da:7a:f1:60:98:4d:26:ed:fa:
                    70:2d
                Exponent: 65537 (0x10001)
        X509v3 extensions:
            X509v3 Key Usage: 
                Digital Signature, Key Encipherment
            X509v3 Basic Constraints: 
                CA:FALSE
            Netscape Cert Type: 
                SSL Server
            Netscape Comment: 
                OpenSSL Generated Server Certificate
            X509v3 Subject Key Identifier: 
                53:3F:ED:5D:09:07:B3:65:7B:AB:45:C9:24:5B:09:77:80:0A:96:ED
            X509v3 Authority Key Identifier: 
                keyid:F4:A7:C0:CC:91:46:AF:64:F3:91:F2:27:F8:C8:B2:6F:8A:87:32:73
                DirName:/C=DE/ST=Hessen/O=privacyidea/CN=CA001
                serial:FB:C8:EB:AC:83:CD:12:07

            X509v3 Extended Key Usage: 
                TLS Web Server Authentication
    Signature Algorithm: sha1WithRSAEncryption
         29:9f:55:ba:82:54:4f:d1:54:a1:c3:d4:1d:87:3f:25:12:17:
         cc:99:88:83:89:68:5c:08:4d:71:e0:e9:19:24:ca:3b:35:cd:
         5e:4a:44:91:b7:ef:9d:e0:c8:3f:6a:8e:d6:b6:0f:04:93:6d:
         3e:85:19:66:68:1f:5b:1d:8c:80:7e:be:79:2b:d0:bc:b6:09:
         88:5e:2d:3f:41:1c:f4:5e:f2:7a:f8:3f:af:7e:66:e8:94:54:
         41:bf:9f:6c:75:1b:0e:3e:76:eb:a6:70:09:b2:b5:d2:3e:d5:
         0f:5f:6d:df:16:47:2e:c6:33:05:21:bd:0f:47:30:7e:ce:6d:
         e2:c9:5d:99:b0:7f:79:80:62:3b:29:52:74:7b:aa:63:d9:98:
         d0:a4:df:e4:45:2f:0b:7d:fa:48:16:29:2e:4b:7a:a2:a9:74:
         51:39:43:9f:bb:4c:3c:06:e0:2c:e6:c9:96:09:7e:bf:84:3e:
         d8:d3:9f:a8:b6:ee:c2:fe:55:e7:09:78:c5:3d:8e:41:8f:7d:
         93:19:38:57:15:27:fb:98:9a:15:00:52:d4:3d:2b:4d:a7:5f:
         3c:b8:ea:8b:54:82:7f:37:09:18:ba:27:7e:8e:68:03:da:f6:
         b1:6f:ea:c8:42:07:8d:18:3a:25:64:16:1d:17:be:cd:60:2a:
         42:3c:71:53
-----BEGIN CERTIFICATE-----
MIIEJjCCAw6gAwIBAgIEEAAAlzANBgkqhkiG9w0BAQUFADBEMQswCQYDVQQGEwJE
RTEPMA0GA1UECAwGSGVzc2VuMRQwEgYDVQQKDAtwcml2YWN5aWRlYTEOMAwGA1UE
AwwFQ0EwMDEwHhcNMTUwODE3MjEwOTIzWhcNMTYwODE2MjEwOTIzWjBUMQswCQYD
VQQGEwJERTEPMA0GA1UECAwGSGVzc2VuMRQwEgYDVQQKDAtwcml2YWN5aWRlYTEe
MBwGA1UEAwwVcmVxdWVzdGVyLmxvY2FsZG9tYWluMIIBIjANBgkqhkiG9w0BAQEF
AAOCAQ8AMIIBCgKCAQEAzb4UT/rOAT9CIhsdnK/dktJ/22y3PjlDQ2sTA/EF9Ad0
vHZpKAuvGY7X/OPNxljyyn8IbVP8BwJEJMa0NEyMBP4zDkDiILoCc1r39U9jbszG
tt9UHTc5fVE2Jl+93D+oi2uirrad1iHn30G4eigqaEjKqC3t4elGXlpybbSEOIeR
/ZQRCyiExsIvKvsB+TZ6CXXRM4g8c0FbyL+UiXCh8MC5LlBTHrEXZGn0LYHgqQ0O
Mum6VYqF8RtvSXm0f4jDDT5UiJs9HziMBPPuamMr9cbbtIOqxHhBOn1L4cg+ccob
YVnqxsTKMl7J6b8SKebGw2P+oFXaevFgmE0m7fpwLQIDAQABo4IBDjCCAQowCwYD
VR0PBAQDAgWgMAkGA1UdEwQCMAAwEQYJYIZIAYb4QgEBBAQDAgZAMDMGCWCGSAGG
+EIBDQQmFiRPcGVuU1NMIEdlbmVyYXRlZCBTZXJ2ZXIgQ2VydGlmaWNhdGUwHQYD
VR0OBBYEFFM/7V0JB7Nle6tFySRbCXeACpbtMHQGA1UdIwRtMGuAFPSnwMyRRq9k
85HyJ/jIsm+KhzJzoUikRjBEMQswCQYDVQQGEwJERTEPMA0GA1UECAwGSGVzc2Vu
MRQwEgYDVQQKDAtwcml2YWN5aWRlYTEOMAwGA1UEAwwFQ0EwMDGCCQD7yOusg80S
BzATBgNVHSUEDDAKBggrBgEFBQcDATANBgkqhkiG9w0BAQUFAAOCAQEAKZ9VuoJU
T9FUocPUHYc/JRIXzJmIg4loXAhNceDpGSTKOzXNXkpEkbfvneDIP2qO1rYPBJNt
PoUZZmgfWx2MgH6+eSvQvLYJiF4tP0Ec9F7yevg/r35m6JRUQb+fbHUbDj5266Zw
CbK10j7VD19t3xZHLsYzBSG9D0cwfs5t4sldmbB/eYBiOylSdHuqY9mY0KTf5EUv
C336SBYpLkt6oql0UTlDn7tMPAbgLObJlgl+v4Q+2NOfqLbuwv5V5wl4xT2OQY99
kxk4VxUn+5iaFQBS1D0rTadfPLjqi1SCfzcJGLonfo5oA9r2sW/qyEIHjRg6JWQW
HRe+zWAqQjxxUw==
-----END CERTIFICATE-----
