Certificate:
    Data:
        Version: 3 (0x2)
        Serial Number: 268435614 (0x1000009e)
    Signature Algorithm: sha1WithRSAEncryption
        Issuer: C=DE, ST=Hessen, O=privacyidea, CN=CA001
        Validity
            Not Before: Aug 18 06:59:29 2015 GMT
            Not After : Aug 17 06:59:29 2016 GMT
        Subject: C=DE, ST=Hessen, O=privacyidea, CN=requester.localdomain
        Subject Public Key Info:
            Public Key Algorithm: rsaEncryption
                Public-Key: (2048 bit)
                Modulus:
                    00:cd:be:14:4f:fa:ce:01:3f:42:22:1b:1d:9c:af:
                    dd:92:d2:7f:db:6c:b7:3e:39:43:43:6b:13:03:f1:
                    05:f4:07:74:bc:76:69:28:0b:af:19:8e:d7:fc:e3:
                    cd:c6:58:f2:ca:7f:08:6d:53:fc:07:02:44:24:c6:
                    b4:34:4c:8c:04:fe:33:0e:40:e2:20:ba:02:73:5a:
                    f7:f5:4f:63:6e:cc:c6:b6:df:54:1d:37:39:7d:51:
                    36:26:5f:bd:dc:3f:a8:8b:6b:a2:ae:b6:9d:d6:21:
                    e7:df:41:b8:7a:28:2a:68:48:ca:a8:2d:ed:e1:e9:
                    46:5e:5a:72:6d:b4:84:38:87:91:fd:94:11:0b:28:
                    84:c6:c2:2f:2a:fb:01:f9:36:7a:09:75:d1:33:88:
                    3c:73:41:5b:c8:bf:94:89:70:a1:f0:c0:b9:2e:50:
                    53:1e:b1:17:64:69:f4:2d:81:e0:a9:0d:0e:32:e9:
                    ba:55:8a:85:f1:1b:6f:49:79:b4:7f:88:c3:0d:3e:
                    54:88:9b:3d:1f:38:8c:04:f3:ee:6a:63:2b:f5:c6:
                    db:b4:83:aa:c4:78:41:3a:7d:4b:e1:c8:3e:71:ca:
                    1b:61:59:ea:c6:c4:ca:32:5e:c9:e9:bf:12:29:e6:
                    c6:c3:63:fe:a0:55:da:7a:f1:60:98:4d:26:ed:fa:
                    70:2d
                Exponent: 65537 (0x10001)
        X509v3 extensions:
            X509v3 Key Usage: 
                Digital Signature, Key Encipherment
            X509v3 Basic Constraints: 
                CA:FALSE
            Netscape Cert Type: 
                SSL Server
            Netscape Comment: 
                OpenSSL Generated Server Certificate
            X509v3 Subject Key Identifier: 
                53:3F:ED:5D:09:07:B3:65:7B:AB:45:C9:24:5B:09:77:80:0A:96:ED
            X509v3 Authority Key Identifier: 
                keyid:F4:A7:C0:CC:91:46:AF:64:F3:91:F2:27:F8:C8:B2:6F:8A:87:32:73
                DirName:/C=DE/ST=Hessen/O=privacyidea/CN=CA001
                serial:FB:C8:EB:AC:83:CD:12:07

            X509v3 Extended Key Usage: 
                TLS Web Server Authentication
    Signature Algorithm: sha1WithRSAEncryption
         71:05:33:1f:60:94:a4:0e:41:84:17:37:be:08:d1:8f:f8:ae:
         32:e6:f6:1c:a9:6b:50:8c:7d:6d:38:e3:8d:47:b9:14:43:7b:
         17:67:ef:2f:45:fa:fb:ce:b0:6b:a5:2d:9c:c1:fe:bc:4f:74:
         d5:de:8c:11:ea:8a:a5:58:41:f4:ad:6d:65:d9:ed:6b:0c:c6:
         df:ed:e9:73:5f:3b:82:4f:2e:36:23:22:f7:c6:c7:69:14:e8:
         3f:c8:66:83:4a:26:90:a0:9b:38:08:0a:0b:26:cc:1c:70:0c:
         4f:79:9d:3b:69:69:dd:6c:97:80:6e:64:05:75:8f:2d:95:15:
         53:72:41:1c:70:12:ab:e8:a6:62:3f:d8:99:14:f3:9e:ca:9c:
         be:1e:ff:fa:e2:8d:9c:1b:be:54:54:bb:17:a9:72:5c:35:12:
         a4:2a:af:6a:56:a0:f1:d1:73:ee:fb:d4:38:9d:09:81:65:4b:
         e3:f2:ca:04:2a:d5:27:99:1b:ae:f2:32:b2:16:04:cb:30:b8:
         f5:96:66:b0:cf:ed:47:40:71:db:44:c3:4e:4b:75:cd:93:54:
         c6:77:f5:87:32:8b:de:b8:e2:2b:2c:9a:9b:15:84:95:0c:4e:
         44:5b:89:02:e8:13:c6:60:dc:7e:97:db:0c:e5:4b:03:b5:38:
         86:98:79:7f
-----BEGIN CERTIFICATE-----
MIIEJjCCAw6gAwIBAgIEEAAAnjANBgkqhkiG9w0BAQUFADBEMQswCQYDVQQGEwJE
RTEPMA0GA1UECAwGSGVzc2VuMRQwEgYDVQQKDAtwcml2YWN5aWRlYTEOMAwGA1UE
AwwFQ0EwMDEwHhcNMTUwODE4MDY1OTI5WhcNMTYwODE3MDY1OTI5WjBUMQswCQYD
VQQGEwJERTEPMA0GA1UECAwGSGVzc2VuMRQwEgYDVQQKDAtwcml2YWN5aWRlYTEe
MBwGA1UEAwwVcmVxdWVzdGVyLmxvY2FsZG9tYWluMIIBIjANBgkqhkiG9w0BAQEF
AAOCAQ8AMIIBCgKCAQEAzb4UT/rOAT9CIhsdnK/dktJ/22y3PjlDQ2sTA/EF9Ad0
vHZpKAuvGY7X/OPNxljyyn8IbVP8BwJEJMa0NEyMBP4zDkDiILoCc1r39U9jbszG
tt9UHTc5fVE2Jl+93D+oi2uirrad1iHn30G4eigqaEjKqC3t4elGXlpybbSEOIeR
/ZQRCyiExsIvKvsB+TZ6CXXRM4g8c0FbyL+UiXCh8MC5LlBTHrEXZGn0LYHgqQ0O
Mum6VYqF8RtvSXm0f4jDDT5UiJs9HziMBPPuamMr9cbbtIOqxHhBOn1L4cg+ccob
YVnqxsTKMl7J6b8SKebGw2P+oFXaevFgmE0m7fpwLQIDAQABo4IBDjCCAQowCwYD
VR0PBAQDAgWgMAkGA1UdEwQCMAAwEQYJYIZIAYb4QgEBBAQDAgZAMDMGCWCGSAGG
+EIBDQQmFiRPcGVuU1NMIEdlbmVyYXRlZCBTZXJ2ZXIgQ2VydGlmaWNhdGUwHQYD
VR0OBBYEFFM/7V0JB7Nle6tFySRbCXeACpbtMHQGA1UdIwRtMGuAFPSnwMyRRq9k
85HyJ/jIsm+KhzJzoUikRjBEMQswCQYDVQQGEwJERTEPMA0GA1UECAwGSGVzc2Vu
MRQwEgYDVQQKDAtwcml2YWN5aWRlYTEOMAwGA1UEAwwFQ0EwMDGCCQD7yOusg80S
BzATBgNVHSUEDDAKBggrBgEFBQcDATANBgkqhkiG9w0BAQUFAAOCAQEAcQUzH2CU
pA5BhBc3vgjRj/iuMub2HKlrUIx9bTjjjUe5FEN7F2fvL0X6+86wa6UtnMH+vE90
1d6MEeqKpVhB9K1tZdntawzG3+3pc187gk8uNiMi98bHaRToP8hmg0omkKCbOAgK
CybMHHAMT3mdO2lp3WyXgG5kBXWPLZUVU3JBHHASq+imYj/YmRTznsqcvh7/+uKN
nBu+VFS7F6lyXDUSpCqvalag8dFz7vvUOJ0JgWVL4/LKBCrVJ5kbrvIyshYEyzC4
9ZZmsM/tR0Bx20TDTkt1zZNUxnf1hzKL3rjiKyyamxWElQxORFuJAugTxmDcfpfb
DOVLA7U4hph5fw==
-----END CERTIFICATE-----
