Certificate:
    Data:
        Version: 3 (0x2)
        Serial Number: 268435616 (0x100000a0)
    Signature Algorithm: sha1WithRSAEncryption
        Issuer: C=DE, ST=Hessen, O=privacyidea, CN=CA001
        Validity
            Not Before: Aug 18 07:02:33 2015 GMT
            Not After : Aug 17 07:02:33 2016 GMT
        Subject: C=DE, ST=Hessen, O=privacyidea, CN=requester.localdomain
        Subject Public Key Info:
            Public Key Algorithm: rsaEncryption
                Public-Key: (2048 bit)
                Modulus:
                    00:cd:be:14:4f:fa:ce:01:3f:42:22:1b:1d:9c:af:
                    dd:92:d2:7f:db:6c:b7:3e:39:43:43:6b:13:03:f1:
                    05:f4:07:74:bc:76:69:28:0b:af:19:8e:d7:fc:e3:
                    cd:c6:58:f2:ca:7f:08:6d:53:fc:07:02:44:24:c6:
                    b4:34:4c:8c:04:fe:33:0e:40:e2:20:ba:02:73:5a:
                    f7:f5:4f:63:6e:cc:c6:b6:df:54:1d:37:39:7d:51:
                    36:26:5f:bd:dc:3f:a8:8b:6b:a2:ae:b6:9d:d6:21:
                    e7:df:41:b8:7a:28:2a:68:48:ca:a8:2d:ed:e1:e9:
                    46:5e:5a:72:6d:b4:84:38:87:91:fd:94:11:0b:28:
                    84:c6:c2:2f:2a:fb:01:f9:36:7a:09:75:d1:33:88:
                    3c:73:41:5b:c8:bf:94:89:70:a1:f0:c0:b9:2e:50:
                    53:1e:b1:17:64:69:f4:2d:81:e0:a9:0d:0e:32:e9:
                    ba:55:8a:85:f1:1b:6f:49:79:b4:7f:88:c3:0d:3e:
                    54:88:9b:3d:1f:38:8c:04:f3:ee:6a:63:2b:f5:c6:
                    db:b4:83:aa:c4:78:41:3a:7d:4b:e1:c8:3e:71:ca:
                    1b:61:59:ea:c6:c4:ca:32:5e:c9:e9:bf:12:29:e6:
                    c6:c3:63:fe:a0:55:da:7a:f1:60:98:4d:26:ed:fa:
                    70:2d
                Exponent: 65537 (0x10001)
        X509v3 extensions:
            X509v3 Key Usage: 
                Digital Signature, Key Encipherment
            X509v3 Basic Constraints: 
                CA:FALSE
            Netscape Cert Type: 
                SSL Server
            Netscape Comment: 
                OpenSSL Generated Server Certificate
            X509v3 Subject Key Identifier: 
                53:3F:ED:5D:09:07:B3:65:7B:AB:45:C9:24:5B:09:77:80:0A:96:ED
            X509v3 Authority Key Identifier: 
                keyid:F4:A7:C0:CC:91:46:AF:64:F3:91:F2:27:F8:C8:B2:6F:8A:87:32:73
                DirName:/C=DE/ST=Hessen/O=privacyidea/CN=CA001
                serial:FB:C8:EB:AC:83:CD:12:07

            X509v3 Extended Key Usage: 
                TLS Web Server Authentication
    Signature Algorithm: sha1WithRSAEncryption
         1e:cc:a6:1b:32:6a:bd:a2:72:ec:cf:25:f3:94:c9:a3:64:69:
         b2:a4:5c:07:6a:eb:1d:ea:47:73:7a:dc:1d:9c:b4:a4:4f:cc:
         90:96:96:a9:66:ae:f9:11:f5:31:3c:e1:f6:1d:36:07:fd:28:
         e0:8f:e4:cb:38:e2:6d:f1:6f:5b:33:0c:07:34:18:23:3b:30:
         1c:76:5c:16:73:3a:d3:a3:f8:d9:5c:4a:99:1b:61:6b:73:d9:
         c1:7f:c4:29:93:9c:86:83:64:15:ba:fe:c7:51:79:fc:15:1b:
         73:47:95:dc:02:71:90:48:15:e9:7f:e9:f7:d0:d3:48:8f:e5:
         4c:49:e4:de:66:76:bc:d3:93:a7:a6:a7:2e:93:ba:bb:10:66:
         69:57:85:ae:27:b1:c5:62:20:a5:a7:da:9e:f7:d2:a9:2b:a6:
         c6:fc:3d:03:a5:03:43:83:25:e9:42:d7:a7:4d:87:e7:d2:b3:
         e5:40:db:cc:a5:34:e9:6a:55:a8:e0:a9:c3:4a:df:3b:99:3e:
         fb:fb:c1:d8:cb:98:e1:13:72:c2:ea:9f:35:8a:0b:9a:87:6e:
         93:db:30:08:05:7a:65:a8:d4:43:83:82:6e:54:44:62:bc:79:
         57:a7:50:63:e1:17:78:fe:9c:f0:5e:1d:06:d1:c2:89:df:d1:
         e6:fd:f3:c0
-----BEGIN CERTIFICATE-----
MIIEJjCCAw6gAwIBAgIEEAAAoDANBgkqhkiG9w0BAQUFADBEMQswCQYDVQQGEwJE
RTEPMA0GA1UECAwGSGVzc2VuMRQwEgYDVQQKDAtwcml2YWN5aWRlYTEOMAwGA1UE
AwwFQ0EwMDEwHhcNMTUwODE4MDcwMjMzWhcNMTYwODE3MDcwMjMzWjBUMQswCQYD
VQQGEwJERTEPMA0GA1UECAwGSGVzc2VuMRQwEgYDVQQKDAtwcml2YWN5aWRlYTEe
MBwGA1UEAwwVcmVxdWVzdGVyLmxvY2FsZG9tYWluMIIBIjANBgkqhkiG9w0BAQEF
AAOCAQ8AMIIBCgKCAQEAzb4UT/rOAT9CIhsdnK/dktJ/22y3PjlDQ2sTA/EF9Ad0
vHZpKAuvGY7X/OPNxljyyn8IbVP8BwJEJMa0NEyMBP4zDkDiILoCc1r39U9jbszG
tt9UHTc5fVE2Jl+93D+oi2uirrad1iHn30G4eigqaEjKqC3t4elGXlpybbSEOIeR
/ZQRCyiExsIvKvsB+TZ6CXXRM4g8c0FbyL+UiXCh8MC5LlBTHrEXZGn0LYHgqQ0O
Mum6VYqF8RtvSXm0f4jDDT5UiJs9HziMBPPuamMr9cbbtIOqxHhBOn1L4cg+ccob
YVnqxsTKMl7J6b8SKebGw2P+oFXaevFgmE0m7fpwLQIDAQABo4IBDjCCAQowCwYD
VR0PBAQDAgWgMAkGA1UdEwQCMAAwEQYJYIZIAYb4QgEBBAQDAgZAMDMGCWCGSAGG
+EIBDQQmFiRPcGVuU1NMIEdlbmVyYXRlZCBTZXJ2ZXIgQ2VydGlmaWNhdGUwHQYD
VR0OBBYEFFM/7V0JB7Nle6tFySRbCXeACpbtMHQGA1UdIwRtMGuAFPSnwMyRRq9k
85HyJ/jIsm+KhzJzoUikRjBEMQswCQYDVQQGEwJERTEPMA0GA1UECAwGSGVzc2Vu
MRQwEgYDVQQKDAtwcml2YWN5aWRlYTEOMAwGA1UEAwwFQ0EwMDGCCQD7yOusg80S
BzATBgNVHSUEDDAKBggrBgEFBQcDATANBgkqhkiG9w0BAQUFAAOCAQEAHsymGzJq
vaJy7M8l85TJo2RpsqRcB2rrHepHc3rcHZy0pE/MkJaWqWau+RH1MTzh9h02B/0o
4I/kyzjibfFvWzMMBzQYIzswHHZcFnM606P42VxKmRtha3PZwX/EKZOchoNkFbr+
x1F5/BUbc0eV3AJxkEgV6X/p99DTSI/lTEnk3mZ2vNOTp6anLpO6uxBmaVeFriex
xWIgpafanvfSqSumxvw9A6UDQ4Ml6ULXp02H59Kz5UDbzKU06WpVqOCpw0rfO5k+
+/vB2MuY4RNywuqfNYoLmoduk9swCAV6ZajUQ4OCblREYrx5V6dQY+EXeP6c8F4d
BtHCid/R5v3zwA==
-----END CERTIFICATE-----
