Certificate:
    Data:
        Version: 3 (0x2)
        Serial Number: 268435609 (0x10000099)
    Signature Algorithm: sha1WithRSAEncryption
        Issuer: C=DE, ST=Hessen, O=privacyidea, CN=CA001
        Validity
            Not Before: Aug 17 21:11:03 2015 GMT
            Not After : Aug 16 21:11:03 2016 GMT
        Subject: C=DE, ST=Hessen, O=privacyidea, CN=usercert
        Subject Public Key Info:
            Public Key Algorithm: rsaEncryption
                Public-Key: (2048 bit)
                Modulus:
                    00:dc:2f:d1:5f:29:97:d4:7c:c3:53:c8:30:bd:4b:
                    67:70:2c:24:6b:b8:5e:eb:21:7a:48:12:56:7c:81:
                    5c:48:75:b6:68:eb:f6:f2:98:4e:50:51:d1:7f:6c:
                    73:f3:0a:a7:ae:be:48:5e:e5:d6:e1:d9:2a:7c:32:
                    6e:4e:fd:08:f6:5a:54:49:23:73:c3:b9:07:18:d1:
                    ef:b3:ac:f8:8a:dc:94:96:a4:90:3a:8e:74:df:e6:
                    0d:37:1b:bd:5b:b7:25:1a:56:39:da:6f:91:aa:5e:
                    1c:74:f3:f9:7c:14:01:83:12:65:76:c7:bb:fe:36:
                    5b:95:e9:72:65:83:ed:3e:98:30:71:fa:87:dd:a3:
                    36:5a:30:03:2e:26:e0:61:d1:bf:02:3f:b6:06:1f:
                    4a:89:28:1c:5c:a2:ff:4e:be:94:e6:8c:e0:da:82:
                    f1:9d:29:32:48:30:73:b4:04:f6:42:1e:be:f7:e2:
                    32:32:27:3c:9d:89:2f:70:3e:85:9a:6f:5c:c5:09:
                    c0:8c:32:2f:72:22:c9:d2:95:1f:b6:ac:72:60:72:
                    b7:82:4d:6b:ce:5b:e3:00:d0:d2:2f:58:c6:e0:10:
                    e5:51:ca:4d:3b:2e:e6:7e:ab:84:d6:56:f1:93:35:
                    a0:93:64:26:81:75:2f:91:b5:16:06:38:0b:db:cc:
                    2d:07
                Exponent: 65537 (0x10001)
        X509v3 extensions:
            X509v3 Key Usage: 
                Digital Signature, Key Encipherment
            X509v3 Basic Constraints: 
                CA:FALSE
            Netscape Cert Type: 
                SSL Server
            Netscape Comment: 
                OpenSSL Generated Server Certificate
            X509v3 Subject Key Identifier: 
                FC:14:D1:F0:4B:8D:00:90:F2:F5:B8:71:9E:4E:97:C3:92:54:AD:0B
            X509v3 Authority Key Identifier: 
                keyid:F4:A7:C0:CC:91:46:AF:64:F3:91:F2:27:F8:C8:B2:6F:8A:87:32:73
                DirName:/C=DE/ST=Hessen/O=privacyidea/CN=CA001
                serial:FB:C8:EB:AC:83:CD:12:07

            X509v3 Extended Key Usage: 
                TLS Web Server Authentication
    Signature Algorithm: sha1WithRSAEncryption
         15:d7:13:d2:06:0a:ee:3b:2c:4d:ed:9a:c2:1b:21:dd:b2:bd:
         72:c2:43:da:1f:31:2e:84:7c:fe:df:3a:9e:87:33:d3:09:e7:
         f1:9d:0b:86:9c:9e:c9:8c:be:54:a4:5a:ac:7c:a1:08:40:b9:
         aa:12:6f:4b:d6:23:db:f7:3a:b5:8c:41:27:c7:da:d5:c4:76:
         e4:59:fa:6a:49:20:63:48:ab:76:a7:d5:df:1b:5f:cf:8a:6e:
         27:86:04:47:ee:6a:5e:e0:d8:d7:2d:63:65:02:0f:2e:3c:b5:
         df:d1:57:f6:b8:5a:39:6d:23:d7:d9:a1:6a:3a:d8:89:10:80:
         3d:16:fd:f7:2b:5f:08:7f:6b:72:11:70:ef:20:9a:f2:f7:7c:
         f2:3d:b0:dc:7c:b5:47:cf:bc:cd:8d:9c:18:12:3d:0b:74:8a:
         14:65:a4:39:f0:5e:92:4f:4e:d3:48:2e:2c:51:3f:fe:76:d5:
         16:3c:c3:e7:96:14:13:ee:c2:4b:03:d1:f5:55:29:c1:03:1a:
         05:ea:c9:54:77:14:0d:48:ce:65:97:5c:62:c6:d1:6a:88:c5:
         3e:57:7a:ba:54:75:c5:50:72:13:0f:83:6a:d9:ef:b4:26:bb:
         9a:1d:e5:11:50:59:77:62:82:5a:c5:06:53:5c:3b:24:81:71:
         86:f0:e8:d7
-----BEGIN CERTIFICATE-----
MIIEGTCCAwGgAwIBAgIEEAAAmTANBgkqhkiG9w0BAQUFADBEMQswCQYDVQQGEwJE
RTEPMA0GA1UECAwGSGVzc2VuMRQwEgYDVQQKDAtwcml2YWN5aWRlYTEOMAwGA1UE
AwwFQ0EwMDEwHhcNMTUwODE3MjExMTAzWhcNMTYwODE2MjExMTAzWjBHMQswCQYD
VQQGEwJERTEPMA0GA1UECAwGSGVzc2VuMRQwEgYDVQQKDAtwcml2YWN5aWRlYTER
MA8GA1UEAwwIdXNlcmNlcnQwggEiMA0GCSqGSIb3DQEBAQUAA4IBDwAwggEKAoIB
AQDcL9FfKZfUfMNTyDC9S2dwLCRruF7rIXpIElZ8gVxIdbZo6/bymE5QUdF/bHPz
Cqeuvkhe5dbh2Sp8Mm5O/Qj2WlRJI3PDuQcY0e+zrPiK3JSWpJA6jnTf5g03G71b
tyUaVjnab5GqXhx08/l8FAGDEmV2x7v+NluV6XJlg+0+mDBx+ofdozZaMAMuJuBh
0b8CP7YGH0qJKBxcov9OvpTmjODagvGdKTJIMHO0BPZCHr734jIyJzydiS9wPoWa
b1zFCcCMMi9yIsnSlR+2rHJgcreCTWvOW+MA0NIvWMbgEOVRyk07LuZ+q4TWVvGT
NaCTZCaBdS+RtRYGOAvbzC0HAgMBAAGjggEOMIIBCjALBgNVHQ8EBAMCBaAwCQYD
VR0TBAIwADARBglghkgBhvhCAQEEBAMCBkAwMwYJYIZIAYb4QgENBCYWJE9wZW5T
U0wgR2VuZXJhdGVkIFNlcnZlciBDZXJ0aWZpY2F0ZTAdBgNVHQ4EFgQU/BTR8EuN
AJDy9bhxnk6Xw5JUrQswdAYDVR0jBG0wa4AU9KfAzJFGr2TzkfIn+Miyb4qHMnOh
SKRGMEQxCzAJBgNVBAYTAkRFMQ8wDQYDVQQIDAZIZXNzZW4xFDASBgNVBAoMC3By
aXZhY3lpZGVhMQ4wDAYDVQQDDAVDQTAwMYIJAPvI66yDzRIHMBMGA1UdJQQMMAoG
CCsGAQUFBwMBMA0GCSqGSIb3DQEBBQUAA4IBAQAV1xPSBgruOyxN7ZrCGyHdsr1y
wkPaHzEuhHz+3zqehzPTCefxnQuGnJ7JjL5UpFqsfKEIQLmqEm9L1iPb9zq1jEEn
x9rVxHbkWfpqSSBjSKt2p9XfG1/Pim4nhgRH7mpe4NjXLWNlAg8uPLXf0Vf2uFo5
bSPX2aFqOtiJEIA9Fv33K18If2tyEXDvIJry93zyPbDcfLVHz7zNjZwYEj0LdIoU
ZaQ58F6ST07TSC4sUT/+dtUWPMPnlhQT7sJLA9H1VSnBAxoF6slUdxQNSM5ll1xi
xtFqiMU+V3q6VHXFUHITD4Nq2e+0JruaHeURUFl3YoJaxQZTXDskgXGG8OjX
-----END CERTIFICATE-----
