Certificate:
    Data:
        Version: 3 (0x2)
        Serial Number: 268435618 (0x100000a2)
    Signature Algorithm: sha1WithRSAEncryption
        Issuer: C=DE, ST=Hessen, O=privacyidea, CN=CA001
        Validity
            Not Before: Aug 18 07:13:25 2015 GMT
            Not After : Aug 17 07:13:25 2016 GMT
        Subject: C=DE, ST=Hessen, O=privacyidea, CN=requester.localdomain
        Subject Public Key Info:
            Public Key Algorithm: rsaEncryption
                Public-Key: (2048 bit)
                Modulus:
                    00:cd:be:14:4f:fa:ce:01:3f:42:22:1b:1d:9c:af:
                    dd:92:d2:7f:db:6c:b7:3e:39:43:43:6b:13:03:f1:
                    05:f4:07:74:bc:76:69:28:0b:af:19:8e:d7:fc:e3:
                    cd:c6:58:f2:ca:7f:08:6d:53:fc:07:02:44:24:c6:
                    b4:34:4c:8c:04:fe:33:0e:40:e2:20:ba:02:73:5a:
                    f7:f5:4f:63:6e:cc:c6:b6:df:54:1d:37:39:7d:51:
                    36:26:5f:bd:dc:3f:a8:8b:6b:a2:ae:b6:9d:d6:21:
                    e7:df:41:b8:7a:28:2a:68:48:ca:a8:2d:ed:e1:e9:
                    46:5e:5a:72:6d:b4:84:38:87:91:fd:94:11:0b:28:
                    84:c6:c2:2f:2a:fb:01:f9:36:7a:09:75:d1:33:88:
                    3c:73:41:5b:c8:bf:94:89:70:a1:f0:c0:b9:2e:50:
                    53:1e:b1:17:64:69:f4:2d:81:e0:a9:0d:0e:32:e9:
                    ba:55:8a:85:f1:1b:6f:49:79:b4:7f:88:c3:0d:3e:
                    54:88:9b:3d:1f:38:8c:04:f3:ee:6a:63:2b:f5:c6:
                    db:b4:83:aa:c4:78:41:3a:7d:4b:e1:c8:3e:71:ca:
                    1b:61:59:ea:c6:c4:ca:32:5e:c9:e9:bf:12:29:e6:
                    c6:c3:63:fe:a0:55:da:7a:f1:60:98:4d:26:ed:fa:
                    70:2d
                Exponent: 65537 (0x10001)
        X509v3 extensions:
            X509v3 Key Usage: 
                Digital Signature, Key Encipherment
            X509v3 Basic Constraints: 
                CA:FALSE
            Netscape Cert Type: 
                SSL Server
            Netscape Comment: 
                OpenSSL Generated Server Certificate
            X509v3 Subject Key Identifier: 
                53:3F:ED:5D:09:07:B3:65:7B:AB:45:C9:24:5B:09:77:80:0A:96:ED
            X509v3 Authority Key Identifier: 
                keyid:F4:A7:C0:CC:91:46:AF:64:F3:91:F2:27:F8:C8:B2:6F:8A:87:32:73
                DirName:/C=DE/ST=Hessen/O=privacyidea/CN=CA001
                serial:FB:C8:EB:AC:83:CD:12:07

            X509v3 Extended Key Usage: 
                TLS Web Server Authentication
    Signature Algorithm: sha1WithRSAEncryption
         2f:5a:96:44:d8:35:2e:f5:36:07:6d:d3:a1:9e:75:ad:24:b4:
         a7:38:95:78:b7:a7:ee:c8:6e:41:0f:bd:ee:7d:ab:7d:7d:58:
         2e:5e:ed:06:dd:9d:ca:d7:c0:52:e3:fe:c1:c2:20:74:7c:b0:
         dd:e0:03:95:29:34:b7:79:9c:4e:f5:1b:de:d9:e2:46:cc:a4:
         23:ab:14:a5:95:80:86:ae:43:36:71:7a:3c:89:3e:c4:47:17:
         17:b5:f8:37:6d:39:f2:aa:89:c4:4a:5b:86:8d:5c:ed:c8:b7:
         45:13:7c:6c:f3:c4:a1:65:e1:ab:e7:20:0d:aa:c7:cc:91:d5:
         b8:5b:0e:d6:92:08:93:a7:d7:d2:09:10:e9:a1:af:8e:12:b9:
         db:16:58:4d:66:de:f5:18:ab:2c:be:31:65:0a:78:c7:67:b9:
         0e:32:9e:3f:35:38:0a:dd:9c:97:18:bb:87:2b:1e:4b:94:a4:
         d1:84:b2:f8:35:b2:a5:26:15:84:10:8a:e7:81:4d:21:39:aa:
         8f:4d:1b:a7:d5:cc:f8:b6:27:8d:76:74:82:9b:92:78:c5:db:
         24:26:8e:66:d0:54:a3:ee:0c:51:2a:b5:79:e8:3b:ce:44:c8:
         af:c7:4d:da:e8:e2:23:c8:c9:9c:b9:68:5b:52:d0:cf:c2:e5:
         97:31:83:31
-----BEGIN CERTIFICATE-----
MIIEJjCCAw6gAwIBAgIEEAAAojANBgkqhkiG9w0BAQUFADBEMQswCQYDVQQGEwJE
RTEPMA0GA1UECAwGSGVzc2VuMRQwEgYDVQQKDAtwcml2YWN5aWRlYTEOMAwGA1UE
AwwFQ0EwMDEwHhcNMTUwODE4MDcxMzI1WhcNMTYwODE3MDcxMzI1WjBUMQswCQYD
VQQGEwJERTEPMA0GA1UECAwGSGVzc2VuMRQwEgYDVQQKDAtwcml2YWN5aWRlYTEe
MBwGA1UEAwwVcmVxdWVzdGVyLmxvY2FsZG9tYWluMIIBIjANBgkqhkiG9w0BAQEF
AAOCAQ8AMIIBCgKCAQEAzb4UT/rOAT9CIhsdnK/dktJ/22y3PjlDQ2sTA/EF9Ad0
vHZpKAuvGY7X/OPNxljyyn8IbVP8BwJEJMa0NEyMBP4zDkDiILoCc1r39U9jbszG
tt9UHTc5fVE2Jl+93D+oi2uirrad1iHn30G4eigqaEjKqC3t4elGXlpybbSEOIeR
/ZQRCyiExsIvKvsB+TZ6CXXRM4g8c0FbyL+UiXCh8MC5LlBTHrEXZGn0LYHgqQ0O
Mum6VYqF8RtvSXm0f4jDDT5UiJs9HziMBPPuamMr9cbbtIOqxHhBOn1L4cg+ccob
YVnqxsTKMl7J6b8SKebGw2P+oFXaevFgmE0m7fpwLQIDAQABo4IBDjCCAQowCwYD
VR0PBAQDAgWgMAkGA1UdEwQCMAAwEQYJYIZIAYb4QgEBBAQDAgZAMDMGCWCGSAGG
+EIBDQQmFiRPcGVuU1NMIEdlbmVyYXRlZCBTZXJ2ZXIgQ2VydGlmaWNhdGUwHQYD
VR0OBBYEFFM/7V0JB7Nle6tFySRbCXeACpbtMHQGA1UdIwRtMGuAFPSnwMyRRq9k
85HyJ/jIsm+KhzJzoUikRjBEMQswCQYDVQQGEwJERTEPMA0GA1UECAwGSGVzc2Vu
MRQwEgYDVQQKDAtwcml2YWN5aWRlYTEOMAwGA1UEAwwFQ0EwMDGCCQD7yOusg80S
BzATBgNVHSUEDDAKBggrBgEFBQcDATANBgkqhkiG9w0BAQUFAAOCAQEAL1qWRNg1
LvU2B23ToZ51rSS0pziVeLen7shuQQ+97n2rfX1YLl7tBt2dytfAUuP+wcIgdHyw
3eADlSk0t3mcTvUb3tniRsykI6sUpZWAhq5DNnF6PIk+xEcXF7X4N2058qqJxEpb
ho1c7ci3RRN8bPPEoWXhq+cgDarHzJHVuFsO1pIIk6fX0gkQ6aGvjhK52xZYTWbe
9RirLL4xZQp4x2e5DjKePzU4Ct2clxi7hyseS5Sk0YSy+DWypSYVhBCK54FNITmq
j00bp9XM+LYnjXZ0gpuSeMXbJCaOZtBUo+4MUSq1eeg7zkTIr8dN2ujiI8jJnLlo
W1LQz8LllzGDMQ==
-----END CERTIFICATE-----
