Certificate:
    Data:
        Version: 3 (0x2)
        Serial Number: 268435623 (0x100000a7)
    Signature Algorithm: sha1WithRSAEncryption
        Issuer: C=DE, ST=Hessen, O=privacyidea, CN=CA001
        Validity
            Not Before: Aug 18 07:19:15 2015 GMT
            Not After : Aug 17 07:19:15 2016 GMT
        Subject: C=DE, ST=Hessen, O=privacyidea, CN=usercert
        Subject Public Key Info:
            Public Key Algorithm: rsaEncryption
                Public-Key: (2048 bit)
                Modulus:
                    00:dc:2f:d1:5f:29:97:d4:7c:c3:53:c8:30:bd:4b:
                    67:70:2c:24:6b:b8:5e:eb:21:7a:48:12:56:7c:81:
                    5c:48:75:b6:68:eb:f6:f2:98:4e:50:51:d1:7f:6c:
                    73:f3:0a:a7:ae:be:48:5e:e5:d6:e1:d9:2a:7c:32:
                    6e:4e:fd:08:f6:5a:54:49:23:73:c3:b9:07:18:d1:
                    ef:b3:ac:f8:8a:dc:94:96:a4:90:3a:8e:74:df:e6:
                    0d:37:1b:bd:5b:b7:25:1a:56:39:da:6f:91:aa:5e:
                    1c:74:f3:f9:7c:14:01:83:12:65:76:c7:bb:fe:36:
                    5b:95:e9:72:65:83:ed:3e:98:30:71:fa:87:dd:a3:
                    36:5a:30:03:2e:26:e0:61:d1:bf:02:3f:b6:06:1f:
                    4a:89:28:1c:5c:a2:ff:4e:be:94:e6:8c:e0:da:82:
                    f1:9d:29:32:48:30:73:b4:04:f6:42:1e:be:f7:e2:
                    32:32:27:3c:9d:89:2f:70:3e:85:9a:6f:5c:c5:09:
                    c0:8c:32:2f:72:22:c9:d2:95:1f:b6:ac:72:60:72:
                    b7:82:4d:6b:ce:5b:e3:00:d0:d2:2f:58:c6:e0:10:
                    e5:51:ca:4d:3b:2e:e6:7e:ab:84:d6:56:f1:93:35:
                    a0:93:64:26:81:75:2f:91:b5:16:06:38:0b:db:cc:
                    2d:07
                Exponent: 65537 (0x10001)
        X509v3 extensions:
            X509v3 Key Usage: 
                Digital Signature, Key Encipherment
            X509v3 Basic Constraints: 
                CA:FALSE
            Netscape Cert Type: 
                SSL Server
            Netscape Comment: 
                OpenSSL Generated Server Certificate
            X509v3 Subject Key Identifier: 
                FC:14:D1:F0:4B:8D:00:90:F2:F5:B8:71:9E:4E:97:C3:92:54:AD:0B
            X509v3 Authority Key Identifier: 
                keyid:F4:A7:C0:CC:91:46:AF:64:F3:91:F2:27:F8:C8:B2:6F:8A:87:32:73
                DirName:/C=DE/ST=Hessen/O=privacyidea/CN=CA001
                serial:FB:C8:EB:AC:83:CD:12:07

            X509v3 Extended Key Usage: 
                TLS Web Server Authentication
    Signature Algorithm: sha1WithRSAEncryption
         47:e3:c6:a1:57:d6:7f:34:99:70:ea:23:43:4f:59:91:4d:f2:
         b1:c6:07:3f:11:88:db:f0:05:a0:82:74:8b:4e:c0:67:b8:02:
         7b:0e:66:c8:b8:08:2a:d2:09:25:88:03:75:0d:b7:d8:cc:e6:
         7f:0a:da:32:21:e3:3b:c0:e0:22:6d:a0:85:ba:40:07:6e:1b:
         dd:9b:9c:ae:32:42:41:9c:ef:3e:33:87:94:a7:88:87:4d:9e:
         b6:10:3e:b8:64:9d:f8:37:b5:15:96:ca:7a:97:99:fe:30:af:
         db:94:6a:34:3f:fe:bd:85:32:1b:2d:bd:75:51:13:d0:b8:40:
         58:c0:f0:7a:a4:ec:c9:99:e3:34:6c:48:1d:4b:dd:13:f1:1f:
         be:fd:e5:c4:82:c9:8a:48:1d:0b:89:9c:71:c2:db:0c:62:bf:
         c7:7e:e6:09:58:b8:7c:a4:d0:88:29:67:41:ee:4c:c0:ac:dd:
         bf:7d:49:05:7c:56:d1:d7:15:cf:dc:24:f4:04:38:56:bc:b8:
         42:bf:a9:11:1f:4a:45:ef:56:15:00:af:3c:66:34:87:f4:b1:
         2e:7f:f3:ec:99:7d:d7:14:4e:b1:56:6a:65:51:19:a5:70:a6:
         6a:42:94:2a:5b:a0:f6:db:91:94:ea:07:a2:f5:e0:49:ce:0a:
         80:5c:04:9e
-----BEGIN CERTIFICATE-----
MIIEGTCCAwGgAwIBAgIEEAAApzANBgkqhkiG9w0BAQUFADBEMQswCQYDVQQGEwJE
RTEPMA0GA1UECAwGSGVzc2VuMRQwEgYDVQQKDAtwcml2YWN5aWRlYTEOMAwGA1UE
AwwFQ0EwMDEwHhcNMTUwODE4MDcxOTE1WhcNMTYwODE3MDcxOTE1WjBHMQswCQYD
VQQGEwJERTEPMA0GA1UECAwGSGVzc2VuMRQwEgYDVQQKDAtwcml2YWN5aWRlYTER
MA8GA1UEAwwIdXNlcmNlcnQwggEiMA0GCSqGSIb3DQEBAQUAA4IBDwAwggEKAoIB
AQDcL9FfKZfUfMNTyDC9S2dwLCRruF7rIXpIElZ8gVxIdbZo6/bymE5QUdF/bHPz
Cqeuvkhe5dbh2Sp8Mm5O/Qj2WlRJI3PDuQcY0e+zrPiK3JSWpJA6jnTf5g03G71b
tyUaVjnab5GqXhx08/l8FAGDEmV2x7v+NluV6XJlg+0+mDBx+ofdozZaMAMuJuBh
0b8CP7YGH0qJKBxcov9OvpTmjODagvGdKTJIMHO0BPZCHr734jIyJzydiS9wPoWa
b1zFCcCMMi9yIsnSlR+2rHJgcreCTWvOW+MA0NIvWMbgEOVRyk07LuZ+q4TWVvGT
NaCTZCaBdS+RtRYGOAvbzC0HAgMBAAGjggEOMIIBCjALBgNVHQ8EBAMCBaAwCQYD
VR0TBAIwADARBglghkgBhvhCAQEEBAMCBkAwMwYJYIZIAYb4QgENBCYWJE9wZW5T
U0wgR2VuZXJhdGVkIFNlcnZlciBDZXJ0aWZpY2F0ZTAdBgNVHQ4EFgQU/BTR8EuN
AJDy9bhxnk6Xw5JUrQswdAYDVR0jBG0wa4AU9KfAzJFGr2TzkfIn+Miyb4qHMnOh
SKRGMEQxCzAJBgNVBAYTAkRFMQ8wDQYDVQQIDAZIZXNzZW4xFDASBgNVBAoMC3By
aXZhY3lpZGVhMQ4wDAYDVQQDDAVDQTAwMYIJAPvI66yDzRIHMBMGA1UdJQQMMAoG
CCsGAQUFBwMBMA0GCSqGSIb3DQEBBQUAA4IBAQBH48ahV9Z/NJlw6iNDT1mRTfKx
xgc/EYjb8AWggnSLTsBnuAJ7DmbIuAgq0gkliAN1DbfYzOZ/CtoyIeM7wOAibaCF
ukAHbhvdm5yuMkJBnO8+M4eUp4iHTZ62ED64ZJ34N7UVlsp6l5n+MK/blGo0P/69
hTIbLb11URPQuEBYwPB6pOzJmeM0bEgdS90T8R++/eXEgsmKSB0LiZxxwtsMYr/H
fuYJWLh8pNCIKWdB7kzArN2/fUkFfFbR1xXP3CT0BDhWvLhCv6kRH0pF71YVAK88
ZjSH9LEuf/PsmX3XFE6xVmplURmlcKZqQpQqW6D225GU6gei9eBJzgqAXASe
-----END CERTIFICATE-----
