Certificate:
    Data:
        Version: 3 (0x2)
        Serial Number: 268435613 (0x1000009d)
    Signature Algorithm: sha1WithRSAEncryption
        Issuer: C=DE, ST=Hessen, O=privacyidea, CN=CA001
        Validity
            Not Before: Aug 18 06:56:15 2015 GMT
            Not After : Aug 17 06:56:15 2016 GMT
        Subject: C=DE, ST=Hessen, O=privacyidea, CN=requester.localdomain
        Subject Public Key Info:
            Public Key Algorithm: rsaEncryption
                Public-Key: (2048 bit)
                Modulus:
                    00:cd:be:14:4f:fa:ce:01:3f:42:22:1b:1d:9c:af:
                    dd:92:d2:7f:db:6c:b7:3e:39:43:43:6b:13:03:f1:
                    05:f4:07:74:bc:76:69:28:0b:af:19:8e:d7:fc:e3:
                    cd:c6:58:f2:ca:7f:08:6d:53:fc:07:02:44:24:c6:
                    b4:34:4c:8c:04:fe:33:0e:40:e2:20:ba:02:73:5a:
                    f7:f5:4f:63:6e:cc:c6:b6:df:54:1d:37:39:7d:51:
                    36:26:5f:bd:dc:3f:a8:8b:6b:a2:ae:b6:9d:d6:21:
                    e7:df:41:b8:7a:28:2a:68:48:ca:a8:2d:ed:e1:e9:
                    46:5e:5a:72:6d:b4:84:38:87:91:fd:94:11:0b:28:
                    84:c6:c2:2f:2a:fb:01:f9:36:7a:09:75:d1:33:88:
                    3c:73:41:5b:c8:bf:94:89:70:a1:f0:c0:b9:2e:50:
                    53:1e:b1:17:64:69:f4:2d:81:e0:a9:0d:0e:32:e9:
                    ba:55:8a:85:f1:1b:6f:49:79:b4:7f:88:c3:0d:3e:
                    54:88:9b:3d:1f:38:8c:04:f3:ee:6a:63:2b:f5:c6:
                    db:b4:83:aa:c4:78:41:3a:7d:4b:e1:c8:3e:71:ca:
                    1b:61:59:ea:c6:c4:ca:32:5e:c9:e9:bf:12:29:e6:
                    c6:c3:63:fe:a0:55:da:7a:f1:60:98:4d:26:ed:fa:
                    70:2d
                Exponent: 65537 (0x10001)
        X509v3 extensions:
            X509v3 Key Usage: 
                Digital Signature, Key Encipherment
            X509v3 Basic Constraints: 
                CA:FALSE
            Netscape Cert Type: 
                SSL Server
            Netscape Comment: 
                OpenSSL Generated Server Certificate
            X509v3 Subject Key Identifier: 
                53:3F:ED:5D:09:07:B3:65:7B:AB:45:C9:24:5B:09:77:80:0A:96:ED
            X509v3 Authority Key Identifier: 
                keyid:F4:A7:C0:CC:91:46:AF:64:F3:91:F2:27:F8:C8:B2:6F:8A:87:32:73
                DirName:/C=DE/ST=Hessen/O=privacyidea/CN=CA001
                serial:FB:C8:EB:AC:83:CD:12:07

            X509v3 Extended Key Usage: 
                TLS Web Server Authentication
    Signature Algorithm: sha1WithRSAEncryption
         35:03:fa:56:11:81:9d:31:aa:29:80:fd:10:e9:f8:1b:4a:62:
         63:14:6e:15:dd:df:cb:7f:a3:44:7b:62:51:36:c6:9e:63:67:
         6e:6d:48:65:bf:1a:bb:4b:6d:11:20:9b:47:a3:e1:3b:96:57:
         23:49:bf:b3:a1:6c:ec:9b:0d:a5:68:c3:82:a1:b7:cd:12:77:
         72:8a:f8:9c:a5:26:9e:8b:9b:ed:3a:88:21:ea:25:07:af:e3:
         62:c3:2d:e7:b3:87:8c:06:1f:96:d2:5e:f0:eb:6d:7d:9b:ef:
         6c:4e:b5:3b:82:e6:30:71:72:7f:da:cf:93:3f:92:d1:bb:ab:
         27:87:e5:bc:14:95:bd:35:a0:cd:83:5c:e9:a7:1d:9d:11:b2:
         a2:d3:92:aa:43:17:fe:20:29:cb:dd:df:06:b3:c1:1f:83:3c:
         f4:27:aa:d0:1b:55:f1:66:6d:d1:ad:a5:a4:99:d0:5f:ba:60:
         19:45:3c:11:5e:09:b9:7f:44:d6:ac:5f:6c:95:c5:87:80:80:
         f4:22:55:03:f4:c6:3c:88:9a:75:e1:ab:61:a7:b6:b6:c3:a2:
         db:52:77:ff:dd:0a:c1:f5:b4:f9:fc:b3:f8:14:d5:9e:81:5c:
         51:76:bf:fe:54:cc:7e:1e:5a:1a:b5:77:26:60:5e:ef:21:c6:
         77:bb:01:d4
-----BEGIN CERTIFICATE-----
MIIEJjCCAw6gAwIBAgIEEAAAnTANBgkqhkiG9w0BAQUFADBEMQswCQYDVQQGEwJE
RTEPMA0GA1UECAwGSGVzc2VuMRQwEgYDVQQKDAtwcml2YWN5aWRlYTEOMAwGA1UE
AwwFQ0EwMDEwHhcNMTUwODE4MDY1NjE1WhcNMTYwODE3MDY1NjE1WjBUMQswCQYD
VQQGEwJERTEPMA0GA1UECAwGSGVzc2VuMRQwEgYDVQQKDAtwcml2YWN5aWRlYTEe
MBwGA1UEAwwVcmVxdWVzdGVyLmxvY2FsZG9tYWluMIIBIjANBgkqhkiG9w0BAQEF
AAOCAQ8AMIIBCgKCAQEAzb4UT/rOAT9CIhsdnK/dktJ/22y3PjlDQ2sTA/EF9Ad0
vHZpKAuvGY7X/OPNxljyyn8IbVP8BwJEJMa0NEyMBP4zDkDiILoCc1r39U9jbszG
tt9UHTc5fVE2Jl+93D+oi2uirrad1iHn30G4eigqaEjKqC3t4elGXlpybbSEOIeR
/ZQRCyiExsIvKvsB+TZ6CXXRM4g8c0FbyL+UiXCh8MC5LlBTHrEXZGn0LYHgqQ0O
Mum6VYqF8RtvSXm0f4jDDT5UiJs9HziMBPPuamMr9cbbtIOqxHhBOn1L4cg+ccob
YVnqxsTKMl7J6b8SKebGw2P+oFXaevFgmE0m7fpwLQIDAQABo4IBDjCCAQowCwYD
VR0PBAQDAgWgMAkGA1UdEwQCMAAwEQYJYIZIAYb4QgEBBAQDAgZAMDMGCWCGSAGG
+EIBDQQmFiRPcGVuU1NMIEdlbmVyYXRlZCBTZXJ2ZXIgQ2VydGlmaWNhdGUwHQYD
VR0OBBYEFFM/7V0JB7Nle6tFySRbCXeACpbtMHQGA1UdIwRtMGuAFPSnwMyRRq9k
85HyJ/jIsm+KhzJzoUikRjBEMQswCQYDVQQGEwJERTEPMA0GA1UECAwGSGVzc2Vu
MRQwEgYDVQQKDAtwcml2YWN5aWRlYTEOMAwGA1UEAwwFQ0EwMDGCCQD7yOusg80S
BzATBgNVHSUEDDAKBggrBgEFBQcDATANBgkqhkiG9w0BAQUFAAOCAQEANQP6VhGB
nTGqKYD9EOn4G0piYxRuFd3fy3+jRHtiUTbGnmNnbm1IZb8au0ttESCbR6PhO5ZX
I0m/s6Fs7JsNpWjDgqG3zRJ3cor4nKUmnoub7TqIIeolB6/jYsMt57OHjAYfltJe
8OttfZvvbE61O4LmMHFyf9rPkz+S0burJ4flvBSVvTWgzYNc6acdnRGyotOSqkMX
/iApy93fBrPBH4M89Ceq0BtV8WZt0a2lpJnQX7pgGUU8EV4JuX9E1qxfbJXFh4CA
9CJVA/TGPIiadeGrYae2tsOi21J3/90KwfW0+fyz+BTVnoFcUXa//lTMfh5aGrV3
JmBe7yHGd7sB1A==
-----END CERTIFICATE-----
