Certificate:
    Data:
        Version: 3 (0x2)
        Serial Number: 268435624 (0x100000a8)
    Signature Algorithm: sha1WithRSAEncryption
        Issuer: C=DE, ST=Hessen, O=privacyidea, CN=CA001
        Validity
            Not Before: Aug 18 07:19:15 2015 GMT
            Not After : Aug 17 07:19:15 2016 GMT
        Subject: CN=Steve Test/emailAddress=steve@openssl.org
        Subject Public Key Info:
            Public Key Algorithm: rsaEncryption
                Public-Key: (2048 bit)
                Modulus:
                    00:d2:81:89:20:51:48:0f:73:f4:11:32:24:d5:1f:
                    1c:fd:5c:f5:b6:e6:c5:f0:52:81:dc:d2:af:66:4a:
                    7c:93:31:61:5c:af:d1:6d:06:70:03:60:7c:72:0c:
                    88:dd:49:cd:9e:02:6c:d2:5a:d7:53:0f:f3:da:be:
                    69:64:b5:0f:0c:00:e3:b3:50:47:a3:b3:9b:ba:13:
                    50:d6:58:5a:4b:ab:39:e0:11:ca:0a:27:67:03:78:
                    22:66:6d:92:1e:1b:5c:49:ae:e6:6b:d1:8e:3b:9d:
                    06:d3:c6:ac:4d:53:43:10:ab:e8:96:c1:87:82:97:
                    99:8f:20:d3:99:12:37:31:84:e1:8a:ff:29:03:5f:
                    22:90:3e:7f:9b:e0:20:c1:ad:dc:ae:4c:39:1a:31:
                    96:17:02:8c:b2:d9:b4:0d:20:12:9b:7d:86:54:fd:
                    33:fd:c1:2a:62:46:f8:60:96:cf:6e:01:6f:22:df:
                    13:47:e7:97:ec:05:72:23:a3:62:f8:fa:ef:ac:9c:
                    72:f0:37:cb:2f:37:cf:90:a8:27:51:86:c6:d7:78:
                    08:8f:7e:25:a2:15:70:a2:fb:1c:b6:15:5e:a0:97:
                    8b:81:4c:09:28:8a:27:3b:94:bc:71:db:5b:71:37:
                    9a:2b:16:e0:6f:b5:c9:f5:4b:4f:20:ba:65:cf:af:
                    ad:ad
                Exponent: 65537 (0x10001)
        X509v3 extensions:
            X509v3 Key Usage: 
                Digital Signature, Key Encipherment
            X509v3 Basic Constraints: 
                CA:FALSE
            Netscape Cert Type: 
                SSL Server
            Netscape Comment: 
                OpenSSL Generated Server Certificate
            X509v3 Subject Key Identifier: 
                E5:25:6D:3E:AF:0D:DD:3F:4C:F2:45:19:39:D5:14:DB:7E:9C:C0:AD
            X509v3 Authority Key Identifier: 
                keyid:F4:A7:C0:CC:91:46:AF:64:F3:91:F2:27:F8:C8:B2:6F:8A:87:32:73
                DirName:/C=DE/ST=Hessen/O=privacyidea/CN=CA001
                serial:FB:C8:EB:AC:83:CD:12:07

            X509v3 Extended Key Usage: 
                TLS Web Server Authentication
    Signature Algorithm: sha1WithRSAEncryption
         12:16:25:df:ca:88:24:cd:8f:44:79:08:50:45:ba:7a:76:04:
         a0:87:0b:60:88:5e:32:56:4d:e3:1b:a5:69:ab:79:3a:c5:be:
         55:e9:40:fd:9b:c8:16:d4:74:e7:23:e2:e5:25:19:07:3b:ef:
         00:3e:f7:26:4e:44:92:f7:1b:28:b6:a7:f1:9a:3a:22:bd:c5:
         c1:a4:b6:a3:cb:dc:a6:bb:8d:64:80:cb:1d:09:c5:5c:60:3e:
         fd:c6:12:a0:d0:65:fa:c1:19:69:0c:7f:99:01:2a:5a:96:cb:
         61:0c:67:7c:07:de:90:3f:1e:6f:9a:4e:d0:56:d4:fb:50:87:
         dd:de:cd:ae:17:80:48:53:0b:fa:38:ca:fe:d1:d6:a7:7f:72:
         5e:ba:0a:b1:0f:98:ec:85:a8:47:39:48:9e:27:49:2a:86:d8:
         56:3f:77:ae:2c:53:45:eb:0e:6e:8d:08:85:b7:81:6f:ce:87:
         f6:79:b7:81:0d:29:e2:06:e2:ef:b1:d2:66:f7:b4:43:1b:f3:
         49:ed:37:02:ff:65:2f:e3:ec:19:dd:b2:d9:4b:a9:80:52:8e:
         30:93:56:5b:75:1a:bd:62:42:7e:07:46:dc:43:ea:09:d9:b6:
         b1:de:88:a0:40:8c:71:c9:58:60:cf:8f:6d:61:79:c5:11:01:
         fe:ad:fb:5e
-----BEGIN CERTIFICATE-----
MIIECTCCAvGgAwIBAgIEEAAAqDANBgkqhkiG9w0BAQUFADBEMQswCQYDVQQGEwJE
RTEPMA0GA1UECAwGSGVzc2VuMRQwEgYDVQQKDAtwcml2YWN5aWRlYTEOMAwGA1UE
AwwFQ0EwMDEwHhcNMTUwODE4MDcxOTE1WhcNMTYwODE3MDcxOTE1WjA3MRMwEQYD
VQQDEwpTdGV2ZSBUZXN0MSAwHgYJKoZIhvcNAQkBFhFzdGV2ZUBvcGVuc3NsLm9y
ZzCCASIwDQYJKoZIhvcNAQEBBQADggEPADCCAQoCggEBANKBiSBRSA9z9BEyJNUf
HP1c9bbmxfBSgdzSr2ZKfJMxYVyv0W0GcANgfHIMiN1JzZ4CbNJa11MP89q+aWS1
DwwA47NQR6Ozm7oTUNZYWkurOeARygonZwN4ImZtkh4bXEmu5mvRjjudBtPGrE1T
QxCr6JbBh4KXmY8g05kSNzGE4Yr/KQNfIpA+f5vgIMGt3K5MORoxlhcCjLLZtA0g
Ept9hlT9M/3BKmJG+GCWz24BbyLfE0fnl+wFciOjYvj676yccvA3yy83z5CoJ1GG
xtd4CI9+JaIVcKL7HLYVXqCXi4FMCSiKJzuUvHHbW3E3misW4G+1yfVLTyC6Zc+v
ra0CAwEAAaOCAQ4wggEKMAsGA1UdDwQEAwIFoDAJBgNVHRMEAjAAMBEGCWCGSAGG
+EIBAQQEAwIGQDAzBglghkgBhvhCAQ0EJhYkT3BlblNTTCBHZW5lcmF0ZWQgU2Vy
dmVyIENlcnRpZmljYXRlMB0GA1UdDgQWBBTlJW0+rw3dP0zyRRk51RTbfpzArTB0
BgNVHSMEbTBrgBT0p8DMkUavZPOR8if4yLJviocyc6FIpEYwRDELMAkGA1UEBhMC
REUxDzANBgNVBAgMBkhlc3NlbjEUMBIGA1UECgwLcHJpdmFjeWlkZWExDjAMBgNV
BAMMBUNBMDAxggkA+8jrrIPNEgcwEwYDVR0lBAwwCgYIKwYBBQUHAwEwDQYJKoZI
hvcNAQEFBQADggEBABIWJd/KiCTNj0R5CFBFunp2BKCHC2CIXjJWTeMbpWmreTrF
vlXpQP2byBbUdOcj4uUlGQc77wA+9yZORJL3Gyi2p/GaOiK9xcGktqPL3Ka7jWSA
yx0JxVxgPv3GEqDQZfrBGWkMf5kBKlqWy2EMZ3wH3pA/Hm+aTtBW1PtQh93eza4X
gEhTC/o4yv7R1qd/cl66CrEPmOyFqEc5SJ4nSSqG2FY/d64sU0XrDm6NCIW3gW/O
h/Z5t4ENKeIG4u+x0mb3tEMb80ntNwL/ZS/j7BndstlLqYBSjjCTVlt1Gr1iQn4H
RtxD6gnZtrHeiKBAjHHJWGDPj21hecURAf6t+14=
-----END CERTIFICATE-----
