Certificate:
    Data:
        Version: 3 (0x2)
        Serial Number: 268435636 (0x100000b4)
    Signature Algorithm: sha1WithRSAEncryption
        Issuer: C=DE, ST=Hessen, O=privacyidea, CN=CA001
        Validity
            Not Before: Jun 18 14:23:02 2015 GMT
            Not After : Jun 17 14:23:02 2016 GMT
        Subject: CN=admin,CN=admin,O=/emailAddress=meine
        Subject Public Key Info:
            Public Key Algorithm: rsaEncryption
                Public-Key: (2048 bit)
                Modulus:
                    00:b3:63:af:c3:b3:bc:af:5d:85:12:ae:26:f2:4f:
                    91:8c:5a:76:6b:74:19:73:16:8f:a1:5b:41:14:52:
                    8a:08:38:02:f4:e4:0c:7a:8b:ef:c3:84:2d:b1:71:
                    cf:cc:3f:6a:8b:59:19:64:43:15:27:25:66:d7:bf:
                    5e:da:3b:2f:a0:34:39:fa:28:60:2f:83:44:12:d5:
                    2d:25:57:79:20:75:31:9e:88:8c:85:cf:15:63:f2:
                    08:41:58:db:b0:20:49:23:ee:b5:53:45:7f:c8:fb:
                    f7:40:47:89:93:20:04:57:18:3a:c6:2c:59:1f:eb:
                    59:fd:d5:84:0d:3a:0a:86:a0:fa:3e:45:b4:ec:d1:
                    e7:b2:36:08:6b:8e:4c:73:36:8f:ad:ce:12:c7:e1:
                    00:3d:e2:fd:36:79:4b:0a:bf:80:8f:83:7d:8e:a8:
                    43:a4:90:42:0b:7a:42:83:c3:5f:c4:20:af:71:b9:
                    30:73:cc:6f:12:57:45:79:22:a9:0d:3c:1f:0d:32:
                    a0:d5:02:0f:8d:5d:20:0f:51:79:e4:bf:d9:ea:09:
                    31:63:d5:67:11:dc:e4:68:81:a3:e6:1c:41:72:d7:
                    7e:f0:7a:fe:65:86:5a:6d:37:c1:7a:90:da:10:37:
                    68:af:e8:1f:56:81:77:11:b3:7b:82:a0:5f:af:8b:
                    24:59
                Exponent: 65537 (0x10001)
        X509v3 extensions:
            X509v3 Key Usage: 
                Digital Signature, Key Encipherment
            X509v3 Basic Constraints: 
                CA:FALSE
            Netscape Cert Type: 
                SSL Server
            Netscape Comment: 
                OpenSSL Generated Server Certificate
            X509v3 Subject Key Identifier: 
                BE:0D:E3:1D:F7:06:10:FB:E5:B0:2E:93:E6:7B:2C:67:D0:99:A8:82
            X509v3 Authority Key Identifier: 
                keyid:F4:A7:C0:CC:91:46:AF:64:F3:91:F2:27:F8:C8:B2:6F:8A:87:32:73
                DirName:/C=DE/ST=Hessen/O=privacyidea/CN=CA001
                serial:FB:C8:EB:AC:83:CD:12:07

            X509v3 Extended Key Usage: 
                TLS Web Server Authentication
    Signature Algorithm: sha1WithRSAEncryption
         2e:a8:04:9e:30:da:70:50:cf:0f:d9:4d:6f:60:97:91:a4:7f:
         b5:2f:07:49:3b:50:15:df:e9:0c:2b:66:57:fb:67:22:50:5b:
         ab:9a:db:38:ec:69:fc:4b:60:f7:16:64:89:f1:ec:83:da:51:
         df:43:d8:03:1d:6c:60:31:9d:e6:d2:ae:34:24:b7:ff:ce:9d:
         38:fe:d1:4a:0a:06:c8:50:bf:c2:b7:fb:ee:f0:26:07:35:aa:
         2f:2f:f1:45:75:f4:af:93:08:58:6a:19:30:7f:58:01:6f:5d:
         10:60:0f:88:0f:84:70:b4:60:5a:7d:9a:06:c9:72:89:b0:77:
         af:0a:57:48:51:0e:fd:3d:69:90:11:e1:9a:95:4a:46:0e:f1:
         c2:10:9d:c3:8c:52:c3:37:db:02:f0:08:d9:c3:f2:2c:84:ae:
         59:1e:44:d9:04:d0:cf:98:c7:46:f4:21:5a:0c:ed:a0:fc:be:
         84:8a:6c:69:43:f1:49:e4:96:a8:48:c7:b7:62:01:3b:da:9e:
         4e:fa:32:95:52:5f:a2:a6:15:c5:29:39:dd:97:0f:b3:44:d3:
         14:c3:68:cd:01:f8:9f:8c:4c:09:47:99:78:84:21:a7:bf:ae:
         e2:03:8a:39:9b:be:f2:d8:42:41:f5:47:c4:08:88:09:ea:79:
         b4:ba:dc:63
-----BEGIN CERTIFICATE-----
MIIEBDCCAuygAwIBAgIEEAAAtDANBgkqhkiG9w0BAQUFADBEMQswCQYDVQQGEwJE
RTEPMA0GA1UECAwGSGVzc2VuMRQwEgYDVQQKDAtwcml2YWN5aWRlYTEOMAwGA1UE
AwwFQ0EwMDEwHhcNMTUwNjE4MTQyMzAyWhcNMTYwNjE3MTQyMzAyWjAyMRowGAYD
VQQDExFhZG1pbixDTj1hZG1pbixPPTEUMBIGCSqGSIb3DQEJARYFbWVpbmUwggEi
MA0GCSqGSIb3DQEBAQUAA4IBDwAwggEKAoIBAQCzY6/Ds7yvXYUSribyT5GMWnZr
dBlzFo+hW0EUUooIOAL05Ax6i+/DhC2xcc/MP2qLWRlkQxUnJWbXv17aOy+gNDn6
KGAvg0QS1S0lV3kgdTGeiIyFzxVj8ghBWNuwIEkj7rVTRX/I+/dAR4mTIARXGDrG
LFkf61n91YQNOgqGoPo+RbTs0eeyNghrjkxzNo+tzhLH4QA94v02eUsKv4CPg32O
qEOkkEILekKDw1/EIK9xuTBzzG8SV0V5IqkNPB8NMqDVAg+NXSAPUXnkv9nqCTFj
1WcR3ORogaPmHEFy137wev5lhlptN8F6kNoQN2iv6B9WgXcRs3uCoF+viyRZAgMB
AAGjggEOMIIBCjALBgNVHQ8EBAMCBaAwCQYDVR0TBAIwADARBglghkgBhvhCAQEE
BAMCBkAwMwYJYIZIAYb4QgENBCYWJE9wZW5TU0wgR2VuZXJhdGVkIFNlcnZlciBD
ZXJ0aWZpY2F0ZTAdBgNVHQ4EFgQUvg3jHfcGEPvlsC6T5nssZ9CZqIIwdAYDVR0j
BG0wa4AU9KfAzJFGr2TzkfIn+Miyb4qHMnOhSKRGMEQxCzAJBgNVBAYTAkRFMQ8w
DQYDVQQIDAZIZXNzZW4xFDASBgNVBAoMC3ByaXZhY3lpZGVhMQ4wDAYDVQQDDAVD
QTAwMYIJAPvI66yDzRIHMBMGA1UdJQQMMAoGCCsGAQUFBwMBMA0GCSqGSIb3DQEB
BQUAA4IBAQAuqASeMNpwUM8P2U1vYJeRpH+1LwdJO1AV3+kMK2ZX+2ciUFurmts4
7Gn8S2D3FmSJ8eyD2lHfQ9gDHWxgMZ3m0q40JLf/zp04/tFKCgbIUL/Ct/vu8CYH
NaovL/FFdfSvkwhYahkwf1gBb10QYA+ID4RwtGBafZoGyXKJsHevCldIUQ79PWmQ
EeGalUpGDvHCEJ3DjFLDN9sC8AjZw/IshK5ZHkTZBNDPmMdG9CFaDO2g/L6Eimxp
Q/FJ5JaoSMe3YgE72p5O+jKVUl+iphXFKTndlw+zRNMUw2jNAfifjEwJR5l4hCGn
v67iA4o5m77y2EJB9UfECIgJ6nm0utxj
-----END CERTIFICATE-----
