Certificate:
    Data:
        Version: 3 (0x2)
        Serial Number: 268435608 (0x10000098)
    Signature Algorithm: sha1WithRSAEncryption
        Issuer: C=DE, ST=Hessen, O=privacyidea, CN=CA001
        Validity
            Not Before: Aug 17 21:11:03 2015 GMT
            Not After : Aug 16 21:11:03 2016 GMT
        Subject: C=DE, ST=Hessen, O=privacyidea, CN=requester.localdomain
        Subject Public Key Info:
            Public Key Algorithm: rsaEncryption
                Public-Key: (2048 bit)
                Modulus:
                    00:cd:be:14:4f:fa:ce:01:3f:42:22:1b:1d:9c:af:
                    dd:92:d2:7f:db:6c:b7:3e:39:43:43:6b:13:03:f1:
                    05:f4:07:74:bc:76:69:28:0b:af:19:8e:d7:fc:e3:
                    cd:c6:58:f2:ca:7f:08:6d:53:fc:07:02:44:24:c6:
                    b4:34:4c:8c:04:fe:33:0e:40:e2:20:ba:02:73:5a:
                    f7:f5:4f:63:6e:cc:c6:b6:df:54:1d:37:39:7d:51:
                    36:26:5f:bd:dc:3f:a8:8b:6b:a2:ae:b6:9d:d6:21:
                    e7:df:41:b8:7a:28:2a:68:48:ca:a8:2d:ed:e1:e9:
                    46:5e:5a:72:6d:b4:84:38:87:91:fd:94:11:0b:28:
                    84:c6:c2:2f:2a:fb:01:f9:36:7a:09:75:d1:33:88:
                    3c:73:41:5b:c8:bf:94:89:70:a1:f0:c0:b9:2e:50:
                    53:1e:b1:17:64:69:f4:2d:81:e0:a9:0d:0e:32:e9:
                    ba:55:8a:85:f1:1b:6f:49:79:b4:7f:88:c3:0d:3e:
                    54:88:9b:3d:1f:38:8c:04:f3:ee:6a:63:2b:f5:c6:
                    db:b4:83:aa:c4:78:41:3a:7d:4b:e1:c8:3e:71:ca:
                    1b:61:59:ea:c6:c4:ca:32:5e:c9:e9:bf:12:29:e6:
                    c6:c3:63:fe:a0:55:da:7a:f1:60:98:4d:26:ed:fa:
                    70:2d
                Exponent: 65537 (0x10001)
        X509v3 extensions:
            X509v3 Key Usage: 
                Digital Signature, Key Encipherment
            X509v3 Basic Constraints: 
                CA:FALSE
            Netscape Cert Type: 
                SSL Server
            Netscape Comment: 
                OpenSSL Generated Server Certificate
            X509v3 Subject Key Identifier: 
                53:3F:ED:5D:09:07:B3:65:7B:AB:45:C9:24:5B:09:77:80:0A:96:ED
            X509v3 Authority Key Identifier: 
                keyid:F4:A7:C0:CC:91:46:AF:64:F3:91:F2:27:F8:C8:B2:6F:8A:87:32:73
                DirName:/C=DE/ST=Hessen/O=privacyidea/CN=CA001
                serial:FB:C8:EB:AC:83:CD:12:07

            X509v3 Extended Key Usage: 
                TLS Web Server Authentication
    Signature Algorithm: sha1WithRSAEncryption
         95:00:60:46:9f:58:b6:64:52:f4:97:cb:fa:a4:7b:2d:e1:0c:
         14:78:6e:0d:44:fb:8c:09:bc:01:b0:5c:89:9d:f9:03:e1:f3:
         6f:1a:90:27:09:7b:64:30:73:fc:4f:14:6d:a3:a0:fd:85:03:
         29:47:07:9f:96:1f:8b:3d:66:11:76:1e:50:52:26:00:3b:8f:
         00:95:65:c4:44:cb:9b:ff:ef:68:78:9d:9c:19:83:ab:a0:38:
         b1:3c:c9:9c:b8:d9:27:ca:7c:d7:ad:1a:cb:a1:95:43:dd:29:
         fd:7f:a0:b2:75:04:35:1f:94:58:c4:78:89:6e:13:69:ab:8f:
         7a:44:fa:ed:da:4d:15:21:e0:98:1b:ae:f6:c8:8a:08:cb:0b:
         fc:1f:e8:09:dd:de:1f:05:6d:da:c7:09:60:bc:e3:a1:02:da:
         d0:dc:f8:cb:60:ea:26:c4:0b:f5:15:32:4d:f4:20:de:47:7d:
         10:17:b5:87:60:13:8b:a0:56:63:c2:cc:5d:6c:bc:f2:52:13:
         f8:c7:2e:d1:ef:c8:97:d9:ed:ae:1e:be:f1:5b:05:7c:8a:99:
         35:83:90:a6:30:1b:53:06:ad:ad:6e:68:58:b5:a1:0f:ff:0a:
         10:e9:a8:61:1f:32:15:b9:cc:1d:f4:3b:a4:c2:44:d7:11:6a:
         ba:a5:19:27
-----BEGIN CERTIFICATE-----
MIIEJjCCAw6gAwIBAgIEEAAAmDANBgkqhkiG9w0BAQUFADBEMQswCQYDVQQGEwJE
RTEPMA0GA1UECAwGSGVzc2VuMRQwEgYDVQQKDAtwcml2YWN5aWRlYTEOMAwGA1UE
AwwFQ0EwMDEwHhcNMTUwODE3MjExMTAzWhcNMTYwODE2MjExMTAzWjBUMQswCQYD
VQQGEwJERTEPMA0GA1UECAwGSGVzc2VuMRQwEgYDVQQKDAtwcml2YWN5aWRlYTEe
MBwGA1UEAwwVcmVxdWVzdGVyLmxvY2FsZG9tYWluMIIBIjANBgkqhkiG9w0BAQEF
AAOCAQ8AMIIBCgKCAQEAzb4UT/rOAT9CIhsdnK/dktJ/22y3PjlDQ2sTA/EF9Ad0
vHZpKAuvGY7X/OPNxljyyn8IbVP8BwJEJMa0NEyMBP4zDkDiILoCc1r39U9jbszG
tt9UHTc5fVE2Jl+93D+oi2uirrad1iHn30G4eigqaEjKqC3t4elGXlpybbSEOIeR
/ZQRCyiExsIvKvsB+TZ6CXXRM4g8c0FbyL+UiXCh8MC5LlBTHrEXZGn0LYHgqQ0O
Mum6VYqF8RtvSXm0f4jDDT5UiJs9HziMBPPuamMr9cbbtIOqxHhBOn1L4cg+ccob
YVnqxsTKMl7J6b8SKebGw2P+oFXaevFgmE0m7fpwLQIDAQABo4IBDjCCAQowCwYD
VR0PBAQDAgWgMAkGA1UdEwQCMAAwEQYJYIZIAYb4QgEBBAQDAgZAMDMGCWCGSAGG
+EIBDQQmFiRPcGVuU1NMIEdlbmVyYXRlZCBTZXJ2ZXIgQ2VydGlmaWNhdGUwHQYD
VR0OBBYEFFM/7V0JB7Nle6tFySRbCXeACpbtMHQGA1UdIwRtMGuAFPSnwMyRRq9k
85HyJ/jIsm+KhzJzoUikRjBEMQswCQYDVQQGEwJERTEPMA0GA1UECAwGSGVzc2Vu
MRQwEgYDVQQKDAtwcml2YWN5aWRlYTEOMAwGA1UEAwwFQ0EwMDGCCQD7yOusg80S
BzATBgNVHSUEDDAKBggrBgEFBQcDATANBgkqhkiG9w0BAQUFAAOCAQEAlQBgRp9Y
tmRS9JfL+qR7LeEMFHhuDUT7jAm8AbBciZ35A+HzbxqQJwl7ZDBz/E8UbaOg/YUD
KUcHn5Yfiz1mEXYeUFImADuPAJVlxETLm//vaHidnBmDq6A4sTzJnLjZJ8p8160a
y6GVQ90p/X+gsnUENR+UWMR4iW4TaauPekT67dpNFSHgmBuu9siKCMsL/B/oCd3e
HwVt2scJYLzjoQLa0Nz4y2DqJsQL9RUyTfQg3kd9EBe1h2ATi6BWY8LMXWy88lIT
+Mcu0e/Il9ntrh6+8VsFfIqZNYOQpjAbUwatrW5oWLWhD/8KEOmoYR8yFbnMHfQ7
pMJE1xFquqUZJw==
-----END CERTIFICATE-----
