Certificate:
    Data:
        Version: 3 (0x2)
        Serial Number: 268435622 (0x100000a6)
    Signature Algorithm: sha1WithRSAEncryption
        Issuer: C=DE, ST=Hessen, O=privacyidea, CN=CA001
        Validity
            Not Before: Aug 18 07:19:15 2015 GMT
            Not After : Aug 17 07:19:15 2016 GMT
        Subject: C=DE, ST=Hessen, O=privacyidea, CN=requester.localdomain
        Subject Public Key Info:
            Public Key Algorithm: rsaEncryption
                Public-Key: (2048 bit)
                Modulus:
                    00:cd:be:14:4f:fa:ce:01:3f:42:22:1b:1d:9c:af:
                    dd:92:d2:7f:db:6c:b7:3e:39:43:43:6b:13:03:f1:
                    05:f4:07:74:bc:76:69:28:0b:af:19:8e:d7:fc:e3:
                    cd:c6:58:f2:ca:7f:08:6d:53:fc:07:02:44:24:c6:
                    b4:34:4c:8c:04:fe:33:0e:40:e2:20:ba:02:73:5a:
                    f7:f5:4f:63:6e:cc:c6:b6:df:54:1d:37:39:7d:51:
                    36:26:5f:bd:dc:3f:a8:8b:6b:a2:ae:b6:9d:d6:21:
                    e7:df:41:b8:7a:28:2a:68:48:ca:a8:2d:ed:e1:e9:
                    46:5e:5a:72:6d:b4:84:38:87:91:fd:94:11:0b:28:
                    84:c6:c2:2f:2a:fb:01:f9:36:7a:09:75:d1:33:88:
                    3c:73:41:5b:c8:bf:94:89:70:a1:f0:c0:b9:2e:50:
                    53:1e:b1:17:64:69:f4:2d:81:e0:a9:0d:0e:32:e9:
                    ba:55:8a:85:f1:1b:6f:49:79:b4:7f:88:c3:0d:3e:
                    54:88:9b:3d:1f:38:8c:04:f3:ee:6a:63:2b:f5:c6:
                    db:b4:83:aa:c4:78:41:3a:7d:4b:e1:c8:3e:71:ca:
                    1b:61:59:ea:c6:c4:ca:32:5e:c9:e9:bf:12:29:e6:
                    c6:c3:63:fe:a0:55:da:7a:f1:60:98:4d:26:ed:fa:
                    70:2d
                Exponent: 65537 (0x10001)
        X509v3 extensions:
            X509v3 Key Usage: 
                Digital Signature, Key Encipherment
            X509v3 Basic Constraints: 
                CA:FALSE
            Netscape Cert Type: 
                SSL Server
            Netscape Comment: 
                OpenSSL Generated Server Certificate
            X509v3 Subject Key Identifier: 
                53:3F:ED:5D:09:07:B3:65:7B:AB:45:C9:24:5B:09:77:80:0A:96:ED
            X509v3 Authority Key Identifier: 
                keyid:F4:A7:C0:CC:91:46:AF:64:F3:91:F2:27:F8:C8:B2:6F:8A:87:32:73
                DirName:/C=DE/ST=Hessen/O=privacyidea/CN=CA001
                serial:FB:C8:EB:AC:83:CD:12:07

            X509v3 Extended Key Usage: 
                TLS Web Server Authentication
    Signature Algorithm: sha1WithRSAEncryption
         0b:66:8f:2a:4b:85:d3:1a:b3:90:e9:fa:17:21:aa:00:7d:a2:
         15:52:fa:e2:47:17:cb:e4:33:8a:59:8d:b5:0b:7e:7f:b9:a7:
         1a:d6:e2:fc:9a:54:0c:d8:b2:c3:30:19:a1:65:ee:45:c1:61:
         d3:16:82:dc:87:ae:4e:6d:e1:fb:c6:79:46:71:4e:43:53:e8:
         6b:51:ab:54:16:36:e7:2a:97:84:89:28:54:f6:99:99:0e:e4:
         12:da:de:cb:9e:8b:fe:c6:f3:4a:1b:a8:a7:83:a9:f9:8d:4b:
         e7:ea:5d:e5:10:61:c0:83:2a:c8:8f:e5:bc:f9:b7:9f:35:45:
         71:15:86:27:29:db:10:94:f2:65:24:a7:2b:9d:7a:ed:d5:e7:
         ba:4f:59:2f:8a:0e:b3:a8:dc:ca:d7:68:b7:52:c2:a3:99:fb:
         7c:21:1c:bf:48:05:ed:97:5c:02:0d:71:be:5c:ba:f6:bd:a3:
         fd:3e:31:79:38:57:84:16:8e:1c:8c:8b:6a:06:72:7a:05:fd:
         8d:a6:a3:4e:20:11:96:05:24:17:8f:b9:37:c5:55:7b:18:f1:
         49:58:69:2f:23:8b:26:31:5b:f2:3d:03:5a:56:f0:ff:04:48:
         bd:de:53:6e:d4:70:0c:a7:6e:7f:be:ec:33:6a:c4:37:f8:2e:
         c6:01:77:91
-----BEGIN CERTIFICATE-----
MIIEJjCCAw6gAwIBAgIEEAAApjANBgkqhkiG9w0BAQUFADBEMQswCQYDVQQGEwJE
RTEPMA0GA1UECAwGSGVzc2VuMRQwEgYDVQQKDAtwcml2YWN5aWRlYTEOMAwGA1UE
AwwFQ0EwMDEwHhcNMTUwODE4MDcxOTE1WhcNMTYwODE3MDcxOTE1WjBUMQswCQYD
VQQGEwJERTEPMA0GA1UECAwGSGVzc2VuMRQwEgYDVQQKDAtwcml2YWN5aWRlYTEe
MBwGA1UEAwwVcmVxdWVzdGVyLmxvY2FsZG9tYWluMIIBIjANBgkqhkiG9w0BAQEF
AAOCAQ8AMIIBCgKCAQEAzb4UT/rOAT9CIhsdnK/dktJ/22y3PjlDQ2sTA/EF9Ad0
vHZpKAuvGY7X/OPNxljyyn8IbVP8BwJEJMa0NEyMBP4zDkDiILoCc1r39U9jbszG
tt9UHTc5fVE2Jl+93D+oi2uirrad1iHn30G4eigqaEjKqC3t4elGXlpybbSEOIeR
/ZQRCyiExsIvKvsB+TZ6CXXRM4g8c0FbyL+UiXCh8MC5LlBTHrEXZGn0LYHgqQ0O
Mum6VYqF8RtvSXm0f4jDDT5UiJs9HziMBPPuamMr9cbbtIOqxHhBOn1L4cg+ccob
YVnqxsTKMl7J6b8SKebGw2P+oFXaevFgmE0m7fpwLQIDAQABo4IBDjCCAQowCwYD
VR0PBAQDAgWgMAkGA1UdEwQCMAAwEQYJYIZIAYb4QgEBBAQDAgZAMDMGCWCGSAGG
+EIBDQQmFiRPcGVuU1NMIEdlbmVyYXRlZCBTZXJ2ZXIgQ2VydGlmaWNhdGUwHQYD
VR0OBBYEFFM/7V0JB7Nle6tFySRbCXeACpbtMHQGA1UdIwRtMGuAFPSnwMyRRq9k
85HyJ/jIsm+KhzJzoUikRjBEMQswCQYDVQQGEwJERTEPMA0GA1UECAwGSGVzc2Vu
MRQwEgYDVQQKDAtwcml2YWN5aWRlYTEOMAwGA1UEAwwFQ0EwMDGCCQD7yOusg80S
BzATBgNVHSUEDDAKBggrBgEFBQcDATANBgkqhkiG9w0BAQUFAAOCAQEAC2aPKkuF
0xqzkOn6FyGqAH2iFVL64kcXy+QzilmNtQt+f7mnGtbi/JpUDNiywzAZoWXuRcFh
0xaC3IeuTm3h+8Z5RnFOQ1Poa1GrVBY25yqXhIkoVPaZmQ7kEtrey56L/sbzShuo
p4Op+Y1L5+pd5RBhwIMqyI/lvPm3nzVFcRWGJynbEJTyZSSnK5167dXnuk9ZL4oO
s6jcytdot1LCo5n7fCEcv0gF7ZdcAg1xvly69r2j/T4xeThXhBaOHIyLagZyegX9
jaajTiARlgUkF4+5N8VVexjxSVhpLyOLJjFb8j0DWlbw/wRIvd5TbtRwDKduf77s
M2rEN/guxgF3kQ==
-----END CERTIFICATE-----
