Certificate:
    Data:
        Version: 3 (0x2)
        Serial Number: 268435611 (0x1000009b)
    Signature Algorithm: sha1WithRSAEncryption
        Issuer: C=DE, ST=Hessen, O=privacyidea, CN=CA001
        Validity
            Not Before: Aug 18 06:53:16 2015 GMT
            Not After : Aug 17 06:53:16 2016 GMT
        Subject: C=DE, ST=Hessen, O=privacyidea, CN=requester.localdomain
        Subject Public Key Info:
            Public Key Algorithm: rsaEncryption
                Public-Key: (2048 bit)
                Modulus:
                    00:cd:be:14:4f:fa:ce:01:3f:42:22:1b:1d:9c:af:
                    dd:92:d2:7f:db:6c:b7:3e:39:43:43:6b:13:03:f1:
                    05:f4:07:74:bc:76:69:28:0b:af:19:8e:d7:fc:e3:
                    cd:c6:58:f2:ca:7f:08:6d:53:fc:07:02:44:24:c6:
                    b4:34:4c:8c:04:fe:33:0e:40:e2:20:ba:02:73:5a:
                    f7:f5:4f:63:6e:cc:c6:b6:df:54:1d:37:39:7d:51:
                    36:26:5f:bd:dc:3f:a8:8b:6b:a2:ae:b6:9d:d6:21:
                    e7:df:41:b8:7a:28:2a:68:48:ca:a8:2d:ed:e1:e9:
                    46:5e:5a:72:6d:b4:84:38:87:91:fd:94:11:0b:28:
                    84:c6:c2:2f:2a:fb:01:f9:36:7a:09:75:d1:33:88:
                    3c:73:41:5b:c8:bf:94:89:70:a1:f0:c0:b9:2e:50:
                    53:1e:b1:17:64:69:f4:2d:81:e0:a9:0d:0e:32:e9:
                    ba:55:8a:85:f1:1b:6f:49:79:b4:7f:88:c3:0d:3e:
                    54:88:9b:3d:1f:38:8c:04:f3:ee:6a:63:2b:f5:c6:
                    db:b4:83:aa:c4:78:41:3a:7d:4b:e1:c8:3e:71:ca:
                    1b:61:59:ea:c6:c4:ca:32:5e:c9:e9:bf:12:29:e6:
                    c6:c3:63:fe:a0:55:da:7a:f1:60:98:4d:26:ed:fa:
                    70:2d
                Exponent: 65537 (0x10001)
        X509v3 extensions:
            X509v3 Key Usage: 
                Digital Signature, Key Encipherment
            X509v3 Basic Constraints: 
                CA:FALSE
            Netscape Cert Type: 
                SSL Server
            Netscape Comment: 
                OpenSSL Generated Server Certificate
            X509v3 Subject Key Identifier: 
                53:3F:ED:5D:09:07:B3:65:7B:AB:45:C9:24:5B:09:77:80:0A:96:ED
            X509v3 Authority Key Identifier: 
                keyid:F4:A7:C0:CC:91:46:AF:64:F3:91:F2:27:F8:C8:B2:6F:8A:87:32:73
                DirName:/C=DE/ST=Hessen/O=privacyidea/CN=CA001
                serial:FB:C8:EB:AC:83:CD:12:07

            X509v3 Extended Key Usage: 
                TLS Web Server Authentication
    Signature Algorithm: sha1WithRSAEncryption
         13:3a:f7:7f:fd:97:83:5a:db:c0:1c:f8:08:b2:0e:14:4b:7c:
         43:24:e0:20:52:39:62:48:ab:53:cd:05:3a:bb:c5:86:67:83:
         56:e3:ea:c3:3f:7b:4b:bd:62:6b:1a:b5:b0:0e:27:47:cc:44:
         3f:c5:5f:48:84:e3:49:45:58:ff:59:e5:e3:bd:0a:2b:a5:6f:
         b8:7d:ac:2e:33:56:99:ea:e1:1c:ca:d8:75:bc:93:f2:92:0a:
         7c:63:39:47:b3:bf:71:af:dc:fe:12:cb:f5:3d:6c:be:21:56:
         41:a6:f0:75:cf:52:b3:47:21:3a:94:25:42:3c:88:5f:cf:87:
         99:0c:e3:13:43:bc:21:98:b5:2f:4b:8d:d7:1b:93:7c:2c:e3:
         b5:d2:9b:5f:1c:a0:0b:73:ab:4e:90:8a:41:ae:a7:1f:f4:7e:
         67:a3:ea:3b:93:1e:14:7d:21:c4:73:a7:6e:07:02:9c:e0:bf:
         75:f8:3e:8d:ce:ce:a4:dd:82:c0:1a:34:17:66:c7:a6:99:d9:
         a6:fe:ee:2d:41:a9:19:85:ab:d5:89:b8:b1:0f:dc:6f:f1:14:
         e0:24:e5:d5:80:3b:8d:e3:fe:58:fc:13:61:74:20:a3:86:44:
         2b:d7:32:95:fc:9c:cc:82:9c:ff:7b:02:6b:cd:95:e2:b7:95:
         35:6f:08:85
-----BEGIN CERTIFICATE-----
MIIEJjCCAw6gAwIBAgIEEAAAmzANBgkqhkiG9w0BAQUFADBEMQswCQYDVQQGEwJE
RTEPMA0GA1UECAwGSGVzc2VuMRQwEgYDVQQKDAtwcml2YWN5aWRlYTEOMAwGA1UE
AwwFQ0EwMDEwHhcNMTUwODE4MDY1MzE2WhcNMTYwODE3MDY1MzE2WjBUMQswCQYD
VQQGEwJERTEPMA0GA1UECAwGSGVzc2VuMRQwEgYDVQQKDAtwcml2YWN5aWRlYTEe
MBwGA1UEAwwVcmVxdWVzdGVyLmxvY2FsZG9tYWluMIIBIjANBgkqhkiG9w0BAQEF
AAOCAQ8AMIIBCgKCAQEAzb4UT/rOAT9CIhsdnK/dktJ/22y3PjlDQ2sTA/EF9Ad0
vHZpKAuvGY7X/OPNxljyyn8IbVP8BwJEJMa0NEyMBP4zDkDiILoCc1r39U9jbszG
tt9UHTc5fVE2Jl+93D+oi2uirrad1iHn30G4eigqaEjKqC3t4elGXlpybbSEOIeR
/ZQRCyiExsIvKvsB+TZ6CXXRM4g8c0FbyL+UiXCh8MC5LlBTHrEXZGn0LYHgqQ0O
Mum6VYqF8RtvSXm0f4jDDT5UiJs9HziMBPPuamMr9cbbtIOqxHhBOn1L4cg+ccob
YVnqxsTKMl7J6b8SKebGw2P+oFXaevFgmE0m7fpwLQIDAQABo4IBDjCCAQowCwYD
VR0PBAQDAgWgMAkGA1UdEwQCMAAwEQYJYIZIAYb4QgEBBAQDAgZAMDMGCWCGSAGG
+EIBDQQmFiRPcGVuU1NMIEdlbmVyYXRlZCBTZXJ2ZXIgQ2VydGlmaWNhdGUwHQYD
VR0OBBYEFFM/7V0JB7Nle6tFySRbCXeACpbtMHQGA1UdIwRtMGuAFPSnwMyRRq9k
85HyJ/jIsm+KhzJzoUikRjBEMQswCQYDVQQGEwJERTEPMA0GA1UECAwGSGVzc2Vu
MRQwEgYDVQQKDAtwcml2YWN5aWRlYTEOMAwGA1UEAwwFQ0EwMDGCCQD7yOusg80S
BzATBgNVHSUEDDAKBggrBgEFBQcDATANBgkqhkiG9w0BAQUFAAOCAQEAEzr3f/2X
g1rbwBz4CLIOFEt8QyTgIFI5YkirU80FOrvFhmeDVuPqwz97S71iaxq1sA4nR8xE
P8VfSITjSUVY/1nl470KK6VvuH2sLjNWmerhHMrYdbyT8pIKfGM5R7O/ca/c/hLL
9T1sviFWQabwdc9Ss0chOpQlQjyIX8+HmQzjE0O8IZi1L0uN1xuTfCzjtdKbXxyg
C3OrTpCKQa6nH/R+Z6PqO5MeFH0hxHOnbgcCnOC/dfg+jc7OpN2CwBo0F2bHppnZ
pv7uLUGpGYWr1Ym4sQ/cb/EU4CTl1YA7jeP+WPwTYXQgo4ZEK9cylfyczIKc/3sC
a82V4reVNW8IhQ==
-----END CERTIFICATE-----
