Certificate:
    Data:
        Version: 3 (0x2)
        Serial Number: 268435640 (0x100000b8)
    Signature Algorithm: sha1WithRSAEncryption
        Issuer: C=DE, ST=Hessen, O=privacyidea, CN=CA001
        Validity
            Not Before: Oct  1 14:58:23 2015 GMT
            Not After : Sep 30 14:58:23 2016 GMT
        Subject: C=DE, ST=Hessen, O=privacyidea, CN=usercert
        Subject Public Key Info:
            Public Key Algorithm: rsaEncryption
                Public-Key: (2048 bit)
                Modulus:
                    00:dc:2f:d1:5f:29:97:d4:7c:c3:53:c8:30:bd:4b:
                    67:70:2c:24:6b:b8:5e:eb:21:7a:48:12:56:7c:81:
                    5c:48:75:b6:68:eb:f6:f2:98:4e:50:51:d1:7f:6c:
                    73:f3:0a:a7:ae:be:48:5e:e5:d6:e1:d9:2a:7c:32:
                    6e:4e:fd:08:f6:5a:54:49:23:73:c3:b9:07:18:d1:
                    ef:b3:ac:f8:8a:dc:94:96:a4:90:3a:8e:74:df:e6:
                    0d:37:1b:bd:5b:b7:25:1a:56:39:da:6f:91:aa:5e:
                    1c:74:f3:f9:7c:14:01:83:12:65:76:c7:bb:fe:36:
                    5b:95:e9:72:65:83:ed:3e:98:30:71:fa:87:dd:a3:
                    36:5a:30:03:2e:26:e0:61:d1:bf:02:3f:b6:06:1f:
                    4a:89:28:1c:5c:a2:ff:4e:be:94:e6:8c:e0:da:82:
                    f1:9d:29:32:48:30:73:b4:04:f6:42:1e:be:f7:e2:
                    32:32:27:3c:9d:89:2f:70:3e:85:9a:6f:5c:c5:09:
                    c0:8c:32:2f:72:22:c9:d2:95:1f:b6:ac:72:60:72:
                    b7:82:4d:6b:ce:5b:e3:00:d0:d2:2f:58:c6:e0:10:
                    e5:51:ca:4d:3b:2e:e6:7e:ab:84:d6:56:f1:93:35:
                    a0:93:64:26:81:75:2f:91:b5:16:06:38:0b:db:cc:
                    2d:07
                Exponent: 65537 (0x10001)
        X509v3 extensions:
            X509v3 Key Usage: 
                Digital Signature, Key Encipherment
            X509v3 Basic Constraints: 
                CA:FALSE
            Netscape Cert Type: 
                SSL Server
            Netscape Comment: 
                OpenSSL Generated Server Certificate
            X509v3 Subject Key Identifier: 
                FC:14:D1:F0:4B:8D:00:90:F2:F5:B8:71:9E:4E:97:C3:92:54:AD:0B
            X509v3 Authority Key Identifier: 
                keyid:F4:A7:C0:CC:91:46:AF:64:F3:91:F2:27:F8:C8:B2:6F:8A:87:32:73
                DirName:/C=DE/ST=Hessen/O=privacyidea/CN=CA001
                serial:FB:C8:EB:AC:83:CD:12:07

            X509v3 Extended Key Usage: 
                TLS Web Server Authentication
    Signature Algorithm: sha1WithRSAEncryption
         2b:80:bd:2b:71:54:52:d0:60:5d:90:bb:68:90:ca:91:ff:9a:
         65:a6:f3:43:c5:da:03:2b:8b:e8:e8:f6:c4:6e:d1:e1:d9:7d:
         58:ed:09:b0:c0:f8:07:65:f0:b0:24:68:20:26:5b:97:f4:dd:
         7d:59:c9:bc:d7:07:d2:ae:c4:69:a8:8e:6b:a6:6a:03:4c:32:
         9b:37:ac:83:18:e3:2b:8c:42:1a:9a:fa:c9:ff:d0:1c:39:59:
         c3:af:5d:a5:ca:dd:a5:fe:5d:c7:ec:87:8d:0d:c5:da:25:a6:
         7f:a1:4b:cd:56:a1:a8:4e:24:98:95:8b:6f:8d:81:50:e6:08:
         68:91:0c:c5:ac:e6:5a:ce:cd:86:55:9b:79:8f:bd:11:24:c7:
         98:fb:42:66:45:46:b5:66:eb:fc:4f:0a:60:d7:26:84:87:b1:
         fe:37:af:ff:3e:be:4f:4b:3f:0a:0a:8c:a7:53:b0:ad:ea:82:
         b6:6b:77:56:44:a3:d0:4e:6c:d7:8a:07:2b:ec:bd:ba:08:a7:
         2a:fb:91:e8:31:67:28:6d:bc:51:1b:28:cc:ee:19:ab:39:5a:
         71:a5:8d:0b:22:e6:de:33:42:01:7a:f9:e6:70:1d:a0:e1:98:
         5a:59:6a:ff:be:ec:03:63:fc:18:8a:c8:e9:d8:b7:18:68:63:
         08:ca:29:1e
-----BEGIN CERTIFICATE-----
MIIEGTCCAwGgAwIBAgIEEAAAuDANBgkqhkiG9w0BAQUFADBEMQswCQYDVQQGEwJE
RTEPMA0GA1UECAwGSGVzc2VuMRQwEgYDVQQKDAtwcml2YWN5aWRlYTEOMAwGA1UE
AwwFQ0EwMDEwHhcNMTUxMDAxMTQ1ODIzWhcNMTYwOTMwMTQ1ODIzWjBHMQswCQYD
VQQGEwJERTEPMA0GA1UECAwGSGVzc2VuMRQwEgYDVQQKDAtwcml2YWN5aWRlYTER
MA8GA1UEAwwIdXNlcmNlcnQwggEiMA0GCSqGSIb3DQEBAQUAA4IBDwAwggEKAoIB
AQDcL9FfKZfUfMNTyDC9S2dwLCRruF7rIXpIElZ8gVxIdbZo6/bymE5QUdF/bHPz
Cqeuvkhe5dbh2Sp8Mm5O/Qj2WlRJI3PDuQcY0e+zrPiK3JSWpJA6jnTf5g03G71b
tyUaVjnab5GqXhx08/l8FAGDEmV2x7v+NluV6XJlg+0+mDBx+ofdozZaMAMuJuBh
0b8CP7YGH0qJKBxcov9OvpTmjODagvGdKTJIMHO0BPZCHr734jIyJzydiS9wPoWa
b1zFCcCMMi9yIsnSlR+2rHJgcreCTWvOW+MA0NIvWMbgEOVRyk07LuZ+q4TWVvGT
NaCTZCaBdS+RtRYGOAvbzC0HAgMBAAGjggEOMIIBCjALBgNVHQ8EBAMCBaAwCQYD
VR0TBAIwADARBglghkgBhvhCAQEEBAMCBkAwMwYJYIZIAYb4QgENBCYWJE9wZW5T
U0wgR2VuZXJhdGVkIFNlcnZlciBDZXJ0aWZpY2F0ZTAdBgNVHQ4EFgQU/BTR8EuN
AJDy9bhxnk6Xw5JUrQswdAYDVR0jBG0wa4AU9KfAzJFGr2TzkfIn+Miyb4qHMnOh
SKRGMEQxCzAJBgNVBAYTAkRFMQ8wDQYDVQQIDAZIZXNzZW4xFDASBgNVBAoMC3By
aXZhY3lpZGVhMQ4wDAYDVQQDDAVDQTAwMYIJAPvI66yDzRIHMBMGA1UdJQQMMAoG
CCsGAQUFBwMBMA0GCSqGSIb3DQEBBQUAA4IBAQArgL0rcVRS0GBdkLtokMqR/5pl
pvNDxdoDK4vo6PbEbtHh2X1Y7QmwwPgHZfCwJGggJluX9N19Wcm81wfSrsRpqI5r
pmoDTDKbN6yDGOMrjEIamvrJ/9AcOVnDr12lyt2l/l3H7IeNDcXaJaZ/oUvNVqGo
TiSYlYtvjYFQ5ghokQzFrOZazs2GVZt5j70RJMeY+0JmRUa1Zuv8Twpg1yaEh7H+
N6//Pr5PSz8KCoynU7Ct6oK2a3dWRKPQTmzXigcr7L26CKcq+5HoMWcobbxRGyjM
7hmrOVpxpY0LIubeM0IBevnmcB2g4ZhaWWr/vuwDY/wYisjp2LcYaGMIyike
-----END CERTIFICATE-----
