Certificate:
    Data:
        Version: 3 (0x2)
        Serial Number: 268435641 (0x100000b9)
    Signature Algorithm: sha1WithRSAEncryption
        Issuer: C=DE, ST=Hessen, O=privacyidea, CN=CA001
        Validity
            Not Before: Oct  1 14:58:23 2015 GMT
            Not After : Sep 30 14:58:23 2016 GMT
        Subject: CN=Steve Test/emailAddress=steve@openssl.org
        Subject Public Key Info:
            Public Key Algorithm: rsaEncryption
                Public-Key: (2048 bit)
                Modulus:
                    00:d2:81:89:20:51:48:0f:73:f4:11:32:24:d5:1f:
                    1c:fd:5c:f5:b6:e6:c5:f0:52:81:dc:d2:af:66:4a:
                    7c:93:31:61:5c:af:d1:6d:06:70:03:60:7c:72:0c:
                    88:dd:49:cd:9e:02:6c:d2:5a:d7:53:0f:f3:da:be:
                    69:64:b5:0f:0c:00:e3:b3:50:47:a3:b3:9b:ba:13:
                    50:d6:58:5a:4b:ab:39:e0:11:ca:0a:27:67:03:78:
                    22:66:6d:92:1e:1b:5c:49:ae:e6:6b:d1:8e:3b:9d:
                    06:d3:c6:ac:4d:53:43:10:ab:e8:96:c1:87:82:97:
                    99:8f:20:d3:99:12:37:31:84:e1:8a:ff:29:03:5f:
                    22:90:3e:7f:9b:e0:20:c1:ad:dc:ae:4c:39:1a:31:
                    96:17:02:8c:b2:d9:b4:0d:20:12:9b:7d:86:54:fd:
                    33:fd:c1:2a:62:46:f8:60:96:cf:6e:01:6f:22:df:
                    13:47:e7:97:ec:05:72:23:a3:62:f8:fa:ef:ac:9c:
                    72:f0:37:cb:2f:37:cf:90:a8:27:51:86:c6:d7:78:
                    08:8f:7e:25:a2:15:70:a2:fb:1c:b6:15:5e:a0:97:
                    8b:81:4c:09:28:8a:27:3b:94:bc:71:db:5b:71:37:
                    9a:2b:16:e0:6f:b5:c9:f5:4b:4f:20:ba:65:cf:af:
                    ad:ad
                Exponent: 65537 (0x10001)
        X509v3 extensions:
            X509v3 Key Usage: 
                Digital Signature, Key Encipherment
            X509v3 Basic Constraints: 
                CA:FALSE
            Netscape Cert Type: 
                SSL Server
            Netscape Comment: 
                OpenSSL Generated Server Certificate
            X509v3 Subject Key Identifier: 
                E5:25:6D:3E:AF:0D:DD:3F:4C:F2:45:19:39:D5:14:DB:7E:9C:C0:AD
            X509v3 Authority Key Identifier: 
                keyid:F4:A7:C0:CC:91:46:AF:64:F3:91:F2:27:F8:C8:B2:6F:8A:87:32:73
                DirName:/C=DE/ST=Hessen/O=privacyidea/CN=CA001
                serial:FB:C8:EB:AC:83:CD:12:07

            X509v3 Extended Key Usage: 
                TLS Web Server Authentication
    Signature Algorithm: sha1WithRSAEncryption
         1b:21:05:7b:d7:68:5d:89:20:9a:b5:92:dc:d9:44:c9:93:ae:
         f8:05:49:14:a4:01:d0:11:3b:05:87:6a:92:73:46:61:cd:a6:
         c0:72:db:93:f3:af:2b:06:e2:4f:d5:5a:b9:ba:8f:8c:a4:36:
         9d:a3:3e:c4:e5:33:7f:09:dd:f4:82:a4:03:2f:96:0d:13:b1:
         03:46:4d:85:b0:79:2b:ec:fb:79:ad:36:fc:74:39:51:d1:3e:
         51:45:df:d0:d9:fa:5f:ed:b0:17:77:99:62:7a:99:15:16:7f:
         f0:45:66:56:60:b8:2f:8a:4b:51:44:7c:58:fc:03:a5:b4:27:
         0f:d5:3c:fc:bb:ff:32:a5:ba:e5:6c:4a:b5:09:41:31:c4:12:
         66:38:65:49:28:c3:90:19:9b:97:d5:cb:c1:38:08:f1:2e:c9:
         56:50:c7:3f:e9:0b:6d:0c:9e:1a:f4:73:be:52:5f:07:dd:89:
         98:f0:ca:e1:e4:8c:9a:d0:f7:19:bb:0c:77:2c:fa:66:88:61:
         18:ff:78:83:39:e1:ea:b0:41:b4:8b:ac:5f:69:e3:3f:f9:c7:
         6f:d4:5e:51:dc:bc:49:47:32:a9:c2:3e:12:07:38:cd:3d:86:
         5b:ed:60:c7:b4:de:2f:6f:6a:e9:df:ac:a9:e9:42:e7:25:c6:
         7c:cf:ed:d6
-----BEGIN CERTIFICATE-----
MIIECTCCAvGgAwIBAgIEEAAAuTANBgkqhkiG9w0BAQUFADBEMQswCQYDVQQGEwJE
RTEPMA0GA1UECAwGSGVzc2VuMRQwEgYDVQQKDAtwcml2YWN5aWRlYTEOMAwGA1UE
AwwFQ0EwMDEwHhcNMTUxMDAxMTQ1ODIzWhcNMTYwOTMwMTQ1ODIzWjA3MRMwEQYD
VQQDEwpTdGV2ZSBUZXN0MSAwHgYJKoZIhvcNAQkBFhFzdGV2ZUBvcGVuc3NsLm9y
ZzCCASIwDQYJKoZIhvcNAQEBBQADggEPADCCAQoCggEBANKBiSBRSA9z9BEyJNUf
HP1c9bbmxfBSgdzSr2ZKfJMxYVyv0W0GcANgfHIMiN1JzZ4CbNJa11MP89q+aWS1
DwwA47NQR6Ozm7oTUNZYWkurOeARygonZwN4ImZtkh4bXEmu5mvRjjudBtPGrE1T
QxCr6JbBh4KXmY8g05kSNzGE4Yr/KQNfIpA+f5vgIMGt3K5MORoxlhcCjLLZtA0g
Ept9hlT9M/3BKmJG+GCWz24BbyLfE0fnl+wFciOjYvj676yccvA3yy83z5CoJ1GG
xtd4CI9+JaIVcKL7HLYVXqCXi4FMCSiKJzuUvHHbW3E3misW4G+1yfVLTyC6Zc+v
ra0CAwEAAaOCAQ4wggEKMAsGA1UdDwQEAwIFoDAJBgNVHRMEAjAAMBEGCWCGSAGG
+EIBAQQEAwIGQDAzBglghkgBhvhCAQ0EJhYkT3BlblNTTCBHZW5lcmF0ZWQgU2Vy
dmVyIENlcnRpZmljYXRlMB0GA1UdDgQWBBTlJW0+rw3dP0zyRRk51RTbfpzArTB0
BgNVHSMEbTBrgBT0p8DMkUavZPOR8if4yLJviocyc6FIpEYwRDELMAkGA1UEBhMC
REUxDzANBgNVBAgMBkhlc3NlbjEUMBIGA1UECgwLcHJpdmFjeWlkZWExDjAMBgNV
BAMMBUNBMDAxggkA+8jrrIPNEgcwEwYDVR0lBAwwCgYIKwYBBQUHAwEwDQYJKoZI
hvcNAQEFBQADggEBABshBXvXaF2JIJq1ktzZRMmTrvgFSRSkAdAROwWHapJzRmHN
psBy25PzrysG4k/VWrm6j4ykNp2jPsTlM38J3fSCpAMvlg0TsQNGTYWweSvs+3mt
Nvx0OVHRPlFF39DZ+l/tsBd3mWJ6mRUWf/BFZlZguC+KS1FEfFj8A6W0Jw/VPPy7
/zKluuVsSrUJQTHEEmY4ZUkow5AZm5fVy8E4CPEuyVZQxz/pC20Mnhr0c75SXwfd
iZjwyuHkjJrQ9xm7DHcs+maIYRj/eIM54eqwQbSLrF9p4z/5x2/UXlHcvElHMqnC
PhIHOM09hlvtYMe03i9vaunfrKnpQuclxnzP7dY=
-----END CERTIFICATE-----
