Certificate:
    Data:
        Version: 3 (0x2)
        Serial Number: 268435639 (0x100000b7)
    Signature Algorithm: sha1WithRSAEncryption
        Issuer: C=DE, ST=Hessen, O=privacyidea, CN=CA001
        Validity
            Not Before: Oct  1 14:58:23 2015 GMT
            Not After : Sep 30 14:58:23 2016 GMT
        Subject: C=DE, ST=Hessen, O=privacyidea, CN=requester.localdomain
        Subject Public Key Info:
            Public Key Algorithm: rsaEncryption
                Public-Key: (2048 bit)
                Modulus:
                    00:cd:be:14:4f:fa:ce:01:3f:42:22:1b:1d:9c:af:
                    dd:92:d2:7f:db:6c:b7:3e:39:43:43:6b:13:03:f1:
                    05:f4:07:74:bc:76:69:28:0b:af:19:8e:d7:fc:e3:
                    cd:c6:58:f2:ca:7f:08:6d:53:fc:07:02:44:24:c6:
                    b4:34:4c:8c:04:fe:33:0e:40:e2:20:ba:02:73:5a:
                    f7:f5:4f:63:6e:cc:c6:b6:df:54:1d:37:39:7d:51:
                    36:26:5f:bd:dc:3f:a8:8b:6b:a2:ae:b6:9d:d6:21:
                    e7:df:41:b8:7a:28:2a:68:48:ca:a8:2d:ed:e1:e9:
                    46:5e:5a:72:6d:b4:84:38:87:91:fd:94:11:0b:28:
                    84:c6:c2:2f:2a:fb:01:f9:36:7a:09:75:d1:33:88:
                    3c:73:41:5b:c8:bf:94:89:70:a1:f0:c0:b9:2e:50:
                    53:1e:b1:17:64:69:f4:2d:81:e0:a9:0d:0e:32:e9:
                    ba:55:8a:85:f1:1b:6f:49:79:b4:7f:88:c3:0d:3e:
                    54:88:9b:3d:1f:38:8c:04:f3:ee:6a:63:2b:f5:c6:
                    db:b4:83:aa:c4:78:41:3a:7d:4b:e1:c8:3e:71:ca:
                    1b:61:59:ea:c6:c4:ca:32:5e:c9:e9:bf:12:29:e6:
                    c6:c3:63:fe:a0:55:da:7a:f1:60:98:4d:26:ed:fa:
                    70:2d
                Exponent: 65537 (0x10001)
        X509v3 extensions:
            X509v3 Key Usage: 
                Digital Signature, Key Encipherment
            X509v3 Basic Constraints: 
                CA:FALSE
            Netscape Cert Type: 
                SSL Server
            Netscape Comment: 
                OpenSSL Generated Server Certificate
            X509v3 Subject Key Identifier: 
                53:3F:ED:5D:09:07:B3:65:7B:AB:45:C9:24:5B:09:77:80:0A:96:ED
            X509v3 Authority Key Identifier: 
                keyid:F4:A7:C0:CC:91:46:AF:64:F3:91:F2:27:F8:C8:B2:6F:8A:87:32:73
                DirName:/C=DE/ST=Hessen/O=privacyidea/CN=CA001
                serial:FB:C8:EB:AC:83:CD:12:07

            X509v3 Extended Key Usage: 
                TLS Web Server Authentication
    Signature Algorithm: sha1WithRSAEncryption
         12:af:8d:bd:43:da:94:e7:f7:7f:f6:16:2b:da:5f:1d:96:1b:
         73:10:d4:c8:56:15:0e:a7:2e:01:06:f2:5a:0f:f6:9b:c3:62:
         90:a6:1a:44:1f:8a:b1:73:e7:58:03:2c:bd:db:af:3e:ae:5a:
         31:17:5c:af:1b:61:6f:ae:c2:6c:42:07:0a:53:8f:8d:5e:e0:
         96:a6:47:34:9a:29:5b:8e:d4:4c:29:85:5f:5e:63:51:3f:d0:
         01:6b:9d:6e:26:32:89:5d:22:7b:d2:62:ea:4f:1e:37:57:92:
         8b:a5:f3:f5:a7:6f:48:e4:ae:28:9f:3e:6b:d9:10:cd:39:4f:
         a5:d8:a6:7d:af:c8:c3:be:c8:b6:7f:79:84:03:82:fd:6e:8a:
         e4:3e:e9:ef:ad:fe:c4:b4:2d:78:5c:7d:17:bd:43:5c:f2:f5:
         e3:25:be:7c:28:b7:8a:07:63:83:69:d3:75:f0:00:36:ce:d2:
         bc:f2:eb:4e:c8:01:28:d8:d9:6b:28:dc:30:3b:7f:b0:e8:40:
         fd:15:c0:cf:71:50:cb:16:5e:38:1e:75:12:ab:19:ac:99:69:
         2a:7f:ba:c1:04:fa:b7:78:ab:10:c2:84:37:60:c2:ad:e4:e0:
         c0:d2:04:69:e3:27:cc:6a:b0:c9:b2:6f:a3:c8:a9:77:e2:62:
         fd:f5:42:41
-----BEGIN CERTIFICATE-----
MIIEJjCCAw6gAwIBAgIEEAAAtzANBgkqhkiG9w0BAQUFADBEMQswCQYDVQQGEwJE
RTEPMA0GA1UECAwGSGVzc2VuMRQwEgYDVQQKDAtwcml2YWN5aWRlYTEOMAwGA1UE
AwwFQ0EwMDEwHhcNMTUxMDAxMTQ1ODIzWhcNMTYwOTMwMTQ1ODIzWjBUMQswCQYD
VQQGEwJERTEPMA0GA1UECAwGSGVzc2VuMRQwEgYDVQQKDAtwcml2YWN5aWRlYTEe
MBwGA1UEAwwVcmVxdWVzdGVyLmxvY2FsZG9tYWluMIIBIjANBgkqhkiG9w0BAQEF
AAOCAQ8AMIIBCgKCAQEAzb4UT/rOAT9CIhsdnK/dktJ/22y3PjlDQ2sTA/EF9Ad0
vHZpKAuvGY7X/OPNxljyyn8IbVP8BwJEJMa0NEyMBP4zDkDiILoCc1r39U9jbszG
tt9UHTc5fVE2Jl+93D+oi2uirrad1iHn30G4eigqaEjKqC3t4elGXlpybbSEOIeR
/ZQRCyiExsIvKvsB+TZ6CXXRM4g8c0FbyL+UiXCh8MC5LlBTHrEXZGn0LYHgqQ0O
Mum6VYqF8RtvSXm0f4jDDT5UiJs9HziMBPPuamMr9cbbtIOqxHhBOn1L4cg+ccob
YVnqxsTKMl7J6b8SKebGw2P+oFXaevFgmE0m7fpwLQIDAQABo4IBDjCCAQowCwYD
VR0PBAQDAgWgMAkGA1UdEwQCMAAwEQYJYIZIAYb4QgEBBAQDAgZAMDMGCWCGSAGG
+EIBDQQmFiRPcGVuU1NMIEdlbmVyYXRlZCBTZXJ2ZXIgQ2VydGlmaWNhdGUwHQYD
VR0OBBYEFFM/7V0JB7Nle6tFySRbCXeACpbtMHQGA1UdIwRtMGuAFPSnwMyRRq9k
85HyJ/jIsm+KhzJzoUikRjBEMQswCQYDVQQGEwJERTEPMA0GA1UECAwGSGVzc2Vu
MRQwEgYDVQQKDAtwcml2YWN5aWRlYTEOMAwGA1UEAwwFQ0EwMDGCCQD7yOusg80S
BzATBgNVHSUEDDAKBggrBgEFBQcDATANBgkqhkiG9w0BAQUFAAOCAQEAEq+NvUPa
lOf3f/YWK9pfHZYbcxDUyFYVDqcuAQbyWg/2m8NikKYaRB+KsXPnWAMsvduvPq5a
MRdcrxthb67CbEIHClOPjV7glqZHNJopW47UTCmFX15jUT/QAWudbiYyiV0ie9Ji
6k8eN1eSi6Xz9advSOSuKJ8+a9kQzTlPpdimfa/Iw77Itn95hAOC/W6K5D7p763+
xLQteFx9F71DXPL14yW+fCi3igdjg2nTdfAANs7SvPLrTsgBKNjZayjcMDt/sOhA
/RXAz3FQyxZeOB51EqsZrJlpKn+6wQT6t3irEMKEN2DCreTgwNIEaeMnzGqwybJv
o8ipd+Ji/fVCQQ==
-----END CERTIFICATE-----
