Certificate:
    Data:
        Version: 3 (0x2)
        Serial Number: 268435638 (0x100000b6)
    Signature Algorithm: sha1WithRSAEncryption
        Issuer: C=DE, ST=Hessen, O=privacyidea, CN=CA001
        Validity
            Not Before: Oct  1 14:57:50 2015 GMT
            Not After : Sep 30 14:57:50 2016 GMT
        Subject: C=DE, ST=Hessen, O=privacyidea, CN=requester.localdomain
        Subject Public Key Info:
            Public Key Algorithm: rsaEncryption
                Public-Key: (2048 bit)
                Modulus:
                    00:cd:be:14:4f:fa:ce:01:3f:42:22:1b:1d:9c:af:
                    dd:92:d2:7f:db:6c:b7:3e:39:43:43:6b:13:03:f1:
                    05:f4:07:74:bc:76:69:28:0b:af:19:8e:d7:fc:e3:
                    cd:c6:58:f2:ca:7f:08:6d:53:fc:07:02:44:24:c6:
                    b4:34:4c:8c:04:fe:33:0e:40:e2:20:ba:02:73:5a:
                    f7:f5:4f:63:6e:cc:c6:b6:df:54:1d:37:39:7d:51:
                    36:26:5f:bd:dc:3f:a8:8b:6b:a2:ae:b6:9d:d6:21:
                    e7:df:41:b8:7a:28:2a:68:48:ca:a8:2d:ed:e1:e9:
                    46:5e:5a:72:6d:b4:84:38:87:91:fd:94:11:0b:28:
                    84:c6:c2:2f:2a:fb:01:f9:36:7a:09:75:d1:33:88:
                    3c:73:41:5b:c8:bf:94:89:70:a1:f0:c0:b9:2e:50:
                    53:1e:b1:17:64:69:f4:2d:81:e0:a9:0d:0e:32:e9:
                    ba:55:8a:85:f1:1b:6f:49:79:b4:7f:88:c3:0d:3e:
                    54:88:9b:3d:1f:38:8c:04:f3:ee:6a:63:2b:f5:c6:
                    db:b4:83:aa:c4:78:41:3a:7d:4b:e1:c8:3e:71:ca:
                    1b:61:59:ea:c6:c4:ca:32:5e:c9:e9:bf:12:29:e6:
                    c6:c3:63:fe:a0:55:da:7a:f1:60:98:4d:26:ed:fa:
                    70:2d
                Exponent: 65537 (0x10001)
        X509v3 extensions:
            X509v3 Key Usage: 
                Digital Signature, Key Encipherment
            X509v3 Basic Constraints: 
                CA:FALSE
            Netscape Cert Type: 
                SSL Server
            Netscape Comment: 
                OpenSSL Generated Server Certificate
            X509v3 Subject Key Identifier: 
                53:3F:ED:5D:09:07:B3:65:7B:AB:45:C9:24:5B:09:77:80:0A:96:ED
            X509v3 Authority Key Identifier: 
                keyid:F4:A7:C0:CC:91:46:AF:64:F3:91:F2:27:F8:C8:B2:6F:8A:87:32:73
                DirName:/C=DE/ST=Hessen/O=privacyidea/CN=CA001
                serial:FB:C8:EB:AC:83:CD:12:07

            X509v3 Extended Key Usage: 
                TLS Web Server Authentication
    Signature Algorithm: sha1WithRSAEncryption
         b8:27:de:b7:96:45:0b:8a:af:4c:b5:0a:95:46:b2:50:db:ca:
         d9:0c:0c:5c:e4:dd:08:69:e4:28:75:7f:d7:6d:4b:45:11:c0:
         33:53:b5:de:a2:19:07:ae:25:10:ba:91:45:e0:c7:55:fb:61:
         75:99:5b:29:fb:06:ca:fb:eb:ce:29:30:e3:81:e7:cc:d8:c1:
         66:50:ba:63:b1:37:06:19:20:3a:b3:bd:90:88:cb:e1:cf:61:
         b2:fb:c5:a6:56:e4:c8:ef:80:be:7e:e0:9a:80:bc:58:59:e4:
         78:4d:d1:4c:7b:76:8a:c1:da:81:db:42:57:e8:42:ea:bf:12:
         ad:55:98:a5:ad:05:1e:71:6e:a0:ee:55:47:92:de:66:c7:f1:
         cc:93:bd:2c:2a:94:2e:50:cc:9f:d6:fc:4e:bc:5d:83:05:b4:
         4a:0d:64:cc:d6:65:9f:08:61:7f:20:4f:eb:39:b1:8e:da:ea:
         63:50:b3:4d:92:78:0c:12:b0:b6:22:b3:22:77:04:47:b9:2d:
         1d:36:29:8f:67:26:e8:b1:e5:67:fc:34:c7:87:ef:f2:d0:2a:
         89:4b:d7:ee:b2:e6:fe:2b:f7:8e:cb:d4:43:3e:20:20:2f:53:
         70:fa:ba:5b:5c:27:c5:3c:24:a2:5c:af:e3:03:5a:31:78:a4:
         df:a9:d2:96
-----BEGIN CERTIFICATE-----
MIIEJjCCAw6gAwIBAgIEEAAAtjANBgkqhkiG9w0BAQUFADBEMQswCQYDVQQGEwJE
RTEPMA0GA1UECAwGSGVzc2VuMRQwEgYDVQQKDAtwcml2YWN5aWRlYTEOMAwGA1UE
AwwFQ0EwMDEwHhcNMTUxMDAxMTQ1NzUwWhcNMTYwOTMwMTQ1NzUwWjBUMQswCQYD
VQQGEwJERTEPMA0GA1UECAwGSGVzc2VuMRQwEgYDVQQKDAtwcml2YWN5aWRlYTEe
MBwGA1UEAwwVcmVxdWVzdGVyLmxvY2FsZG9tYWluMIIBIjANBgkqhkiG9w0BAQEF
AAOCAQ8AMIIBCgKCAQEAzb4UT/rOAT9CIhsdnK/dktJ/22y3PjlDQ2sTA/EF9Ad0
vHZpKAuvGY7X/OPNxljyyn8IbVP8BwJEJMa0NEyMBP4zDkDiILoCc1r39U9jbszG
tt9UHTc5fVE2Jl+93D+oi2uirrad1iHn30G4eigqaEjKqC3t4elGXlpybbSEOIeR
/ZQRCyiExsIvKvsB+TZ6CXXRM4g8c0FbyL+UiXCh8MC5LlBTHrEXZGn0LYHgqQ0O
Mum6VYqF8RtvSXm0f4jDDT5UiJs9HziMBPPuamMr9cbbtIOqxHhBOn1L4cg+ccob
YVnqxsTKMl7J6b8SKebGw2P+oFXaevFgmE0m7fpwLQIDAQABo4IBDjCCAQowCwYD
VR0PBAQDAgWgMAkGA1UdEwQCMAAwEQYJYIZIAYb4QgEBBAQDAgZAMDMGCWCGSAGG
+EIBDQQmFiRPcGVuU1NMIEdlbmVyYXRlZCBTZXJ2ZXIgQ2VydGlmaWNhdGUwHQYD
VR0OBBYEFFM/7V0JB7Nle6tFySRbCXeACpbtMHQGA1UdIwRtMGuAFPSnwMyRRq9k
85HyJ/jIsm+KhzJzoUikRjBEMQswCQYDVQQGEwJERTEPMA0GA1UECAwGSGVzc2Vu
MRQwEgYDVQQKDAtwcml2YWN5aWRlYTEOMAwGA1UEAwwFQ0EwMDGCCQD7yOusg80S
BzATBgNVHSUEDDAKBggrBgEFBQcDATANBgkqhkiG9w0BAQUFAAOCAQEAuCfet5ZF
C4qvTLUKlUayUNvK2QwMXOTdCGnkKHV/121LRRHAM1O13qIZB64lELqRReDHVfth
dZlbKfsGyvvrzikw44HnzNjBZlC6Y7E3BhkgOrO9kIjL4c9hsvvFplbkyO+Avn7g
moC8WFnkeE3RTHt2isHagdtCV+hC6r8SrVWYpa0FHnFuoO5VR5LeZsfxzJO9LCqU
LlDMn9b8TrxdgwW0Sg1kzNZlnwhhfyBP6zmxjtrqY1CzTZJ4DBKwtiKzIncER7kt
HTYpj2cm6LHlZ/w0x4fv8tAqiUvX7rLm/iv3jsvUQz4gIC9TcPq6W1wnxTwkolyv
4wNaMXik36nSlg==
-----END CERTIFICATE-----
