Certificate:
    Data:
        Version: 3 (0x2)
        Serial Number: 268435643 (0x100000bb)
    Signature Algorithm: sha1WithRSAEncryption
        Issuer: C=DE, ST=Hessen, O=privacyidea, CN=CA001
        Validity
            Not Before: Oct  1 15:00:15 2015 GMT
            Not After : Sep 30 15:00:15 2016 GMT
        Subject: CN=selfservice,CN=user,O=realm1/emailAddress=meine
        Subject Public Key Info:
            Public Key Algorithm: rsaEncryption
                Public-Key: (2048 bit)
                Modulus:
                    00:cf:3c:d4:33:0e:12:c4:e6:da:cd:b6:56:a1:1c:
                    26:bb:26:1c:8a:4a:73:a8:58:8a:b6:1e:b3:8b:99:
                    d2:1d:07:c2:92:89:79:c0:69:d8:c8:df:28:61:98:
                    1e:b3:fe:ae:2b:bd:78:a9:f7:6e:47:dc:a3:a0:16:
                    8c:85:02:c1:4e:92:fd:72:6e:f0:c8:03:29:9b:b8:
                    00:6e:c0:83:95:c8:34:20:36:9c:b3:e5:e4:e6:76:
                    73:a3:1a:ad:40:96:e0:53:54:00:ec:76:79:9a:c6:
                    0d:7e:b6:bd:29:ec:83:f3:cb:89:a4:cb:6c:00:ba:
                    0c:c5:78:0f:ff:69:b8:94:f4:04:70:43:3f:d8:9e:
                    d7:a7:fb:5d:ce:75:8e:da:e7:c4:07:b1:9d:de:6f:
                    88:4b:b6:4d:9a:cf:f9:bc:fa:9f:cd:32:6d:f6:3a:
                    0b:0d:23:42:78:ec:97:42:bf:0e:4d:60:56:e1:d3:
                    02:f2:19:cb:84:57:90:e5:70:a1:a2:83:35:86:e2:
                    da:86:9f:f9:8a:c4:79:b3:52:28:da:cb:bb:34:ca:
                    d3:da:91:4a:cf:8d:76:a2:b2:6b:9b:f9:96:fd:09:
                    2a:da:11:23:4d:f0:cb:d6:b2:b1:0e:12:6c:9a:19:
                    65:98:87:ca:e4:ee:24:ce:44:ac:90:8f:9d:1b:c5:
                    2a:9d
                Exponent: 65537 (0x10001)
        X509v3 extensions:
            X509v3 Key Usage: 
                Digital Signature, Key Encipherment
            X509v3 Basic Constraints: 
                CA:FALSE
            Netscape Cert Type: 
                SSL Server
            Netscape Comment: 
                OpenSSL Generated Server Certificate
            X509v3 Subject Key Identifier: 
                4D:07:90:AD:FF:1D:0D:E7:1A:DD:D6:2E:FA:BA:34:CB:AA:1F:24:C6
            X509v3 Authority Key Identifier: 
                keyid:F4:A7:C0:CC:91:46:AF:64:F3:91:F2:27:F8:C8:B2:6F:8A:87:32:73
                DirName:/C=DE/ST=Hessen/O=privacyidea/CN=CA001
                serial:FB:C8:EB:AC:83:CD:12:07

            X509v3 Extended Key Usage: 
                TLS Web Server Authentication
    Signature Algorithm: sha1WithRSAEncryption
         a3:d4:9d:0f:b4:49:32:0e:02:a5:db:48:9b:40:d3:a0:6e:63:
         bd:b7:04:d8:ca:cd:54:0e:41:d7:4d:9d:0a:6f:86:f5:15:72:
         d8:27:de:f4:3b:a6:25:37:f9:de:75:4a:2a:23:9d:fa:b1:2c:
         2a:24:32:90:b8:d8:5b:04:c3:1d:32:4c:53:e1:74:bc:60:00:
         e6:94:52:3a:4d:25:10:65:39:ce:0c:01:d1:6c:13:cc:2e:68:
         e1:09:1b:5e:e4:d8:a7:05:c2:26:d6:63:0d:84:dd:ad:17:b8:
         a3:85:22:74:8f:86:c4:d4:70:dd:b7:bb:24:4d:fe:dd:35:06:
         15:e0:5e:bf:e1:bc:84:03:4e:0e:7a:01:1b:74:c0:25:4a:ba:
         47:bf:f5:6a:2c:6c:4c:64:f5:9b:27:a1:3d:05:d3:0c:ab:2f:
         b9:a4:84:de:88:37:68:25:18:b3:7a:0e:63:15:af:ab:73:ef:
         0b:4d:01:d6:28:58:f9:20:bd:ad:1a:6d:80:bd:b2:0f:4a:b0:
         b6:04:e2:25:1b:4c:7f:20:d7:ac:b4:ad:14:99:41:2a:17:6d:
         77:75:ec:1c:a7:65:3a:d8:2c:d1:39:ee:5d:50:16:a0:05:b4:
         31:07:43:b6:d8:5f:92:52:c1:4e:4b:af:85:5b:62:56:59:86:
         1d:79:95:ef
-----BEGIN CERTIFICATE-----
MIIEDzCCAvegAwIBAgIEEAAAuzANBgkqhkiG9w0BAQUFADBEMQswCQYDVQQGEwJE
RTEPMA0GA1UECAwGSGVzc2VuMRQwEgYDVQQKDAtwcml2YWN5aWRlYTEOMAwGA1UE
AwwFQ0EwMDEwHhcNMTUxMDAxMTUwMDE1WhcNMTYwOTMwMTUwMDE1WjA9MSUwIwYD
VQQDExxzZWxmc2VydmljZSxDTj11c2VyLE89cmVhbG0xMRQwEgYJKoZIhvcNAQkB
FgVtZWluZTCCASIwDQYJKoZIhvcNAQEBBQADggEPADCCAQoCggEBAM881DMOEsTm
2s22VqEcJrsmHIpKc6hYirYes4uZ0h0HwpKJecBp2MjfKGGYHrP+riu9eKn3bkfc
o6AWjIUCwU6S/XJu8MgDKZu4AG7Ag5XINCA2nLPl5OZ2c6MarUCW4FNUAOx2eZrG
DX62vSnsg/PLiaTLbAC6DMV4D/9puJT0BHBDP9ie16f7Xc51jtrnxAexnd5viEu2
TZrP+bz6n80ybfY6Cw0jQnjsl0K/Dk1gVuHTAvIZy4RXkOVwoaKDNYbi2oaf+YrE
ebNSKNrLuzTK09qRSs+NdqKya5v5lv0JKtoRI03wy9aysQ4SbJoZZZiHyuTuJM5E
rJCPnRvFKp0CAwEAAaOCAQ4wggEKMAsGA1UdDwQEAwIFoDAJBgNVHRMEAjAAMBEG
CWCGSAGG+EIBAQQEAwIGQDAzBglghkgBhvhCAQ0EJhYkT3BlblNTTCBHZW5lcmF0
ZWQgU2VydmVyIENlcnRpZmljYXRlMB0GA1UdDgQWBBRNB5Ct/x0N5xrd1i76ujTL
qh8kxjB0BgNVHSMEbTBrgBT0p8DMkUavZPOR8if4yLJviocyc6FIpEYwRDELMAkG
A1UEBhMCREUxDzANBgNVBAgMBkhlc3NlbjEUMBIGA1UECgwLcHJpdmFjeWlkZWEx
DjAMBgNVBAMMBUNBMDAxggkA+8jrrIPNEgcwEwYDVR0lBAwwCgYIKwYBBQUHAwEw
DQYJKoZIhvcNAQEFBQADggEBAKPUnQ+0STIOAqXbSJtA06BuY723BNjKzVQOQddN
nQpvhvUVctgn3vQ7piU3+d51SiojnfqxLCokMpC42FsEwx0yTFPhdLxgAOaUUjpN
JRBlOc4MAdFsE8wuaOEJG17k2KcFwibWYw2E3a0XuKOFInSPhsTUcN23uyRN/t01
BhXgXr/hvIQDTg56ARt0wCVKuke/9WosbExk9ZsnoT0F0wyrL7mkhN6IN2glGLN6
DmMVr6tz7wtNAdYoWPkgva0abYC9sg9KsLYE4iUbTH8g16y0rRSZQSoXbXd17Byn
ZTrYLNE57l1QFqAFtDEHQ7bYX5JSwU5Lr4VbYlZZhh15le8=
-----END CERTIFICATE-----
