Certificate:
    Data:
        Version: 3 (0x2)
        Serial Number: 268435642 (0x100000ba)
    Signature Algorithm: sha1WithRSAEncryption
        Issuer: C=DE, ST=Hessen, O=privacyidea, CN=CA001
        Validity
            Not Before: Oct  1 14:59:15 2015 GMT
            Not After : Sep 30 14:59:15 2016 GMT
        Subject: C=DE, ST=Hessen, O=privacyidea, CN=requester.localdomain
        Subject Public Key Info:
            Public Key Algorithm: rsaEncryption
                Public-Key: (2048 bit)
                Modulus:
                    00:cd:be:14:4f:fa:ce:01:3f:42:22:1b:1d:9c:af:
                    dd:92:d2:7f:db:6c:b7:3e:39:43:43:6b:13:03:f1:
                    05:f4:07:74:bc:76:69:28:0b:af:19:8e:d7:fc:e3:
                    cd:c6:58:f2:ca:7f:08:6d:53:fc:07:02:44:24:c6:
                    b4:34:4c:8c:04:fe:33:0e:40:e2:20:ba:02:73:5a:
                    f7:f5:4f:63:6e:cc:c6:b6:df:54:1d:37:39:7d:51:
                    36:26:5f:bd:dc:3f:a8:8b:6b:a2:ae:b6:9d:d6:21:
                    e7:df:41:b8:7a:28:2a:68:48:ca:a8:2d:ed:e1:e9:
                    46:5e:5a:72:6d:b4:84:38:87:91:fd:94:11:0b:28:
                    84:c6:c2:2f:2a:fb:01:f9:36:7a:09:75:d1:33:88:
                    3c:73:41:5b:c8:bf:94:89:70:a1:f0:c0:b9:2e:50:
                    53:1e:b1:17:64:69:f4:2d:81:e0:a9:0d:0e:32:e9:
                    ba:55:8a:85:f1:1b:6f:49:79:b4:7f:88:c3:0d:3e:
                    54:88:9b:3d:1f:38:8c:04:f3:ee:6a:63:2b:f5:c6:
                    db:b4:83:aa:c4:78:41:3a:7d:4b:e1:c8:3e:71:ca:
                    1b:61:59:ea:c6:c4:ca:32:5e:c9:e9:bf:12:29:e6:
                    c6:c3:63:fe:a0:55:da:7a:f1:60:98:4d:26:ed:fa:
                    70:2d
                Exponent: 65537 (0x10001)
        X509v3 extensions:
            X509v3 Key Usage: 
                Digital Signature, Key Encipherment
            X509v3 Basic Constraints: 
                CA:FALSE
            Netscape Cert Type: 
                SSL Server
            Netscape Comment: 
                OpenSSL Generated Server Certificate
            X509v3 Subject Key Identifier: 
                53:3F:ED:5D:09:07:B3:65:7B:AB:45:C9:24:5B:09:77:80:0A:96:ED
            X509v3 Authority Key Identifier: 
                keyid:F4:A7:C0:CC:91:46:AF:64:F3:91:F2:27:F8:C8:B2:6F:8A:87:32:73
                DirName:/C=DE/ST=Hessen/O=privacyidea/CN=CA001
                serial:FB:C8:EB:AC:83:CD:12:07

            X509v3 Extended Key Usage: 
                TLS Web Server Authentication
    Signature Algorithm: sha1WithRSAEncryption
         b1:f4:fe:7c:af:7d:bf:5a:a6:02:5c:f5:05:1c:54:7f:6e:2e:
         c8:63:d0:51:60:37:cb:04:03:c3:4f:d9:9d:52:6b:5d:91:2a:
         73:c0:ae:0d:f2:25:a1:9d:f6:e6:b5:5c:7c:37:7c:03:2c:86:
         e6:c1:1c:22:bc:64:1c:e2:02:f1:d0:26:0e:ef:b7:40:01:8e:
         ac:4d:ee:91:0a:31:0c:d7:07:a2:9e:f6:ff:47:54:a7:fe:1a:
         2c:21:db:26:94:8b:04:b7:a6:19:a5:8e:c7:5e:10:5c:d3:5e:
         e6:ce:e5:6f:ee:f1:d3:45:ef:a6:86:b5:09:73:00:ec:3f:d4:
         20:0a:ed:b9:47:e4:ac:5a:48:44:5b:eb:7c:24:16:64:36:11:
         b1:22:2c:61:bf:d2:d5:a5:43:2a:4d:35:06:df:f4:db:6d:33:
         25:ce:43:9a:e0:00:f2:20:59:59:4f:95:25:4d:50:02:7a:a2:
         18:e0:0e:27:f1:40:a6:11:e3:e8:c2:27:95:0b:b2:06:f2:b0:
         88:d5:e1:5c:a1:01:6f:b0:e8:d4:31:f6:65:86:d7:cf:f4:8b:
         c4:78:20:ef:b5:c0:16:54:7a:f4:9d:c3:48:ee:a5:95:05:12:
         07:18:e4:27:33:c2:e9:5d:b4:71:e6:cf:fb:55:af:e1:62:35:
         ff:92:f8:15
-----BEGIN CERTIFICATE-----
MIIEJjCCAw6gAwIBAgIEEAAAujANBgkqhkiG9w0BAQUFADBEMQswCQYDVQQGEwJE
RTEPMA0GA1UECAwGSGVzc2VuMRQwEgYDVQQKDAtwcml2YWN5aWRlYTEOMAwGA1UE
AwwFQ0EwMDEwHhcNMTUxMDAxMTQ1OTE1WhcNMTYwOTMwMTQ1OTE1WjBUMQswCQYD
VQQGEwJERTEPMA0GA1UECAwGSGVzc2VuMRQwEgYDVQQKDAtwcml2YWN5aWRlYTEe
MBwGA1UEAwwVcmVxdWVzdGVyLmxvY2FsZG9tYWluMIIBIjANBgkqhkiG9w0BAQEF
AAOCAQ8AMIIBCgKCAQEAzb4UT/rOAT9CIhsdnK/dktJ/22y3PjlDQ2sTA/EF9Ad0
vHZpKAuvGY7X/OPNxljyyn8IbVP8BwJEJMa0NEyMBP4zDkDiILoCc1r39U9jbszG
tt9UHTc5fVE2Jl+93D+oi2uirrad1iHn30G4eigqaEjKqC3t4elGXlpybbSEOIeR
/ZQRCyiExsIvKvsB+TZ6CXXRM4g8c0FbyL+UiXCh8MC5LlBTHrEXZGn0LYHgqQ0O
Mum6VYqF8RtvSXm0f4jDDT5UiJs9HziMBPPuamMr9cbbtIOqxHhBOn1L4cg+ccob
YVnqxsTKMl7J6b8SKebGw2P+oFXaevFgmE0m7fpwLQIDAQABo4IBDjCCAQowCwYD
VR0PBAQDAgWgMAkGA1UdEwQCMAAwEQYJYIZIAYb4QgEBBAQDAgZAMDMGCWCGSAGG
+EIBDQQmFiRPcGVuU1NMIEdlbmVyYXRlZCBTZXJ2ZXIgQ2VydGlmaWNhdGUwHQYD
VR0OBBYEFFM/7V0JB7Nle6tFySRbCXeACpbtMHQGA1UdIwRtMGuAFPSnwMyRRq9k
85HyJ/jIsm+KhzJzoUikRjBEMQswCQYDVQQGEwJERTEPMA0GA1UECAwGSGVzc2Vu
MRQwEgYDVQQKDAtwcml2YWN5aWRlYTEOMAwGA1UEAwwFQ0EwMDGCCQD7yOusg80S
BzATBgNVHSUEDDAKBggrBgEFBQcDATANBgkqhkiG9w0BAQUFAAOCAQEAsfT+fK99
v1qmAlz1BRxUf24uyGPQUWA3ywQDw0/ZnVJrXZEqc8CuDfIloZ325rVcfDd8AyyG
5sEcIrxkHOIC8dAmDu+3QAGOrE3ukQoxDNcHop72/0dUp/4aLCHbJpSLBLemGaWO
x14QXNNe5s7lb+7x00Xvpoa1CXMA7D/UIArtuUfkrFpIRFvrfCQWZDYRsSIsYb/S
1aVDKk01Bt/0220zJc5DmuAA8iBZWU+VJU1QAnqiGOAOJ/FAphHj6MInlQuyBvKw
iNXhXKEBb7Do1DH2ZYbXz/SLxHgg77XAFlR69J3DSO6llQUSBxjkJzPC6V20cebP
+1Wv4WI1/5L4FQ==
-----END CERTIFICATE-----
