Certificate:
    Data:
        Version: 3 (0x2)
        Serial Number: 268435625 (0x100000a9)
    Signature Algorithm: sha1WithRSAEncryption
        Issuer: C=DE, ST=Hessen, O=privacyidea, CN=CA001
        Validity
            Not Before: Jul  1 14:10:13 2015 GMT
            Not After : Jun 30 14:10:13 2016 GMT
        Subject: C=DE, ST=Hessen, O=privacyidea, CN=requester.localdomain
        Subject Public Key Info:
            Public Key Algorithm: rsaEncryption
                Public-Key: (2048 bit)
                Modulus:
                    00:cd:be:14:4f:fa:ce:01:3f:42:22:1b:1d:9c:af:
                    dd:92:d2:7f:db:6c:b7:3e:39:43:43:6b:13:03:f1:
                    05:f4:07:74:bc:76:69:28:0b:af:19:8e:d7:fc:e3:
                    cd:c6:58:f2:ca:7f:08:6d:53:fc:07:02:44:24:c6:
                    b4:34:4c:8c:04:fe:33:0e:40:e2:20:ba:02:73:5a:
                    f7:f5:4f:63:6e:cc:c6:b6:df:54:1d:37:39:7d:51:
                    36:26:5f:bd:dc:3f:a8:8b:6b:a2:ae:b6:9d:d6:21:
                    e7:df:41:b8:7a:28:2a:68:48:ca:a8:2d:ed:e1:e9:
                    46:5e:5a:72:6d:b4:84:38:87:91:fd:94:11:0b:28:
                    84:c6:c2:2f:2a:fb:01:f9:36:7a:09:75:d1:33:88:
                    3c:73:41:5b:c8:bf:94:89:70:a1:f0:c0:b9:2e:50:
                    53:1e:b1:17:64:69:f4:2d:81:e0:a9:0d:0e:32:e9:
                    ba:55:8a:85:f1:1b:6f:49:79:b4:7f:88:c3:0d:3e:
                    54:88:9b:3d:1f:38:8c:04:f3:ee:6a:63:2b:f5:c6:
                    db:b4:83:aa:c4:78:41:3a:7d:4b:e1:c8:3e:71:ca:
                    1b:61:59:ea:c6:c4:ca:32:5e:c9:e9:bf:12:29:e6:
                    c6:c3:63:fe:a0:55:da:7a:f1:60:98:4d:26:ed:fa:
                    70:2d
                Exponent: 65537 (0x10001)
        X509v3 extensions:
            X509v3 Key Usage: 
                Digital Signature, Key Encipherment
            X509v3 Basic Constraints: 
                CA:FALSE
            Netscape Cert Type: 
                SSL Server
            Netscape Comment: 
                OpenSSL Generated Server Certificate
            X509v3 Subject Key Identifier: 
                53:3F:ED:5D:09:07:B3:65:7B:AB:45:C9:24:5B:09:77:80:0A:96:ED
            X509v3 Authority Key Identifier: 
                keyid:F4:A7:C0:CC:91:46:AF:64:F3:91:F2:27:F8:C8:B2:6F:8A:87:32:73
                DirName:/C=DE/ST=Hessen/O=privacyidea/CN=CA001
                serial:FB:C8:EB:AC:83:CD:12:07

            X509v3 Extended Key Usage: 
                TLS Web Server Authentication
    Signature Algorithm: sha1WithRSAEncryption
         42:35:be:10:18:2f:e2:73:41:30:c9:3b:cc:1b:35:44:c3:bd:
         2d:e0:9d:fe:34:29:da:d3:f0:64:77:0f:10:4e:f1:24:93:c3:
         43:49:59:5c:78:a3:d7:7b:a9:ae:b5:eb:39:b5:c1:3f:ad:37:
         85:e9:45:a2:f3:7f:54:c1:47:0e:1e:8e:64:8d:84:a4:16:d1:
         d5:d2:e7:e0:a7:18:64:a4:9e:15:e5:bf:03:12:60:fc:94:cf:
         a0:77:66:d8:43:ad:1f:69:cd:14:df:e9:35:aa:59:0c:95:e9:
         c0:4b:bb:ad:cc:22:1f:6b:3a:52:11:ee:2a:2f:ce:06:58:3d:
         aa:4e:04:fb:55:5b:66:ba:1c:32:d9:d0:6a:0e:c8:27:1a:45:
         09:df:6d:e0:c6:74:e4:43:06:b5:d5:47:e6:6f:7c:6d:06:93:
         19:2d:d2:97:4b:bd:96:92:80:32:42:9a:fb:1c:9b:45:ee:16:
         f1:96:4a:89:51:70:78:4f:6d:ef:6a:e4:f9:62:70:e2:d8:ab:
         df:f9:4e:08:f4:ee:df:65:95:19:65:a3:24:ee:16:d3:11:1b:
         da:63:ce:a9:30:a4:6e:55:2a:03:ae:18:0c:a7:f7:79:c4:13:
         ef:24:15:fc:72:6a:5f:bf:1e:cc:96:79:0d:8c:8e:da:d3:2d:
         c1:49:d8:f2
-----BEGIN CERTIFICATE-----
MIIEJjCCAw6gAwIBAgIEEAAAqTANBgkqhkiG9w0BAQUFADBEMQswCQYDVQQGEwJE
RTEPMA0GA1UECAwGSGVzc2VuMRQwEgYDVQQKDAtwcml2YWN5aWRlYTEOMAwGA1UE
AwwFQ0EwMDEwHhcNMTUwNzAxMTQxMDEzWhcNMTYwNjMwMTQxMDEzWjBUMQswCQYD
VQQGEwJERTEPMA0GA1UECAwGSGVzc2VuMRQwEgYDVQQKDAtwcml2YWN5aWRlYTEe
MBwGA1UEAwwVcmVxdWVzdGVyLmxvY2FsZG9tYWluMIIBIjANBgkqhkiG9w0BAQEF
AAOCAQ8AMIIBCgKCAQEAzb4UT/rOAT9CIhsdnK/dktJ/22y3PjlDQ2sTA/EF9Ad0
vHZpKAuvGY7X/OPNxljyyn8IbVP8BwJEJMa0NEyMBP4zDkDiILoCc1r39U9jbszG
tt9UHTc5fVE2Jl+93D+oi2uirrad1iHn30G4eigqaEjKqC3t4elGXlpybbSEOIeR
/ZQRCyiExsIvKvsB+TZ6CXXRM4g8c0FbyL+UiXCh8MC5LlBTHrEXZGn0LYHgqQ0O
Mum6VYqF8RtvSXm0f4jDDT5UiJs9HziMBPPuamMr9cbbtIOqxHhBOn1L4cg+ccob
YVnqxsTKMl7J6b8SKebGw2P+oFXaevFgmE0m7fpwLQIDAQABo4IBDjCCAQowCwYD
VR0PBAQDAgWgMAkGA1UdEwQCMAAwEQYJYIZIAYb4QgEBBAQDAgZAMDMGCWCGSAGG
+EIBDQQmFiRPcGVuU1NMIEdlbmVyYXRlZCBTZXJ2ZXIgQ2VydGlmaWNhdGUwHQYD
VR0OBBYEFFM/7V0JB7Nle6tFySRbCXeACpbtMHQGA1UdIwRtMGuAFPSnwMyRRq9k
85HyJ/jIsm+KhzJzoUikRjBEMQswCQYDVQQGEwJERTEPMA0GA1UECAwGSGVzc2Vu
MRQwEgYDVQQKDAtwcml2YWN5aWRlYTEOMAwGA1UEAwwFQ0EwMDGCCQD7yOusg80S
BzATBgNVHSUEDDAKBggrBgEFBQcDATANBgkqhkiG9w0BAQUFAAOCAQEAQjW+EBgv
4nNBMMk7zBs1RMO9LeCd/jQp2tPwZHcPEE7xJJPDQ0lZXHij13uprrXrObXBP603
helFovN/VMFHDh6OZI2EpBbR1dLn4KcYZKSeFeW/AxJg/JTPoHdm2EOtH2nNFN/p
NapZDJXpwEu7rcwiH2s6UhHuKi/OBlg9qk4E+1VbZrocMtnQag7IJxpFCd9t4MZ0
5EMGtdVH5m98bQaTGS3Sl0u9lpKAMkKa+xybRe4W8ZZKiVFweE9t72rk+WJw4tir
3/lOCPTu32WVGWWjJO4W0xEb2mPOqTCkblUqA64YDKf3ecQT7yQV/HJqX78ezJZ5
DYyO2tMtwUnY8g==
-----END CERTIFICATE-----
