Certificate:
    Data:
        Version: 3 (0x2)
        Serial Number: 268435621 (0x100000a5)
    Signature Algorithm: sha1WithRSAEncryption
        Issuer: C=DE, ST=Hessen, O=privacyidea, CN=CA001
        Validity
            Not Before: Jul  1 14:05:17 2015 GMT
            Not After : Jun 30 14:05:17 2016 GMT
        Subject: C=DE, ST=Hessen, O=privacyidea, CN=usercert
        Subject Public Key Info:
            Public Key Algorithm: rsaEncryption
                Public-Key: (2048 bit)
                Modulus:
                    00:dc:2f:d1:5f:29:97:d4:7c:c3:53:c8:30:bd:4b:
                    67:70:2c:24:6b:b8:5e:eb:21:7a:48:12:56:7c:81:
                    5c:48:75:b6:68:eb:f6:f2:98:4e:50:51:d1:7f:6c:
                    73:f3:0a:a7:ae:be:48:5e:e5:d6:e1:d9:2a:7c:32:
                    6e:4e:fd:08:f6:5a:54:49:23:73:c3:b9:07:18:d1:
                    ef:b3:ac:f8:8a:dc:94:96:a4:90:3a:8e:74:df:e6:
                    0d:37:1b:bd:5b:b7:25:1a:56:39:da:6f:91:aa:5e:
                    1c:74:f3:f9:7c:14:01:83:12:65:76:c7:bb:fe:36:
                    5b:95:e9:72:65:83:ed:3e:98:30:71:fa:87:dd:a3:
                    36:5a:30:03:2e:26:e0:61:d1:bf:02:3f:b6:06:1f:
                    4a:89:28:1c:5c:a2:ff:4e:be:94:e6:8c:e0:da:82:
                    f1:9d:29:32:48:30:73:b4:04:f6:42:1e:be:f7:e2:
                    32:32:27:3c:9d:89:2f:70:3e:85:9a:6f:5c:c5:09:
                    c0:8c:32:2f:72:22:c9:d2:95:1f:b6:ac:72:60:72:
                    b7:82:4d:6b:ce:5b:e3:00:d0:d2:2f:58:c6:e0:10:
                    e5:51:ca:4d:3b:2e:e6:7e:ab:84:d6:56:f1:93:35:
                    a0:93:64:26:81:75:2f:91:b5:16:06:38:0b:db:cc:
                    2d:07
                Exponent: 65537 (0x10001)
        X509v3 extensions:
            X509v3 Key Usage: 
                Digital Signature, Key Encipherment
            X509v3 Basic Constraints: 
                CA:FALSE
            Netscape Cert Type: 
                SSL Server
            Netscape Comment: 
                OpenSSL Generated Server Certificate
            X509v3 Subject Key Identifier: 
                FC:14:D1:F0:4B:8D:00:90:F2:F5:B8:71:9E:4E:97:C3:92:54:AD:0B
            X509v3 Authority Key Identifier: 
                keyid:F4:A7:C0:CC:91:46:AF:64:F3:91:F2:27:F8:C8:B2:6F:8A:87:32:73
                DirName:/C=DE/ST=Hessen/O=privacyidea/CN=CA001
                serial:FB:C8:EB:AC:83:CD:12:07

            X509v3 Extended Key Usage: 
                TLS Web Server Authentication
    Signature Algorithm: sha1WithRSAEncryption
         39:84:1a:13:ce:e7:ff:59:5a:46:e5:8f:29:08:87:aa:92:d7:
         a0:55:53:a1:fb:3e:e4:9a:a5:3c:22:84:19:e5:ea:fc:c7:30:
         4d:f5:b3:f1:7f:8a:b2:5e:48:1c:01:a2:5c:21:f7:8a:40:ed:
         e8:e1:48:ea:83:6f:0d:ae:11:d6:b0:dc:af:46:c7:e4:e8:02:
         f1:04:3c:5d:61:b4:84:d3:a8:3a:24:4b:0f:6f:90:9c:2e:bf:
         14:79:f0:09:ff:d0:77:2d:e9:80:68:08:94:74:59:72:4c:30:
         dd:ac:4e:cb:6c:ed:ff:03:0a:aa:46:37:5a:bf:79:80:2b:03:
         e1:34:55:f9:8a:5a:2c:65:fd:a2:74:d3:cb:4d:2d:73:c4:bf:
         ff:8b:78:78:f2:64:42:c1:af:55:c9:f3:65:7f:b8:b5:13:7e:
         61:0e:76:19:71:67:ad:5b:4f:d7:51:1e:b9:d8:ed:6b:f5:19:
         7c:7f:92:fc:cf:dc:91:91:86:a7:a5:e8:6c:16:54:ea:11:bb:
         17:76:74:74:f4:2d:61:78:4f:9b:e9:e2:f4:ea:14:ca:14:5d:
         0a:d7:40:c8:c3:6a:51:06:4b:e5:1d:d0:03:e0:87:06:18:25:
         bd:ac:6a:1a:6e:10:55:3f:e0:ad:22:85:46:98:bc:7f:4b:49:
         f5:c1:61:2e
-----BEGIN CERTIFICATE-----
MIIEGTCCAwGgAwIBAgIEEAAApTANBgkqhkiG9w0BAQUFADBEMQswCQYDVQQGEwJE
RTEPMA0GA1UECAwGSGVzc2VuMRQwEgYDVQQKDAtwcml2YWN5aWRlYTEOMAwGA1UE
AwwFQ0EwMDEwHhcNMTUwNzAxMTQwNTE3WhcNMTYwNjMwMTQwNTE3WjBHMQswCQYD
VQQGEwJERTEPMA0GA1UECAwGSGVzc2VuMRQwEgYDVQQKDAtwcml2YWN5aWRlYTER
MA8GA1UEAwwIdXNlcmNlcnQwggEiMA0GCSqGSIb3DQEBAQUAA4IBDwAwggEKAoIB
AQDcL9FfKZfUfMNTyDC9S2dwLCRruF7rIXpIElZ8gVxIdbZo6/bymE5QUdF/bHPz
Cqeuvkhe5dbh2Sp8Mm5O/Qj2WlRJI3PDuQcY0e+zrPiK3JSWpJA6jnTf5g03G71b
tyUaVjnab5GqXhx08/l8FAGDEmV2x7v+NluV6XJlg+0+mDBx+ofdozZaMAMuJuBh
0b8CP7YGH0qJKBxcov9OvpTmjODagvGdKTJIMHO0BPZCHr734jIyJzydiS9wPoWa
b1zFCcCMMi9yIsnSlR+2rHJgcreCTWvOW+MA0NIvWMbgEOVRyk07LuZ+q4TWVvGT
NaCTZCaBdS+RtRYGOAvbzC0HAgMBAAGjggEOMIIBCjALBgNVHQ8EBAMCBaAwCQYD
VR0TBAIwADARBglghkgBhvhCAQEEBAMCBkAwMwYJYIZIAYb4QgENBCYWJE9wZW5T
U0wgR2VuZXJhdGVkIFNlcnZlciBDZXJ0aWZpY2F0ZTAdBgNVHQ4EFgQU/BTR8EuN
AJDy9bhxnk6Xw5JUrQswdAYDVR0jBG0wa4AU9KfAzJFGr2TzkfIn+Miyb4qHMnOh
SKRGMEQxCzAJBgNVBAYTAkRFMQ8wDQYDVQQIDAZIZXNzZW4xFDASBgNVBAoMC3By
aXZhY3lpZGVhMQ4wDAYDVQQDDAVDQTAwMYIJAPvI66yDzRIHMBMGA1UdJQQMMAoG
CCsGAQUFBwMBMA0GCSqGSIb3DQEBBQUAA4IBAQA5hBoTzuf/WVpG5Y8pCIeqkteg
VVOh+z7kmqU8IoQZ5er8xzBN9bPxf4qyXkgcAaJcIfeKQO3o4Ujqg28NrhHWsNyv
Rsfk6ALxBDxdYbSE06g6JEsPb5CcLr8UefAJ/9B3LemAaAiUdFlyTDDdrE7LbO3/
AwqqRjdav3mAKwPhNFX5ilosZf2idNPLTS1zxL//i3h48mRCwa9VyfNlf7i1E35h
DnYZcWetW0/XUR652O1r9Rl8f5L8z9yRkYanpehsFlTqEbsXdnR09C1heE+b6eL0
6hTKFF0K10DIw2pRBkvlHdAD4IcGGCW9rGoabhBVP+CtIoVGmLx/S0n1wWEu
-----END CERTIFICATE-----
