Certificate:
    Data:
        Version: 3 (0x2)
        Serial Number: 268435614 (0x1000009e)
    Signature Algorithm: sha1WithRSAEncryption
        Issuer: C=DE, ST=Hessen, O=privacyidea, CN=CA001
        Validity
            Not Before: Jul 21 06:44:47 2015 GMT
            Not After : Jul 20 06:44:47 2016 GMT
        Subject: C=DE, ST=Hessen, O=privacyidea, CN=requester.localdomain
        Subject Public Key Info:
            Public Key Algorithm: rsaEncryption
                Public-Key: (2048 bit)
                Modulus:
                    00:cd:be:14:4f:fa:ce:01:3f:42:22:1b:1d:9c:af:
                    dd:92:d2:7f:db:6c:b7:3e:39:43:43:6b:13:03:f1:
                    05:f4:07:74:bc:76:69:28:0b:af:19:8e:d7:fc:e3:
                    cd:c6:58:f2:ca:7f:08:6d:53:fc:07:02:44:24:c6:
                    b4:34:4c:8c:04:fe:33:0e:40:e2:20:ba:02:73:5a:
                    f7:f5:4f:63:6e:cc:c6:b6:df:54:1d:37:39:7d:51:
                    36:26:5f:bd:dc:3f:a8:8b:6b:a2:ae:b6:9d:d6:21:
                    e7:df:41:b8:7a:28:2a:68:48:ca:a8:2d:ed:e1:e9:
                    46:5e:5a:72:6d:b4:84:38:87:91:fd:94:11:0b:28:
                    84:c6:c2:2f:2a:fb:01:f9:36:7a:09:75:d1:33:88:
                    3c:73:41:5b:c8:bf:94:89:70:a1:f0:c0:b9:2e:50:
                    53:1e:b1:17:64:69:f4:2d:81:e0:a9:0d:0e:32:e9:
                    ba:55:8a:85:f1:1b:6f:49:79:b4:7f:88:c3:0d:3e:
                    54:88:9b:3d:1f:38:8c:04:f3:ee:6a:63:2b:f5:c6:
                    db:b4:83:aa:c4:78:41:3a:7d:4b:e1:c8:3e:71:ca:
                    1b:61:59:ea:c6:c4:ca:32:5e:c9:e9:bf:12:29:e6:
                    c6:c3:63:fe:a0:55:da:7a:f1:60:98:4d:26:ed:fa:
                    70:2d
                Exponent: 65537 (0x10001)
        X509v3 extensions:
            X509v3 Key Usage: 
                Digital Signature, Key Encipherment
            X509v3 Basic Constraints: 
                CA:FALSE
            Netscape Cert Type: 
                SSL Server
            Netscape Comment: 
                OpenSSL Generated Server Certificate
            X509v3 Subject Key Identifier: 
                53:3F:ED:5D:09:07:B3:65:7B:AB:45:C9:24:5B:09:77:80:0A:96:ED
            X509v3 Authority Key Identifier: 
                keyid:F4:A7:C0:CC:91:46:AF:64:F3:91:F2:27:F8:C8:B2:6F:8A:87:32:73
                DirName:/C=DE/ST=Hessen/O=privacyidea/CN=CA001
                serial:FB:C8:EB:AC:83:CD:12:07

            X509v3 Extended Key Usage: 
                TLS Web Server Authentication
    Signature Algorithm: sha1WithRSAEncryption
         0f:0d:62:c7:08:93:5b:03:01:20:f9:12:18:c3:09:d0:01:01:
         01:58:ac:1b:a6:11:08:5e:15:00:ee:27:23:da:d6:ac:db:6b:
         d6:84:14:12:39:eb:bc:5a:c9:77:dd:63:f1:b1:e8:4f:4e:9c:
         dd:fc:77:cb:28:00:0e:6a:7d:6f:d0:60:bf:83:3b:60:6b:dd:
         ff:ee:81:6c:1b:f8:f9:32:31:a1:ec:1b:53:40:d7:01:b1:4b:
         94:43:cd:6e:5e:c2:b4:3f:01:2a:e8:4e:3f:0a:e7:75:de:25:
         50:0d:b3:9c:9f:72:f0:6e:1a:12:6c:d8:cb:d4:47:b1:6e:47:
         98:33:3a:f8:14:02:3d:90:bb:01:2f:7e:b2:02:23:9c:c7:9b:
         f3:21:da:80:76:6f:66:fb:d5:6f:93:67:37:e4:91:d1:a1:2d:
         d7:91:39:b1:dc:b2:d6:78:dd:79:cb:ab:05:81:cd:46:71:29:
         37:1a:46:53:e3:4a:a9:25:16:8a:77:b6:57:f6:58:1a:90:e8:
         1b:8c:82:6d:80:a0:6d:f0:90:40:3e:97:34:6a:65:da:3f:28:
         cd:d0:49:ff:7f:85:12:36:ec:94:6c:2a:d6:ca:eb:d8:77:3e:
         76:c1:fa:09:31:9b:3f:de:5f:ce:1d:37:19:9f:92:82:b3:51:
         cd:c4:ab:4b
-----BEGIN CERTIFICATE-----
MIIEJjCCAw6gAwIBAgIEEAAAnjANBgkqhkiG9w0BAQUFADBEMQswCQYDVQQGEwJE
RTEPMA0GA1UECAwGSGVzc2VuMRQwEgYDVQQKDAtwcml2YWN5aWRlYTEOMAwGA1UE
AwwFQ0EwMDEwHhcNMTUwNzIxMDY0NDQ3WhcNMTYwNzIwMDY0NDQ3WjBUMQswCQYD
VQQGEwJERTEPMA0GA1UECAwGSGVzc2VuMRQwEgYDVQQKDAtwcml2YWN5aWRlYTEe
MBwGA1UEAwwVcmVxdWVzdGVyLmxvY2FsZG9tYWluMIIBIjANBgkqhkiG9w0BAQEF
AAOCAQ8AMIIBCgKCAQEAzb4UT/rOAT9CIhsdnK/dktJ/22y3PjlDQ2sTA/EF9Ad0
vHZpKAuvGY7X/OPNxljyyn8IbVP8BwJEJMa0NEyMBP4zDkDiILoCc1r39U9jbszG
tt9UHTc5fVE2Jl+93D+oi2uirrad1iHn30G4eigqaEjKqC3t4elGXlpybbSEOIeR
/ZQRCyiExsIvKvsB+TZ6CXXRM4g8c0FbyL+UiXCh8MC5LlBTHrEXZGn0LYHgqQ0O
Mum6VYqF8RtvSXm0f4jDDT5UiJs9HziMBPPuamMr9cbbtIOqxHhBOn1L4cg+ccob
YVnqxsTKMl7J6b8SKebGw2P+oFXaevFgmE0m7fpwLQIDAQABo4IBDjCCAQowCwYD
VR0PBAQDAgWgMAkGA1UdEwQCMAAwEQYJYIZIAYb4QgEBBAQDAgZAMDMGCWCGSAGG
+EIBDQQmFiRPcGVuU1NMIEdlbmVyYXRlZCBTZXJ2ZXIgQ2VydGlmaWNhdGUwHQYD
VR0OBBYEFFM/7V0JB7Nle6tFySRbCXeACpbtMHQGA1UdIwRtMGuAFPSnwMyRRq9k
85HyJ/jIsm+KhzJzoUikRjBEMQswCQYDVQQGEwJERTEPMA0GA1UECAwGSGVzc2Vu
MRQwEgYDVQQKDAtwcml2YWN5aWRlYTEOMAwGA1UEAwwFQ0EwMDGCCQD7yOusg80S
BzATBgNVHSUEDDAKBggrBgEFBQcDATANBgkqhkiG9w0BAQUFAAOCAQEADw1ixwiT
WwMBIPkSGMMJ0AEBAVisG6YRCF4VAO4nI9rWrNtr1oQUEjnrvFrJd91j8bHoT06c
3fx3yygADmp9b9Bgv4M7YGvd/+6BbBv4+TIxoewbU0DXAbFLlEPNbl7CtD8BKuhO
Pwrndd4lUA2znJ9y8G4aEmzYy9RHsW5HmDM6+BQCPZC7AS9+sgIjnMeb8yHagHZv
ZvvVb5NnN+SR0aEt15E5sdyy1njdecurBYHNRnEpNxpGU+NKqSUWine2V/ZYGpDo
G4yCbYCgbfCQQD6XNGpl2j8ozdBJ/3+FEjbslGwq1srr2Hc+dsH6CTGbP95fzh03
GZ+SgrNRzcSrSw==
-----END CERTIFICATE-----
