Certificate:
    Data:
        Version: 3 (0x2)
        Serial Number: 268435616 (0x100000a0)
    Signature Algorithm: sha1WithRSAEncryption
        Issuer: C=DE, ST=Hessen, O=privacyidea, CN=CA001
        Validity
            Not Before: Jul 21 06:44:47 2015 GMT
            Not After : Jul 20 06:44:47 2016 GMT
        Subject: CN=Steve Test/emailAddress=steve@openssl.org
        Subject Public Key Info:
            Public Key Algorithm: rsaEncryption
                Public-Key: (2048 bit)
                Modulus:
                    00:d2:81:89:20:51:48:0f:73:f4:11:32:24:d5:1f:
                    1c:fd:5c:f5:b6:e6:c5:f0:52:81:dc:d2:af:66:4a:
                    7c:93:31:61:5c:af:d1:6d:06:70:03:60:7c:72:0c:
                    88:dd:49:cd:9e:02:6c:d2:5a:d7:53:0f:f3:da:be:
                    69:64:b5:0f:0c:00:e3:b3:50:47:a3:b3:9b:ba:13:
                    50:d6:58:5a:4b:ab:39:e0:11:ca:0a:27:67:03:78:
                    22:66:6d:92:1e:1b:5c:49:ae:e6:6b:d1:8e:3b:9d:
                    06:d3:c6:ac:4d:53:43:10:ab:e8:96:c1:87:82:97:
                    99:8f:20:d3:99:12:37:31:84:e1:8a:ff:29:03:5f:
                    22:90:3e:7f:9b:e0:20:c1:ad:dc:ae:4c:39:1a:31:
                    96:17:02:8c:b2:d9:b4:0d:20:12:9b:7d:86:54:fd:
                    33:fd:c1:2a:62:46:f8:60:96:cf:6e:01:6f:22:df:
                    13:47:e7:97:ec:05:72:23:a3:62:f8:fa:ef:ac:9c:
                    72:f0:37:cb:2f:37:cf:90:a8:27:51:86:c6:d7:78:
                    08:8f:7e:25:a2:15:70:a2:fb:1c:b6:15:5e:a0:97:
                    8b:81:4c:09:28:8a:27:3b:94:bc:71:db:5b:71:37:
                    9a:2b:16:e0:6f:b5:c9:f5:4b:4f:20:ba:65:cf:af:
                    ad:ad
                Exponent: 65537 (0x10001)
        X509v3 extensions:
            X509v3 Key Usage: 
                Digital Signature, Key Encipherment
            X509v3 Basic Constraints: 
                CA:FALSE
            Netscape Cert Type: 
                SSL Server
            Netscape Comment: 
                OpenSSL Generated Server Certificate
            X509v3 Subject Key Identifier: 
                E5:25:6D:3E:AF:0D:DD:3F:4C:F2:45:19:39:D5:14:DB:7E:9C:C0:AD
            X509v3 Authority Key Identifier: 
                keyid:F4:A7:C0:CC:91:46:AF:64:F3:91:F2:27:F8:C8:B2:6F:8A:87:32:73
                DirName:/C=DE/ST=Hessen/O=privacyidea/CN=CA001
                serial:FB:C8:EB:AC:83:CD:12:07

            X509v3 Extended Key Usage: 
                TLS Web Server Authentication
    Signature Algorithm: sha1WithRSAEncryption
         3e:74:3d:28:35:ef:31:9e:d3:61:7c:a7:d9:62:c4:d4:16:cd:
         2f:76:64:92:fb:4e:93:aa:6b:3d:3b:31:bf:a2:e5:bd:48:ba:
         7d:2c:5d:e5:b0:9c:48:e4:fd:b8:ec:5a:58:23:dd:89:51:e1:
         c3:10:32:12:d8:c9:36:42:79:5a:bb:26:b2:20:ac:80:a5:84:
         75:eb:90:09:7d:31:66:31:a9:df:57:bf:0e:68:35:e8:79:b2:
         1d:b6:ca:21:28:11:05:bd:b0:c6:92:d2:14:f9:3a:96:4d:3d:
         6e:ad:50:9a:ea:a0:f1:1e:af:d1:f6:0a:1b:f0:b1:1c:c9:f6:
         95:fe:c6:96:7d:a9:d1:86:d1:d0:60:a6:60:9f:1b:c6:de:02:
         a2:96:bb:04:f2:d8:83:d8:6a:25:1a:b0:08:74:58:f3:02:ad:
         d7:8f:e1:24:ae:99:6b:3b:a2:0f:93:27:b2:08:5f:bd:63:b2:
         87:d9:d0:89:0c:3b:65:95:68:e5:c1:33:12:b2:e1:1c:82:b8:
         b4:7f:96:d2:78:29:90:a4:a0:c3:42:54:15:d5:c7:cc:91:a6:
         b4:e7:4f:d7:c6:84:ce:81:b8:e1:5f:7a:58:d6:12:09:3a:9b:
         c6:fc:ee:b5:26:f7:81:74:01:44:ed:f9:77:c2:f5:b3:02:22:
         d2:c0:de:34
-----BEGIN CERTIFICATE-----
MIIECTCCAvGgAwIBAgIEEAAAoDANBgkqhkiG9w0BAQUFADBEMQswCQYDVQQGEwJE
RTEPMA0GA1UECAwGSGVzc2VuMRQwEgYDVQQKDAtwcml2YWN5aWRlYTEOMAwGA1UE
AwwFQ0EwMDEwHhcNMTUwNzIxMDY0NDQ3WhcNMTYwNzIwMDY0NDQ3WjA3MRMwEQYD
VQQDEwpTdGV2ZSBUZXN0MSAwHgYJKoZIhvcNAQkBFhFzdGV2ZUBvcGVuc3NsLm9y
ZzCCASIwDQYJKoZIhvcNAQEBBQADggEPADCCAQoCggEBANKBiSBRSA9z9BEyJNUf
HP1c9bbmxfBSgdzSr2ZKfJMxYVyv0W0GcANgfHIMiN1JzZ4CbNJa11MP89q+aWS1
DwwA47NQR6Ozm7oTUNZYWkurOeARygonZwN4ImZtkh4bXEmu5mvRjjudBtPGrE1T
QxCr6JbBh4KXmY8g05kSNzGE4Yr/KQNfIpA+f5vgIMGt3K5MORoxlhcCjLLZtA0g
Ept9hlT9M/3BKmJG+GCWz24BbyLfE0fnl+wFciOjYvj676yccvA3yy83z5CoJ1GG
xtd4CI9+JaIVcKL7HLYVXqCXi4FMCSiKJzuUvHHbW3E3misW4G+1yfVLTyC6Zc+v
ra0CAwEAAaOCAQ4wggEKMAsGA1UdDwQEAwIFoDAJBgNVHRMEAjAAMBEGCWCGSAGG
+EIBAQQEAwIGQDAzBglghkgBhvhCAQ0EJhYkT3BlblNTTCBHZW5lcmF0ZWQgU2Vy
dmVyIENlcnRpZmljYXRlMB0GA1UdDgQWBBTlJW0+rw3dP0zyRRk51RTbfpzArTB0
BgNVHSMEbTBrgBT0p8DMkUavZPOR8if4yLJviocyc6FIpEYwRDELMAkGA1UEBhMC
REUxDzANBgNVBAgMBkhlc3NlbjEUMBIGA1UECgwLcHJpdmFjeWlkZWExDjAMBgNV
BAMMBUNBMDAxggkA+8jrrIPNEgcwEwYDVR0lBAwwCgYIKwYBBQUHAwEwDQYJKoZI
hvcNAQEFBQADggEBAD50PSg17zGe02F8p9lixNQWzS92ZJL7TpOqaz07Mb+i5b1I
un0sXeWwnEjk/bjsWlgj3YlR4cMQMhLYyTZCeVq7JrIgrIClhHXrkAl9MWYxqd9X
vw5oNeh5sh22yiEoEQW9sMaS0hT5OpZNPW6tUJrqoPEer9H2ChvwsRzJ9pX+xpZ9
qdGG0dBgpmCfG8beAqKWuwTy2IPYaiUasAh0WPMCrdeP4SSumWs7og+TJ7IIX71j
sofZ0IkMO2WVaOXBMxKy4RyCuLR/ltJ4KZCkoMNCVBXVx8yRprTnT9fGhM6BuOFf
eljWEgk6m8b87rUm94F0AUTt+XfC9bMCItLA3jQ=
-----END CERTIFICATE-----
