Certificate:
    Data:
        Version: 3 (0x2)
        Serial Number: 268435607 (0x10000097)
    Signature Algorithm: sha1WithRSAEncryption
        Issuer: C=DE, ST=Hessen, O=privacyidea, CN=CA001
        Validity
            Not Before: Jul 21 06:38:29 2015 GMT
            Not After : Jul 20 06:38:29 2016 GMT
        Subject: C=DE, ST=Hessen, O=privacyidea, CN=requester.localdomain
        Subject Public Key Info:
            Public Key Algorithm: rsaEncryption
                Public-Key: (2048 bit)
                Modulus:
                    00:cd:be:14:4f:fa:ce:01:3f:42:22:1b:1d:9c:af:
                    dd:92:d2:7f:db:6c:b7:3e:39:43:43:6b:13:03:f1:
                    05:f4:07:74:bc:76:69:28:0b:af:19:8e:d7:fc:e3:
                    cd:c6:58:f2:ca:7f:08:6d:53:fc:07:02:44:24:c6:
                    b4:34:4c:8c:04:fe:33:0e:40:e2:20:ba:02:73:5a:
                    f7:f5:4f:63:6e:cc:c6:b6:df:54:1d:37:39:7d:51:
                    36:26:5f:bd:dc:3f:a8:8b:6b:a2:ae:b6:9d:d6:21:
                    e7:df:41:b8:7a:28:2a:68:48:ca:a8:2d:ed:e1:e9:
                    46:5e:5a:72:6d:b4:84:38:87:91:fd:94:11:0b:28:
                    84:c6:c2:2f:2a:fb:01:f9:36:7a:09:75:d1:33:88:
                    3c:73:41:5b:c8:bf:94:89:70:a1:f0:c0:b9:2e:50:
                    53:1e:b1:17:64:69:f4:2d:81:e0:a9:0d:0e:32:e9:
                    ba:55:8a:85:f1:1b:6f:49:79:b4:7f:88:c3:0d:3e:
                    54:88:9b:3d:1f:38:8c:04:f3:ee:6a:63:2b:f5:c6:
                    db:b4:83:aa:c4:78:41:3a:7d:4b:e1:c8:3e:71:ca:
                    1b:61:59:ea:c6:c4:ca:32:5e:c9:e9:bf:12:29:e6:
                    c6:c3:63:fe:a0:55:da:7a:f1:60:98:4d:26:ed:fa:
                    70:2d
                Exponent: 65537 (0x10001)
        X509v3 extensions:
            X509v3 Key Usage: 
                Digital Signature, Key Encipherment
            X509v3 Basic Constraints: 
                CA:FALSE
            Netscape Cert Type: 
                SSL Server
            Netscape Comment: 
                OpenSSL Generated Server Certificate
            X509v3 Subject Key Identifier: 
                53:3F:ED:5D:09:07:B3:65:7B:AB:45:C9:24:5B:09:77:80:0A:96:ED
            X509v3 Authority Key Identifier: 
                keyid:F4:A7:C0:CC:91:46:AF:64:F3:91:F2:27:F8:C8:B2:6F:8A:87:32:73
                DirName:/C=DE/ST=Hessen/O=privacyidea/CN=CA001
                serial:FB:C8:EB:AC:83:CD:12:07

            X509v3 Extended Key Usage: 
                TLS Web Server Authentication
    Signature Algorithm: sha1WithRSAEncryption
         15:89:f7:53:42:a2:24:78:3b:13:13:96:bd:8c:b0:68:06:e6:
         87:0a:da:65:78:ca:bb:4e:46:2a:02:4f:59:73:0a:c5:8e:18:
         65:80:95:b4:50:6e:fb:80:c8:8f:5b:4f:5d:0d:b4:81:ae:7e:
         cd:1f:68:d3:05:51:86:c4:70:1e:25:7b:82:c4:3c:b3:b7:90:
         92:cd:b4:17:92:a0:a9:7d:0d:4c:39:c2:c6:00:7b:1c:86:a4:
         11:a8:a3:28:18:a5:26:04:07:6a:1c:a6:28:0a:ef:a3:62:a5:
         c2:93:0e:b6:40:40:a8:9c:07:ce:a4:24:74:79:28:2f:35:f7:
         74:f0:3f:eb:de:eb:01:a8:a5:bf:4d:33:a3:a2:3b:d9:da:e1:
         63:1c:78:d3:ed:d7:c1:d6:59:cd:1d:c7:59:95:e0:d8:65:f1:
         5a:66:79:4f:d6:07:e9:66:22:ce:18:e2:3a:c6:49:1f:d8:21:
         64:67:7f:a5:fa:3b:84:c1:b4:dd:88:9b:12:fa:c3:4d:f7:2e:
         73:93:23:69:4f:92:c1:f4:a4:28:91:9a:3a:71:03:8b:60:84:
         25:c3:ad:2d:a3:9e:49:c7:65:7e:bd:a6:d6:13:3d:b2:fb:4e:
         26:e9:ec:dc:7d:7c:5a:82:df:83:3f:52:de:50:de:76:49:f2:
         ff:8f:92:44
-----BEGIN CERTIFICATE-----
MIIEJjCCAw6gAwIBAgIEEAAAlzANBgkqhkiG9w0BAQUFADBEMQswCQYDVQQGEwJE
RTEPMA0GA1UECAwGSGVzc2VuMRQwEgYDVQQKDAtwcml2YWN5aWRlYTEOMAwGA1UE
AwwFQ0EwMDEwHhcNMTUwNzIxMDYzODI5WhcNMTYwNzIwMDYzODI5WjBUMQswCQYD
VQQGEwJERTEPMA0GA1UECAwGSGVzc2VuMRQwEgYDVQQKDAtwcml2YWN5aWRlYTEe
MBwGA1UEAwwVcmVxdWVzdGVyLmxvY2FsZG9tYWluMIIBIjANBgkqhkiG9w0BAQEF
AAOCAQ8AMIIBCgKCAQEAzb4UT/rOAT9CIhsdnK/dktJ/22y3PjlDQ2sTA/EF9Ad0
vHZpKAuvGY7X/OPNxljyyn8IbVP8BwJEJMa0NEyMBP4zDkDiILoCc1r39U9jbszG
tt9UHTc5fVE2Jl+93D+oi2uirrad1iHn30G4eigqaEjKqC3t4elGXlpybbSEOIeR
/ZQRCyiExsIvKvsB+TZ6CXXRM4g8c0FbyL+UiXCh8MC5LlBTHrEXZGn0LYHgqQ0O
Mum6VYqF8RtvSXm0f4jDDT5UiJs9HziMBPPuamMr9cbbtIOqxHhBOn1L4cg+ccob
YVnqxsTKMl7J6b8SKebGw2P+oFXaevFgmE0m7fpwLQIDAQABo4IBDjCCAQowCwYD
VR0PBAQDAgWgMAkGA1UdEwQCMAAwEQYJYIZIAYb4QgEBBAQDAgZAMDMGCWCGSAGG
+EIBDQQmFiRPcGVuU1NMIEdlbmVyYXRlZCBTZXJ2ZXIgQ2VydGlmaWNhdGUwHQYD
VR0OBBYEFFM/7V0JB7Nle6tFySRbCXeACpbtMHQGA1UdIwRtMGuAFPSnwMyRRq9k
85HyJ/jIsm+KhzJzoUikRjBEMQswCQYDVQQGEwJERTEPMA0GA1UECAwGSGVzc2Vu
MRQwEgYDVQQKDAtwcml2YWN5aWRlYTEOMAwGA1UEAwwFQ0EwMDGCCQD7yOusg80S
BzATBgNVHSUEDDAKBggrBgEFBQcDATANBgkqhkiG9w0BAQUFAAOCAQEAFYn3U0Ki
JHg7ExOWvYywaAbmhwraZXjKu05GKgJPWXMKxY4YZYCVtFBu+4DIj1tPXQ20ga5+
zR9o0wVRhsRwHiV7gsQ8s7eQks20F5KgqX0NTDnCxgB7HIakEaijKBilJgQHahym
KArvo2KlwpMOtkBAqJwHzqQkdHkoLzX3dPA/697rAailv00zo6I72drhYxx40+3X
wdZZzR3HWZXg2GXxWmZ5T9YH6WYizhjiOsZJH9ghZGd/pfo7hMG03YibEvrDTfcu
c5MjaU+SwfSkKJGaOnEDi2CEJcOtLaOeScdlfr2m1hM9svtOJuns3H18WoLfgz9S
3lDedkny/4+SRA==
-----END CERTIFICATE-----
