Certificate:
    Data:
        Version: 3 (0x2)
        Serial Number: 268435622 (0x100000a6)
    Signature Algorithm: sha1WithRSAEncryption
        Issuer: C=DE, ST=Hessen, O=privacyidea, CN=CA001
        Validity
            Not Before: Jul  1 14:05:17 2015 GMT
            Not After : Jun 30 14:05:17 2016 GMT
        Subject: CN=Steve Test/emailAddress=steve@openssl.org
        Subject Public Key Info:
            Public Key Algorithm: rsaEncryption
                Public-Key: (2048 bit)
                Modulus:
                    00:d2:81:89:20:51:48:0f:73:f4:11:32:24:d5:1f:
                    1c:fd:5c:f5:b6:e6:c5:f0:52:81:dc:d2:af:66:4a:
                    7c:93:31:61:5c:af:d1:6d:06:70:03:60:7c:72:0c:
                    88:dd:49:cd:9e:02:6c:d2:5a:d7:53:0f:f3:da:be:
                    69:64:b5:0f:0c:00:e3:b3:50:47:a3:b3:9b:ba:13:
                    50:d6:58:5a:4b:ab:39:e0:11:ca:0a:27:67:03:78:
                    22:66:6d:92:1e:1b:5c:49:ae:e6:6b:d1:8e:3b:9d:
                    06:d3:c6:ac:4d:53:43:10:ab:e8:96:c1:87:82:97:
                    99:8f:20:d3:99:12:37:31:84:e1:8a:ff:29:03:5f:
                    22:90:3e:7f:9b:e0:20:c1:ad:dc:ae:4c:39:1a:31:
                    96:17:02:8c:b2:d9:b4:0d:20:12:9b:7d:86:54:fd:
                    33:fd:c1:2a:62:46:f8:60:96:cf:6e:01:6f:22:df:
                    13:47:e7:97:ec:05:72:23:a3:62:f8:fa:ef:ac:9c:
                    72:f0:37:cb:2f:37:cf:90:a8:27:51:86:c6:d7:78:
                    08:8f:7e:25:a2:15:70:a2:fb:1c:b6:15:5e:a0:97:
                    8b:81:4c:09:28:8a:27:3b:94:bc:71:db:5b:71:37:
                    9a:2b:16:e0:6f:b5:c9:f5:4b:4f:20:ba:65:cf:af:
                    ad:ad
                Exponent: 65537 (0x10001)
        X509v3 extensions:
            X509v3 Key Usage: 
                Digital Signature, Key Encipherment
            X509v3 Basic Constraints: 
                CA:FALSE
            Netscape Cert Type: 
                SSL Server
            Netscape Comment: 
                OpenSSL Generated Server Certificate
            X509v3 Subject Key Identifier: 
                E5:25:6D:3E:AF:0D:DD:3F:4C:F2:45:19:39:D5:14:DB:7E:9C:C0:AD
            X509v3 Authority Key Identifier: 
                keyid:F4:A7:C0:CC:91:46:AF:64:F3:91:F2:27:F8:C8:B2:6F:8A:87:32:73
                DirName:/C=DE/ST=Hessen/O=privacyidea/CN=CA001
                serial:FB:C8:EB:AC:83:CD:12:07

            X509v3 Extended Key Usage: 
                TLS Web Server Authentication
    Signature Algorithm: sha1WithRSAEncryption
         71:60:c6:39:b3:7c:8e:ba:17:a4:cc:11:bc:c7:e3:09:a1:46:
         dc:18:e5:0e:49:e5:c7:8f:91:83:43:be:76:bc:c3:6f:4c:07:
         34:a9:5f:25:28:a1:fe:b6:ae:bc:ab:b5:0d:35:f5:ff:b9:1a:
         e3:ae:21:8e:3e:a8:27:c1:41:7b:d3:52:88:f1:a4:48:14:c3:
         5c:5b:2a:c3:c4:d6:09:e4:b1:8e:f4:9d:f9:85:10:46:79:76:
         e4:31:6b:1b:52:65:c6:9e:47:58:45:5b:1a:e0:46:50:f6:4f:
         68:90:9e:d8:28:99:0a:7a:7c:c4:53:8a:99:a6:71:13:14:ae:
         37:4f:91:a0:ff:a7:61:ef:c2:98:04:61:33:3e:b2:a5:85:ef:
         28:22:4e:b4:53:15:5a:94:91:9a:93:ad:f5:44:e6:18:27:d5:
         a8:2b:48:e1:24:03:5b:da:35:6e:2f:76:85:4b:20:b5:2e:30:
         6c:e3:99:d0:49:01:0b:7b:dd:1b:7d:29:a2:30:3e:21:ba:70:
         f1:66:16:13:81:18:10:24:dc:09:2b:3b:73:d2:23:46:5a:ed:
         50:79:0b:53:12:76:3d:9c:63:53:07:e9:20:2e:01:08:5d:5d:
         bb:0a:d8:da:ba:9c:cb:82:01:9e:07:37:94:88:1d:49:92:a7:
         12:01:f8:ba
-----BEGIN CERTIFICATE-----
MIIECTCCAvGgAwIBAgIEEAAApjANBgkqhkiG9w0BAQUFADBEMQswCQYDVQQGEwJE
RTEPMA0GA1UECAwGSGVzc2VuMRQwEgYDVQQKDAtwcml2YWN5aWRlYTEOMAwGA1UE
AwwFQ0EwMDEwHhcNMTUwNzAxMTQwNTE3WhcNMTYwNjMwMTQwNTE3WjA3MRMwEQYD
VQQDEwpTdGV2ZSBUZXN0MSAwHgYJKoZIhvcNAQkBFhFzdGV2ZUBvcGVuc3NsLm9y
ZzCCASIwDQYJKoZIhvcNAQEBBQADggEPADCCAQoCggEBANKBiSBRSA9z9BEyJNUf
HP1c9bbmxfBSgdzSr2ZKfJMxYVyv0W0GcANgfHIMiN1JzZ4CbNJa11MP89q+aWS1
DwwA47NQR6Ozm7oTUNZYWkurOeARygonZwN4ImZtkh4bXEmu5mvRjjudBtPGrE1T
QxCr6JbBh4KXmY8g05kSNzGE4Yr/KQNfIpA+f5vgIMGt3K5MORoxlhcCjLLZtA0g
Ept9hlT9M/3BKmJG+GCWz24BbyLfE0fnl+wFciOjYvj676yccvA3yy83z5CoJ1GG
xtd4CI9+JaIVcKL7HLYVXqCXi4FMCSiKJzuUvHHbW3E3misW4G+1yfVLTyC6Zc+v
ra0CAwEAAaOCAQ4wggEKMAsGA1UdDwQEAwIFoDAJBgNVHRMEAjAAMBEGCWCGSAGG
+EIBAQQEAwIGQDAzBglghkgBhvhCAQ0EJhYkT3BlblNTTCBHZW5lcmF0ZWQgU2Vy
dmVyIENlcnRpZmljYXRlMB0GA1UdDgQWBBTlJW0+rw3dP0zyRRk51RTbfpzArTB0
BgNVHSMEbTBrgBT0p8DMkUavZPOR8if4yLJviocyc6FIpEYwRDELMAkGA1UEBhMC
REUxDzANBgNVBAgMBkhlc3NlbjEUMBIGA1UECgwLcHJpdmFjeWlkZWExDjAMBgNV
BAMMBUNBMDAxggkA+8jrrIPNEgcwEwYDVR0lBAwwCgYIKwYBBQUHAwEwDQYJKoZI
hvcNAQEFBQADggEBAHFgxjmzfI66F6TMEbzH4wmhRtwY5Q5J5cePkYNDvna8w29M
BzSpXyUoof62rryrtQ019f+5GuOuIY4+qCfBQXvTUojxpEgUw1xbKsPE1gnksY70
nfmFEEZ5duQxaxtSZcaeR1hFWxrgRlD2T2iQntgomQp6fMRTipmmcRMUrjdPkaD/
p2HvwpgEYTM+sqWF7ygiTrRTFVqUkZqTrfVE5hgn1agrSOEkA1vaNW4vdoVLILUu
MGzjmdBJAQt73Rt9KaIwPiG6cPFmFhOBGBAk3AkrO3PSI0Za7VB5C1MSdj2cY1MH
6SAuAQhdXbsK2Nq6nMuCAZ4HN5SIHUmSpxIB+Lo=
-----END CERTIFICATE-----
