Certificate:
    Data:
        Version: 3 (0x2)
        Serial Number: 268435611 (0x1000009b)
    Signature Algorithm: sha1WithRSAEncryption
        Issuer: C=DE, ST=Hessen, O=privacyidea, CN=CA001
        Validity
            Not Before: Jul 21 06:39:38 2015 GMT
            Not After : Jul 20 06:39:38 2016 GMT
        Subject: C=DE, ST=Hessen, O=privacyidea, CN=requester.localdomain
        Subject Public Key Info:
            Public Key Algorithm: rsaEncryption
                Public-Key: (2048 bit)
                Modulus:
                    00:cd:be:14:4f:fa:ce:01:3f:42:22:1b:1d:9c:af:
                    dd:92:d2:7f:db:6c:b7:3e:39:43:43:6b:13:03:f1:
                    05:f4:07:74:bc:76:69:28:0b:af:19:8e:d7:fc:e3:
                    cd:c6:58:f2:ca:7f:08:6d:53:fc:07:02:44:24:c6:
                    b4:34:4c:8c:04:fe:33:0e:40:e2:20:ba:02:73:5a:
                    f7:f5:4f:63:6e:cc:c6:b6:df:54:1d:37:39:7d:51:
                    36:26:5f:bd:dc:3f:a8:8b:6b:a2:ae:b6:9d:d6:21:
                    e7:df:41:b8:7a:28:2a:68:48:ca:a8:2d:ed:e1:e9:
                    46:5e:5a:72:6d:b4:84:38:87:91:fd:94:11:0b:28:
                    84:c6:c2:2f:2a:fb:01:f9:36:7a:09:75:d1:33:88:
                    3c:73:41:5b:c8:bf:94:89:70:a1:f0:c0:b9:2e:50:
                    53:1e:b1:17:64:69:f4:2d:81:e0:a9:0d:0e:32:e9:
                    ba:55:8a:85:f1:1b:6f:49:79:b4:7f:88:c3:0d:3e:
                    54:88:9b:3d:1f:38:8c:04:f3:ee:6a:63:2b:f5:c6:
                    db:b4:83:aa:c4:78:41:3a:7d:4b:e1:c8:3e:71:ca:
                    1b:61:59:ea:c6:c4:ca:32:5e:c9:e9:bf:12:29:e6:
                    c6:c3:63:fe:a0:55:da:7a:f1:60:98:4d:26:ed:fa:
                    70:2d
                Exponent: 65537 (0x10001)
        X509v3 extensions:
            X509v3 Key Usage: 
                Digital Signature, Key Encipherment
            X509v3 Basic Constraints: 
                CA:FALSE
            Netscape Cert Type: 
                SSL Server
            Netscape Comment: 
                OpenSSL Generated Server Certificate
            X509v3 Subject Key Identifier: 
                53:3F:ED:5D:09:07:B3:65:7B:AB:45:C9:24:5B:09:77:80:0A:96:ED
            X509v3 Authority Key Identifier: 
                keyid:F4:A7:C0:CC:91:46:AF:64:F3:91:F2:27:F8:C8:B2:6F:8A:87:32:73
                DirName:/C=DE/ST=Hessen/O=privacyidea/CN=CA001
                serial:FB:C8:EB:AC:83:CD:12:07

            X509v3 Extended Key Usage: 
                TLS Web Server Authentication
    Signature Algorithm: sha1WithRSAEncryption
         9a:6c:33:bf:a9:4f:82:9a:3e:c0:4c:7b:34:83:f8:43:c6:38:
         11:98:fc:c5:6e:d6:2d:e1:92:42:ec:df:5d:3f:7b:55:75:be:
         65:dc:94:7c:1c:5a:00:08:a9:9d:37:48:08:73:e1:8d:c8:f1:
         1f:eb:0c:7d:fd:c2:35:f3:4f:f0:ee:28:41:72:93:5b:56:d2:
         1e:eb:3d:dd:e4:33:05:7d:f8:3e:9d:c2:54:2e:28:02:d3:8e:
         56:e9:c1:dd:7b:6c:9c:62:6e:32:cb:c5:33:10:c2:29:0c:e4:
         c2:55:17:31:2e:9a:8d:39:bc:2a:06:3f:8c:4e:3f:8c:a0:7a:
         bf:18:ba:2c:be:09:17:e4:07:9b:fd:91:ce:bb:17:fd:ec:e3:
         c0:88:ce:99:9e:61:25:29:68:93:98:36:d2:7d:e6:9c:72:35:
         4b:31:23:65:05:37:0e:01:c1:a8:57:a8:a0:0a:e6:47:5f:10:
         d8:14:88:67:b8:46:f0:49:3f:0b:dc:22:77:c6:1d:63:99:e3:
         7a:d5:ec:3f:d0:df:7c:c6:37:57:49:33:b9:de:9d:88:54:0a:
         9b:49:af:95:9c:a0:11:74:d2:36:0a:ed:46:4f:2b:76:93:7f:
         5a:10:e3:67:ac:0c:e1:71:10:11:06:64:3c:98:c2:8b:a4:65:
         67:90:46:cf
-----BEGIN CERTIFICATE-----
MIIEJjCCAw6gAwIBAgIEEAAAmzANBgkqhkiG9w0BAQUFADBEMQswCQYDVQQGEwJE
RTEPMA0GA1UECAwGSGVzc2VuMRQwEgYDVQQKDAtwcml2YWN5aWRlYTEOMAwGA1UE
AwwFQ0EwMDEwHhcNMTUwNzIxMDYzOTM4WhcNMTYwNzIwMDYzOTM4WjBUMQswCQYD
VQQGEwJERTEPMA0GA1UECAwGSGVzc2VuMRQwEgYDVQQKDAtwcml2YWN5aWRlYTEe
MBwGA1UEAwwVcmVxdWVzdGVyLmxvY2FsZG9tYWluMIIBIjANBgkqhkiG9w0BAQEF
AAOCAQ8AMIIBCgKCAQEAzb4UT/rOAT9CIhsdnK/dktJ/22y3PjlDQ2sTA/EF9Ad0
vHZpKAuvGY7X/OPNxljyyn8IbVP8BwJEJMa0NEyMBP4zDkDiILoCc1r39U9jbszG
tt9UHTc5fVE2Jl+93D+oi2uirrad1iHn30G4eigqaEjKqC3t4elGXlpybbSEOIeR
/ZQRCyiExsIvKvsB+TZ6CXXRM4g8c0FbyL+UiXCh8MC5LlBTHrEXZGn0LYHgqQ0O
Mum6VYqF8RtvSXm0f4jDDT5UiJs9HziMBPPuamMr9cbbtIOqxHhBOn1L4cg+ccob
YVnqxsTKMl7J6b8SKebGw2P+oFXaevFgmE0m7fpwLQIDAQABo4IBDjCCAQowCwYD
VR0PBAQDAgWgMAkGA1UdEwQCMAAwEQYJYIZIAYb4QgEBBAQDAgZAMDMGCWCGSAGG
+EIBDQQmFiRPcGVuU1NMIEdlbmVyYXRlZCBTZXJ2ZXIgQ2VydGlmaWNhdGUwHQYD
VR0OBBYEFFM/7V0JB7Nle6tFySRbCXeACpbtMHQGA1UdIwRtMGuAFPSnwMyRRq9k
85HyJ/jIsm+KhzJzoUikRjBEMQswCQYDVQQGEwJERTEPMA0GA1UECAwGSGVzc2Vu
MRQwEgYDVQQKDAtwcml2YWN5aWRlYTEOMAwGA1UEAwwFQ0EwMDGCCQD7yOusg80S
BzATBgNVHSUEDDAKBggrBgEFBQcDATANBgkqhkiG9w0BAQUFAAOCAQEAmmwzv6lP
gpo+wEx7NIP4Q8Y4EZj8xW7WLeGSQuzfXT97VXW+ZdyUfBxaAAipnTdICHPhjcjx
H+sMff3CNfNP8O4oQXKTW1bSHus93eQzBX34Pp3CVC4oAtOOVunB3XtsnGJuMsvF
MxDCKQzkwlUXMS6ajTm8KgY/jE4/jKB6vxi6LL4JF+QHm/2RzrsX/ezjwIjOmZ5h
JSlok5g20n3mnHI1SzEjZQU3DgHBqFeooArmR18Q2BSIZ7hG8Ek/C9wid8YdY5nj
etXsP9DffMY3V0kzud6diFQKm0mvlZygEXTSNgrtRk8rdpN/WhDjZ6wM4XEQEQZk
PJjCi6RlZ5BGzw==
-----END CERTIFICATE-----
