Certificate:
    Data:
        Version: 3 (0x2)
        Serial Number: 268435633 (0x100000b1)
    Signature Algorithm: sha1WithRSAEncryption
        Issuer: C=DE, ST=Hessen, O=privacyidea, CN=CA001
        Validity
            Not Before: Jun 18 14:17:34 2015 GMT
            Not After : Jun 17 14:17:34 2016 GMT
        Subject: CN=admin,CN=admin,O=/emailAddress=meine
        Subject Public Key Info:
            Public Key Algorithm: rsaEncryption
                Public-Key: (2048 bit)
                Modulus:
                    00:cd:35:a8:fb:9f:f0:52:61:e6:2c:21:d5:9b:10:
                    9d:97:66:2c:f0:33:c7:99:a3:14:70:fe:12:ce:e6:
                    bb:34:e4:3a:7e:07:08:34:51:b5:87:c2:8c:84:50:
                    30:08:69:fa:0a:24:65:f0:d9:90:f5:ca:7c:fd:6b:
                    70:a9:73:98:0c:bb:b6:b6:28:36:d8:fa:b7:fa:17:
                    af:5b:67:30:2e:bb:4e:53:7a:64:33:c6:d6:e7:82:
                    5e:d9:c9:c3:ce:61:49:48:e2:9e:56:cd:fb:f7:58:
                    2d:91:5d:80:db:9c:da:7f:96:d1:00:8d:44:08:e7:
                    d0:08:b8:ff:81:b4:6e:26:97:a7:40:bd:97:0f:47:
                    48:2b:02:81:11:6d:34:a0:8e:3c:1c:9e:0f:2b:3b:
                    c3:59:4b:17:9d:48:cf:54:dc:04:03:87:0b:a1:8f:
                    2b:89:b1:52:4d:43:9a:f7:50:61:de:db:b6:ce:99:
                    ec:61:59:5e:5c:cc:b0:da:21:52:8d:ab:c3:c8:30:
                    84:7e:5e:df:07:88:9f:a9:35:b4:4d:76:fb:25:96:
                    db:ec:7b:5f:31:34:29:db:2f:a4:8f:e9:64:d1:8a:
                    c5:56:e0:db:ae:88:9b:99:8f:35:9e:43:a8:8e:8b:
                    75:d8:59:d0:66:cb:48:d1:a9:98:c6:af:7e:02:13:
                    e7:eb
                Exponent: 65537 (0x10001)
        X509v3 extensions:
            X509v3 Key Usage: 
                Digital Signature, Key Encipherment
            X509v3 Basic Constraints: 
                CA:FALSE
            Netscape Cert Type: 
                SSL Server
            Netscape Comment: 
                OpenSSL Generated Server Certificate
            X509v3 Subject Key Identifier: 
                19:F1:73:0D:D5:FC:07:1F:AF:77:69:39:ED:0B:78:30:D6:B7:D1:2C
            X509v3 Authority Key Identifier: 
                keyid:F4:A7:C0:CC:91:46:AF:64:F3:91:F2:27:F8:C8:B2:6F:8A:87:32:73
                DirName:/C=DE/ST=Hessen/O=privacyidea/CN=CA001
                serial:FB:C8:EB:AC:83:CD:12:07

            X509v3 Extended Key Usage: 
                TLS Web Server Authentication
    Signature Algorithm: sha1WithRSAEncryption
         10:b6:71:d6:1e:44:93:cf:9e:1f:10:e0:eb:ef:f0:2b:58:b1:
         c7:39:1a:44:0b:e0:52:3c:0d:2b:60:b6:0d:58:b6:73:cc:5f:
         e5:5e:a0:d9:4b:45:fb:e6:77:2a:e3:15:fb:cf:36:27:df:16:
         9a:87:04:a9:87:49:51:42:bb:49:41:b4:46:3c:ad:a7:f6:00:
         6b:55:50:16:a3:6a:fd:c7:d2:d3:9a:ab:8a:81:64:09:00:c4:
         f6:c2:06:f3:e6:ed:b1:17:3c:ac:1d:fc:0c:71:55:e9:ff:53:
         3e:f1:a1:37:35:de:c3:e1:e8:88:9e:e4:5c:95:9f:4f:f0:a6:
         ae:82:4f:3e:ce:71:89:1c:bb:3d:d3:d5:33:af:64:76:0c:01:
         f9:46:90:50:dd:05:d4:02:91:c1:13:bd:ee:ac:23:e6:b0:d8:
         f5:e2:78:74:11:30:25:3c:29:49:1d:e9:fa:f0:df:8b:d9:c8:
         17:91:e5:7d:7b:c7:62:b0:c2:b7:e4:b5:74:d3:9e:94:65:d4:
         b5:89:66:a7:04:bb:b4:55:1a:02:3a:55:d0:6d:d2:ad:17:ce:
         b0:ca:46:73:e0:59:2f:c8:6f:09:fe:88:7f:60:b1:99:f8:85:
         21:5d:7d:d7:7e:93:66:53:f4:b1:d8:5f:2c:fd:d1:e6:07:f6:
         12:37:03:07
-----BEGIN CERTIFICATE-----
MIIEBDCCAuygAwIBAgIEEAAAsTANBgkqhkiG9w0BAQUFADBEMQswCQYDVQQGEwJE
RTEPMA0GA1UECAwGSGVzc2VuMRQwEgYDVQQKDAtwcml2YWN5aWRlYTEOMAwGA1UE
AwwFQ0EwMDEwHhcNMTUwNjE4MTQxNzM0WhcNMTYwNjE3MTQxNzM0WjAyMRowGAYD
VQQDExFhZG1pbixDTj1hZG1pbixPPTEUMBIGCSqGSIb3DQEJARYFbWVpbmUwggEi
MA0GCSqGSIb3DQEBAQUAA4IBDwAwggEKAoIBAQDNNaj7n/BSYeYsIdWbEJ2XZizw
M8eZoxRw/hLO5rs05Dp+Bwg0UbWHwoyEUDAIafoKJGXw2ZD1ynz9a3Cpc5gMu7a2
KDbY+rf6F69bZzAuu05TemQzxtbngl7ZycPOYUlI4p5Wzfv3WC2RXYDbnNp/ltEA
jUQI59AIuP+BtG4ml6dAvZcPR0grAoERbTSgjjwcng8rO8NZSxedSM9U3AQDhwuh
jyuJsVJNQ5r3UGHe27bOmexhWV5czLDaIVKNq8PIMIR+Xt8HiJ+pNbRNdvslltvs
e18xNCnbL6SP6WTRisVW4NuuiJuZjzWeQ6iOi3XYWdBmy0jRqZjGr34CE+frAgMB
AAGjggEOMIIBCjALBgNVHQ8EBAMCBaAwCQYDVR0TBAIwADARBglghkgBhvhCAQEE
BAMCBkAwMwYJYIZIAYb4QgENBCYWJE9wZW5TU0wgR2VuZXJhdGVkIFNlcnZlciBD
ZXJ0aWZpY2F0ZTAdBgNVHQ4EFgQUGfFzDdX8Bx+vd2k57Qt4MNa30SwwdAYDVR0j
BG0wa4AU9KfAzJFGr2TzkfIn+Miyb4qHMnOhSKRGMEQxCzAJBgNVBAYTAkRFMQ8w
DQYDVQQIDAZIZXNzZW4xFDASBgNVBAoMC3ByaXZhY3lpZGVhMQ4wDAYDVQQDDAVD
QTAwMYIJAPvI66yDzRIHMBMGA1UdJQQMMAoGCCsGAQUFBwMBMA0GCSqGSIb3DQEB
BQUAA4IBAQAQtnHWHkSTz54fEODr7/ArWLHHORpEC+BSPA0rYLYNWLZzzF/lXqDZ
S0X75ncq4xX7zzYn3xaahwSph0lRQrtJQbRGPK2n9gBrVVAWo2r9x9LTmquKgWQJ
AMT2wgbz5u2xFzysHfwMcVXp/1M+8aE3Nd7D4eiInuRclZ9P8Kaugk8+znGJHLs9
09Uzr2R2DAH5RpBQ3QXUApHBE73urCPmsNj14nh0ETAlPClJHen68N+L2cgXkeV9
e8disMK35LV0056UZdS1iWanBLu0VRoCOlXQbdKtF86wykZz4FkvyG8J/oh/YLGZ
+IUhXX3XfpNmU/Sx2F8s/dHmB/YSNwMH
-----END CERTIFICATE-----
