Certificate:
    Data:
        Version: 3 (0x2)
        Serial Number: 268435618 (0x100000a2)
    Signature Algorithm: sha1WithRSAEncryption
        Issuer: C=DE, ST=Hessen, O=privacyidea, CN=CA001
        Validity
            Not Before: Jul 21 06:46:17 2015 GMT
            Not After : Jul 20 06:46:17 2016 GMT
        Subject: CN=selfservice,CN=user,O=realm1/emailAddress=meine
        Subject Public Key Info:
            Public Key Algorithm: rsaEncryption
                Public-Key: (2048 bit)
                Modulus:
                    00:cf:3c:d4:33:0e:12:c4:e6:da:cd:b6:56:a1:1c:
                    26:bb:26:1c:8a:4a:73:a8:58:8a:b6:1e:b3:8b:99:
                    d2:1d:07:c2:92:89:79:c0:69:d8:c8:df:28:61:98:
                    1e:b3:fe:ae:2b:bd:78:a9:f7:6e:47:dc:a3:a0:16:
                    8c:85:02:c1:4e:92:fd:72:6e:f0:c8:03:29:9b:b8:
                    00:6e:c0:83:95:c8:34:20:36:9c:b3:e5:e4:e6:76:
                    73:a3:1a:ad:40:96:e0:53:54:00:ec:76:79:9a:c6:
                    0d:7e:b6:bd:29:ec:83:f3:cb:89:a4:cb:6c:00:ba:
                    0c:c5:78:0f:ff:69:b8:94:f4:04:70:43:3f:d8:9e:
                    d7:a7:fb:5d:ce:75:8e:da:e7:c4:07:b1:9d:de:6f:
                    88:4b:b6:4d:9a:cf:f9:bc:fa:9f:cd:32:6d:f6:3a:
                    0b:0d:23:42:78:ec:97:42:bf:0e:4d:60:56:e1:d3:
                    02:f2:19:cb:84:57:90:e5:70:a1:a2:83:35:86:e2:
                    da:86:9f:f9:8a:c4:79:b3:52:28:da:cb:bb:34:ca:
                    d3:da:91:4a:cf:8d:76:a2:b2:6b:9b:f9:96:fd:09:
                    2a:da:11:23:4d:f0:cb:d6:b2:b1:0e:12:6c:9a:19:
                    65:98:87:ca:e4:ee:24:ce:44:ac:90:8f:9d:1b:c5:
                    2a:9d
                Exponent: 65537 (0x10001)
        X509v3 extensions:
            X509v3 Key Usage: 
                Digital Signature, Key Encipherment
            X509v3 Basic Constraints: 
                CA:FALSE
            Netscape Cert Type: 
                SSL Server
            Netscape Comment: 
                OpenSSL Generated Server Certificate
            X509v3 Subject Key Identifier: 
                4D:07:90:AD:FF:1D:0D:E7:1A:DD:D6:2E:FA:BA:34:CB:AA:1F:24:C6
            X509v3 Authority Key Identifier: 
                keyid:F4:A7:C0:CC:91:46:AF:64:F3:91:F2:27:F8:C8:B2:6F:8A:87:32:73
                DirName:/C=DE/ST=Hessen/O=privacyidea/CN=CA001
                serial:FB:C8:EB:AC:83:CD:12:07

            X509v3 Extended Key Usage: 
                TLS Web Server Authentication
    Signature Algorithm: sha1WithRSAEncryption
         55:5d:1b:e8:d6:71:35:22:65:66:33:1f:4d:57:6c:8e:fd:be:
         ea:7a:3a:6b:0d:51:b1:27:bb:7f:e6:49:60:a1:f7:dd:40:e9:
         ce:c9:90:51:35:22:32:a2:a6:6d:5d:f8:9b:5a:cd:bb:c7:08:
         46:d0:12:4d:6d:19:b7:ff:91:dd:db:af:6b:5a:ce:41:a9:cb:
         41:ab:f7:51:8d:a9:fe:2f:a1:93:ba:ef:fa:2a:ef:46:b5:b0:
         5b:c6:8d:11:43:49:85:9a:94:87:28:53:30:37:7d:44:a1:fc:
         47:f8:45:5e:95:f2:d4:67:1b:a4:ae:2b:f6:ac:ad:f2:1a:00:
         9b:f4:9d:a4:54:a9:12:30:fb:9c:55:25:2e:2c:e7:6d:1a:f3:
         24:6a:f3:0d:b0:c7:c8:72:a3:26:b2:b0:11:7b:e9:a7:92:77:
         9b:e2:11:f5:11:99:76:66:ec:03:17:35:23:83:6f:98:99:00:
         5a:42:0c:ae:cc:c4:cf:1c:9d:fc:dc:d3:27:02:b3:ef:00:ee:
         75:d3:28:52:fc:24:38:77:11:31:f9:0d:d4:95:d6:93:4b:33:
         bd:9e:4b:da:0a:dc:3b:9b:c6:4f:ea:14:e8:d6:29:8b:69:51:
         4e:0a:4f:cd:b9:fb:33:d8:7c:fe:17:d3:79:88:e2:7f:c1:c8:
         ab:97:db:60
-----BEGIN CERTIFICATE-----
MIIEDzCCAvegAwIBAgIEEAAAojANBgkqhkiG9w0BAQUFADBEMQswCQYDVQQGEwJE
RTEPMA0GA1UECAwGSGVzc2VuMRQwEgYDVQQKDAtwcml2YWN5aWRlYTEOMAwGA1UE
AwwFQ0EwMDEwHhcNMTUwNzIxMDY0NjE3WhcNMTYwNzIwMDY0NjE3WjA9MSUwIwYD
VQQDExxzZWxmc2VydmljZSxDTj11c2VyLE89cmVhbG0xMRQwEgYJKoZIhvcNAQkB
FgVtZWluZTCCASIwDQYJKoZIhvcNAQEBBQADggEPADCCAQoCggEBAM881DMOEsTm
2s22VqEcJrsmHIpKc6hYirYes4uZ0h0HwpKJecBp2MjfKGGYHrP+riu9eKn3bkfc
o6AWjIUCwU6S/XJu8MgDKZu4AG7Ag5XINCA2nLPl5OZ2c6MarUCW4FNUAOx2eZrG
DX62vSnsg/PLiaTLbAC6DMV4D/9puJT0BHBDP9ie16f7Xc51jtrnxAexnd5viEu2
TZrP+bz6n80ybfY6Cw0jQnjsl0K/Dk1gVuHTAvIZy4RXkOVwoaKDNYbi2oaf+YrE
ebNSKNrLuzTK09qRSs+NdqKya5v5lv0JKtoRI03wy9aysQ4SbJoZZZiHyuTuJM5E
rJCPnRvFKp0CAwEAAaOCAQ4wggEKMAsGA1UdDwQEAwIFoDAJBgNVHRMEAjAAMBEG
CWCGSAGG+EIBAQQEAwIGQDAzBglghkgBhvhCAQ0EJhYkT3BlblNTTCBHZW5lcmF0
ZWQgU2VydmVyIENlcnRpZmljYXRlMB0GA1UdDgQWBBRNB5Ct/x0N5xrd1i76ujTL
qh8kxjB0BgNVHSMEbTBrgBT0p8DMkUavZPOR8if4yLJviocyc6FIpEYwRDELMAkG
A1UEBhMCREUxDzANBgNVBAgMBkhlc3NlbjEUMBIGA1UECgwLcHJpdmFjeWlkZWEx
DjAMBgNVBAMMBUNBMDAxggkA+8jrrIPNEgcwEwYDVR0lBAwwCgYIKwYBBQUHAwEw
DQYJKoZIhvcNAQEFBQADggEBAFVdG+jWcTUiZWYzH01XbI79vup6OmsNUbEnu3/m
SWCh991A6c7JkFE1IjKipm1d+JtazbvHCEbQEk1tGbf/kd3br2tazkGpy0Gr91GN
qf4voZO67/oq70a1sFvGjRFDSYWalIcoUzA3fUSh/Ef4RV6V8tRnG6SuK/asrfIa
AJv0naRUqRIw+5xVJS4s520a8yRq8w2wx8hyoyaysBF76aeSd5viEfURmXZm7AMX
NSODb5iZAFpCDK7MxM8cnfzc0ycCs+8A7nXTKFL8JDh3ETH5DdSV1pNLM72eS9oK
3Dubxk/qFOjWKYtpUU4KT825+zPYfP4X03mI4n/ByKuX22A=
-----END CERTIFICATE-----
