Certificate:
    Data:
        Version: 3 (0x2)
        Serial Number: 268435624 (0x100000a8)
    Signature Algorithm: sha1WithRSAEncryption
        Issuer: C=DE, ST=Hessen, O=privacyidea, CN=CA001
        Validity
            Not Before: Jul  1 14:06:54 2015 GMT
            Not After : Jun 30 14:06:54 2016 GMT
        Subject: CN=selfservice,CN=user,O=realm1/emailAddress=meine
        Subject Public Key Info:
            Public Key Algorithm: rsaEncryption
                Public-Key: (2048 bit)
                Modulus:
                    00:cf:3c:d4:33:0e:12:c4:e6:da:cd:b6:56:a1:1c:
                    26:bb:26:1c:8a:4a:73:a8:58:8a:b6:1e:b3:8b:99:
                    d2:1d:07:c2:92:89:79:c0:69:d8:c8:df:28:61:98:
                    1e:b3:fe:ae:2b:bd:78:a9:f7:6e:47:dc:a3:a0:16:
                    8c:85:02:c1:4e:92:fd:72:6e:f0:c8:03:29:9b:b8:
                    00:6e:c0:83:95:c8:34:20:36:9c:b3:e5:e4:e6:76:
                    73:a3:1a:ad:40:96:e0:53:54:00:ec:76:79:9a:c6:
                    0d:7e:b6:bd:29:ec:83:f3:cb:89:a4:cb:6c:00:ba:
                    0c:c5:78:0f:ff:69:b8:94:f4:04:70:43:3f:d8:9e:
                    d7:a7:fb:5d:ce:75:8e:da:e7:c4:07:b1:9d:de:6f:
                    88:4b:b6:4d:9a:cf:f9:bc:fa:9f:cd:32:6d:f6:3a:
                    0b:0d:23:42:78:ec:97:42:bf:0e:4d:60:56:e1:d3:
                    02:f2:19:cb:84:57:90:e5:70:a1:a2:83:35:86:e2:
                    da:86:9f:f9:8a:c4:79:b3:52:28:da:cb:bb:34:ca:
                    d3:da:91:4a:cf:8d:76:a2:b2:6b:9b:f9:96:fd:09:
                    2a:da:11:23:4d:f0:cb:d6:b2:b1:0e:12:6c:9a:19:
                    65:98:87:ca:e4:ee:24:ce:44:ac:90:8f:9d:1b:c5:
                    2a:9d
                Exponent: 65537 (0x10001)
        X509v3 extensions:
            X509v3 Key Usage: 
                Digital Signature, Key Encipherment
            X509v3 Basic Constraints: 
                CA:FALSE
            Netscape Cert Type: 
                SSL Server
            Netscape Comment: 
                OpenSSL Generated Server Certificate
            X509v3 Subject Key Identifier: 
                4D:07:90:AD:FF:1D:0D:E7:1A:DD:D6:2E:FA:BA:34:CB:AA:1F:24:C6
            X509v3 Authority Key Identifier: 
                keyid:F4:A7:C0:CC:91:46:AF:64:F3:91:F2:27:F8:C8:B2:6F:8A:87:32:73
                DirName:/C=DE/ST=Hessen/O=privacyidea/CN=CA001
                serial:FB:C8:EB:AC:83:CD:12:07

            X509v3 Extended Key Usage: 
                TLS Web Server Authentication
    Signature Algorithm: sha1WithRSAEncryption
         2d:e2:98:d3:d9:d1:88:16:a3:76:eb:95:2f:77:dc:df:d4:40:
         8d:89:6e:41:27:44:e4:89:a1:07:86:07:07:12:ec:89:5d:4e:
         33:d2:42:03:8a:77:dd:b7:d1:49:de:6e:a4:e4:43:bc:d7:de:
         20:fd:5a:db:72:9d:8b:38:0d:21:c2:ef:5e:b1:43:56:8f:65:
         7d:9c:41:2a:e0:0d:b1:55:8d:9b:6b:13:ac:4c:66:b8:9f:07:
         b9:c5:11:73:cf:f5:2a:31:58:26:c5:c1:19:0d:c4:b4:99:4b:
         d4:45:19:9d:a7:31:54:b6:be:f0:e8:c8:0f:78:fe:13:35:b2:
         63:f6:b4:64:15:ef:90:0f:6c:47:11:9f:53:64:fe:06:b7:83:
         e8:ce:93:44:a6:aa:75:6d:23:c6:3f:99:47:b2:5a:98:ea:d2:
         b1:7a:ce:fd:b4:6f:d5:82:d5:3b:57:91:b8:d7:66:3b:fa:93:
         b5:83:19:4b:f4:ff:13:ea:1d:c5:87:d8:e7:4a:dd:2d:12:c3:
         43:cb:70:74:f1:c7:1a:41:69:9e:de:d0:02:51:c0:c8:18:59:
         26:80:c6:af:70:fd:49:c0:e6:a7:15:d0:48:1b:ae:47:48:76:
         3d:25:6f:ff:5c:2b:ce:36:ed:94:7a:bd:15:e4:bc:83:c8:fd:
         45:7e:78:ac
-----BEGIN CERTIFICATE-----
MIIEDzCCAvegAwIBAgIEEAAAqDANBgkqhkiG9w0BAQUFADBEMQswCQYDVQQGEwJE
RTEPMA0GA1UECAwGSGVzc2VuMRQwEgYDVQQKDAtwcml2YWN5aWRlYTEOMAwGA1UE
AwwFQ0EwMDEwHhcNMTUwNzAxMTQwNjU0WhcNMTYwNjMwMTQwNjU0WjA9MSUwIwYD
VQQDExxzZWxmc2VydmljZSxDTj11c2VyLE89cmVhbG0xMRQwEgYJKoZIhvcNAQkB
FgVtZWluZTCCASIwDQYJKoZIhvcNAQEBBQADggEPADCCAQoCggEBAM881DMOEsTm
2s22VqEcJrsmHIpKc6hYirYes4uZ0h0HwpKJecBp2MjfKGGYHrP+riu9eKn3bkfc
o6AWjIUCwU6S/XJu8MgDKZu4AG7Ag5XINCA2nLPl5OZ2c6MarUCW4FNUAOx2eZrG
DX62vSnsg/PLiaTLbAC6DMV4D/9puJT0BHBDP9ie16f7Xc51jtrnxAexnd5viEu2
TZrP+bz6n80ybfY6Cw0jQnjsl0K/Dk1gVuHTAvIZy4RXkOVwoaKDNYbi2oaf+YrE
ebNSKNrLuzTK09qRSs+NdqKya5v5lv0JKtoRI03wy9aysQ4SbJoZZZiHyuTuJM5E
rJCPnRvFKp0CAwEAAaOCAQ4wggEKMAsGA1UdDwQEAwIFoDAJBgNVHRMEAjAAMBEG
CWCGSAGG+EIBAQQEAwIGQDAzBglghkgBhvhCAQ0EJhYkT3BlblNTTCBHZW5lcmF0
ZWQgU2VydmVyIENlcnRpZmljYXRlMB0GA1UdDgQWBBRNB5Ct/x0N5xrd1i76ujTL
qh8kxjB0BgNVHSMEbTBrgBT0p8DMkUavZPOR8if4yLJviocyc6FIpEYwRDELMAkG
A1UEBhMCREUxDzANBgNVBAgMBkhlc3NlbjEUMBIGA1UECgwLcHJpdmFjeWlkZWEx
DjAMBgNVBAMMBUNBMDAxggkA+8jrrIPNEgcwEwYDVR0lBAwwCgYIKwYBBQUHAwEw
DQYJKoZIhvcNAQEFBQADggEBAC3imNPZ0YgWo3brlS933N/UQI2JbkEnROSJoQeG
BwcS7IldTjPSQgOKd9230UnebqTkQ7zX3iD9WttynYs4DSHC716xQ1aPZX2cQSrg
DbFVjZtrE6xMZrifB7nFEXPP9SoxWCbFwRkNxLSZS9RFGZ2nMVS2vvDoyA94/hM1
smP2tGQV75APbEcRn1Nk/ga3g+jOk0SmqnVtI8Y/mUeyWpjq0rF6zv20b9WC1TtX
kbjXZjv6k7WDGUv0/xPqHcWH2OdK3S0Sw0PLcHTxxxpBaZ7e0AJRwMgYWSaAxq9w
/UnA5qcV0EgbrkdIdj0lb/9cK8427ZR6vRXkvIPI/UV+eKw=
-----END CERTIFICATE-----
