Certificate:
    Data:
        Version: 3 (0x2)
        Serial Number: 268435613 (0x1000009d)
    Signature Algorithm: sha1WithRSAEncryption
        Issuer: C=DE, ST=Hessen, O=privacyidea, CN=CA001
        Validity
            Not Before: Jul 21 06:44:23 2015 GMT
            Not After : Jul 20 06:44:23 2016 GMT
        Subject: C=DE, ST=Hessen, O=privacyidea, CN=requester.localdomain
        Subject Public Key Info:
            Public Key Algorithm: rsaEncryption
                Public-Key: (2048 bit)
                Modulus:
                    00:cd:be:14:4f:fa:ce:01:3f:42:22:1b:1d:9c:af:
                    dd:92:d2:7f:db:6c:b7:3e:39:43:43:6b:13:03:f1:
                    05:f4:07:74:bc:76:69:28:0b:af:19:8e:d7:fc:e3:
                    cd:c6:58:f2:ca:7f:08:6d:53:fc:07:02:44:24:c6:
                    b4:34:4c:8c:04:fe:33:0e:40:e2:20:ba:02:73:5a:
                    f7:f5:4f:63:6e:cc:c6:b6:df:54:1d:37:39:7d:51:
                    36:26:5f:bd:dc:3f:a8:8b:6b:a2:ae:b6:9d:d6:21:
                    e7:df:41:b8:7a:28:2a:68:48:ca:a8:2d:ed:e1:e9:
                    46:5e:5a:72:6d:b4:84:38:87:91:fd:94:11:0b:28:
                    84:c6:c2:2f:2a:fb:01:f9:36:7a:09:75:d1:33:88:
                    3c:73:41:5b:c8:bf:94:89:70:a1:f0:c0:b9:2e:50:
                    53:1e:b1:17:64:69:f4:2d:81:e0:a9:0d:0e:32:e9:
                    ba:55:8a:85:f1:1b:6f:49:79:b4:7f:88:c3:0d:3e:
                    54:88:9b:3d:1f:38:8c:04:f3:ee:6a:63:2b:f5:c6:
                    db:b4:83:aa:c4:78:41:3a:7d:4b:e1:c8:3e:71:ca:
                    1b:61:59:ea:c6:c4:ca:32:5e:c9:e9:bf:12:29:e6:
                    c6:c3:63:fe:a0:55:da:7a:f1:60:98:4d:26:ed:fa:
                    70:2d
                Exponent: 65537 (0x10001)
        X509v3 extensions:
            X509v3 Key Usage: 
                Digital Signature, Key Encipherment
            X509v3 Basic Constraints: 
                CA:FALSE
            Netscape Cert Type: 
                SSL Server
            Netscape Comment: 
                OpenSSL Generated Server Certificate
            X509v3 Subject Key Identifier: 
                53:3F:ED:5D:09:07:B3:65:7B:AB:45:C9:24:5B:09:77:80:0A:96:ED
            X509v3 Authority Key Identifier: 
                keyid:F4:A7:C0:CC:91:46:AF:64:F3:91:F2:27:F8:C8:B2:6F:8A:87:32:73
                DirName:/C=DE/ST=Hessen/O=privacyidea/CN=CA001
                serial:FB:C8:EB:AC:83:CD:12:07

            X509v3 Extended Key Usage: 
                TLS Web Server Authentication
    Signature Algorithm: sha1WithRSAEncryption
         b7:bd:72:58:0d:30:82:36:f2:fa:6b:96:34:03:3f:73:a8:51:
         2c:8b:a8:29:36:07:ba:7b:25:c2:1a:85:4d:26:35:e7:04:97:
         97:92:22:4a:10:d4:b2:35:49:d2:07:d4:5a:f5:cb:ae:75:c9:
         b7:81:a3:23:4b:1b:32:99:b7:45:c0:b9:2e:2d:3c:1f:69:84:
         75:11:99:53:7f:c4:42:8f:1e:f5:6d:af:6a:15:32:0f:9e:cd:
         6a:15:dd:90:cc:3c:3f:48:72:52:5c:3a:79:97:5b:25:74:ef:
         9f:53:fd:20:d1:e7:c3:a9:92:e9:81:9a:4e:c1:cc:2e:82:ed:
         08:55:55:9c:9e:ba:76:41:8c:48:85:09:99:8f:75:57:16:b1:
         b3:26:40:f6:63:8f:68:93:a1:81:7a:a6:27:f2:13:e1:ac:96:
         26:9a:1c:a5:f5:59:43:74:9c:d5:8a:ce:3c:50:07:4d:d9:0c:
         57:7b:16:7a:3c:06:c1:44:8c:47:8f:9d:f2:50:ab:c5:b2:65:
         d3:f0:07:39:fc:e9:c6:2d:eb:95:fb:b7:c9:6b:34:ee:01:0d:
         3d:b1:fc:90:2f:ce:49:53:e1:10:5f:f8:f3:27:1d:82:fe:cf:
         f3:0f:22:d5:49:20:f7:9a:7a:b1:ac:91:30:d9:7e:a7:5b:e4:
         52:ff:87:b8
-----BEGIN CERTIFICATE-----
MIIEJjCCAw6gAwIBAgIEEAAAnTANBgkqhkiG9w0BAQUFADBEMQswCQYDVQQGEwJE
RTEPMA0GA1UECAwGSGVzc2VuMRQwEgYDVQQKDAtwcml2YWN5aWRlYTEOMAwGA1UE
AwwFQ0EwMDEwHhcNMTUwNzIxMDY0NDIzWhcNMTYwNzIwMDY0NDIzWjBUMQswCQYD
VQQGEwJERTEPMA0GA1UECAwGSGVzc2VuMRQwEgYDVQQKDAtwcml2YWN5aWRlYTEe
MBwGA1UEAwwVcmVxdWVzdGVyLmxvY2FsZG9tYWluMIIBIjANBgkqhkiG9w0BAQEF
AAOCAQ8AMIIBCgKCAQEAzb4UT/rOAT9CIhsdnK/dktJ/22y3PjlDQ2sTA/EF9Ad0
vHZpKAuvGY7X/OPNxljyyn8IbVP8BwJEJMa0NEyMBP4zDkDiILoCc1r39U9jbszG
tt9UHTc5fVE2Jl+93D+oi2uirrad1iHn30G4eigqaEjKqC3t4elGXlpybbSEOIeR
/ZQRCyiExsIvKvsB+TZ6CXXRM4g8c0FbyL+UiXCh8MC5LlBTHrEXZGn0LYHgqQ0O
Mum6VYqF8RtvSXm0f4jDDT5UiJs9HziMBPPuamMr9cbbtIOqxHhBOn1L4cg+ccob
YVnqxsTKMl7J6b8SKebGw2P+oFXaevFgmE0m7fpwLQIDAQABo4IBDjCCAQowCwYD
VR0PBAQDAgWgMAkGA1UdEwQCMAAwEQYJYIZIAYb4QgEBBAQDAgZAMDMGCWCGSAGG
+EIBDQQmFiRPcGVuU1NMIEdlbmVyYXRlZCBTZXJ2ZXIgQ2VydGlmaWNhdGUwHQYD
VR0OBBYEFFM/7V0JB7Nle6tFySRbCXeACpbtMHQGA1UdIwRtMGuAFPSnwMyRRq9k
85HyJ/jIsm+KhzJzoUikRjBEMQswCQYDVQQGEwJERTEPMA0GA1UECAwGSGVzc2Vu
MRQwEgYDVQQKDAtwcml2YWN5aWRlYTEOMAwGA1UEAwwFQ0EwMDGCCQD7yOusg80S
BzATBgNVHSUEDDAKBggrBgEFBQcDATANBgkqhkiG9w0BAQUFAAOCAQEAt71yWA0w
gjby+muWNAM/c6hRLIuoKTYHunslwhqFTSY15wSXl5IiShDUsjVJ0gfUWvXLrnXJ
t4GjI0sbMpm3RcC5Li08H2mEdRGZU3/EQo8e9W2vahUyD57NahXdkMw8P0hyUlw6
eZdbJXTvn1P9INHnw6mS6YGaTsHMLoLtCFVVnJ66dkGMSIUJmY91VxaxsyZA9mOP
aJOhgXqmJ/IT4ayWJpocpfVZQ3Sc1YrOPFAHTdkMV3sWejwGwUSMR4+d8lCrxbJl
0/AHOfzpxi3rlfu3yWs07gENPbH8kC/OSVPhEF/48ycdgv7P8w8i1Ukg95p6sayR
MNl+p1vkUv+HuA==
-----END CERTIFICATE-----
