Certificate:
    Data:
        Version: 3 (0x2)
        Serial Number: 268435610 (0x1000009a)
    Signature Algorithm: sha1WithRSAEncryption
        Issuer: C=DE, ST=Hessen, O=privacyidea, CN=CA001
        Validity
            Not Before: Jul 21 06:38:54 2015 GMT
            Not After : Jul 20 06:38:54 2016 GMT
        Subject: CN=Steve Test/emailAddress=steve@openssl.org
        Subject Public Key Info:
            Public Key Algorithm: rsaEncryption
                Public-Key: (2048 bit)
                Modulus:
                    00:d2:81:89:20:51:48:0f:73:f4:11:32:24:d5:1f:
                    1c:fd:5c:f5:b6:e6:c5:f0:52:81:dc:d2:af:66:4a:
                    7c:93:31:61:5c:af:d1:6d:06:70:03:60:7c:72:0c:
                    88:dd:49:cd:9e:02:6c:d2:5a:d7:53:0f:f3:da:be:
                    69:64:b5:0f:0c:00:e3:b3:50:47:a3:b3:9b:ba:13:
                    50:d6:58:5a:4b:ab:39:e0:11:ca:0a:27:67:03:78:
                    22:66:6d:92:1e:1b:5c:49:ae:e6:6b:d1:8e:3b:9d:
                    06:d3:c6:ac:4d:53:43:10:ab:e8:96:c1:87:82:97:
                    99:8f:20:d3:99:12:37:31:84:e1:8a:ff:29:03:5f:
                    22:90:3e:7f:9b:e0:20:c1:ad:dc:ae:4c:39:1a:31:
                    96:17:02:8c:b2:d9:b4:0d:20:12:9b:7d:86:54:fd:
                    33:fd:c1:2a:62:46:f8:60:96:cf:6e:01:6f:22:df:
                    13:47:e7:97:ec:05:72:23:a3:62:f8:fa:ef:ac:9c:
                    72:f0:37:cb:2f:37:cf:90:a8:27:51:86:c6:d7:78:
                    08:8f:7e:25:a2:15:70:a2:fb:1c:b6:15:5e:a0:97:
                    8b:81:4c:09:28:8a:27:3b:94:bc:71:db:5b:71:37:
                    9a:2b:16:e0:6f:b5:c9:f5:4b:4f:20:ba:65:cf:af:
                    ad:ad
                Exponent: 65537 (0x10001)
        X509v3 extensions:
            X509v3 Key Usage: 
                Digital Signature, Key Encipherment
            X509v3 Basic Constraints: 
                CA:FALSE
            Netscape Cert Type: 
                SSL Server
            Netscape Comment: 
                OpenSSL Generated Server Certificate
            X509v3 Subject Key Identifier: 
                E5:25:6D:3E:AF:0D:DD:3F:4C:F2:45:19:39:D5:14:DB:7E:9C:C0:AD
            X509v3 Authority Key Identifier: 
                keyid:F4:A7:C0:CC:91:46:AF:64:F3:91:F2:27:F8:C8:B2:6F:8A:87:32:73
                DirName:/C=DE/ST=Hessen/O=privacyidea/CN=CA001
                serial:FB:C8:EB:AC:83:CD:12:07

            X509v3 Extended Key Usage: 
                TLS Web Server Authentication
    Signature Algorithm: sha1WithRSAEncryption
         69:ad:77:0a:79:d4:9d:19:55:eb:1e:34:4f:24:b8:8c:17:59:
         07:f7:e7:de:6a:be:63:78:0a:05:2e:8e:bb:f9:91:16:b9:0a:
         60:23:eb:57:9f:71:ba:84:7f:fe:9b:f9:88:c0:55:55:ff:89:
         b2:b7:28:8f:b8:ff:b0:8a:73:de:ff:90:e7:41:4f:6c:29:66:
         7e:d4:41:80:df:51:6b:25:30:39:8c:3d:22:fe:52:28:d7:f6:
         c5:7a:74:ed:74:38:9c:4f:2a:14:73:a3:f3:4f:1a:c9:ea:77:
         6c:cf:cd:50:cf:fe:05:5a:25:8a:1c:05:56:62:04:6b:97:94:
         1f:3f:d7:52:a0:ba:88:f0:37:c5:5c:55:cf:2f:ff:64:be:3d:
         49:22:e2:b6:21:4e:50:a0:db:c3:24:17:40:13:d9:4c:8d:98:
         80:dd:f7:b6:ba:ec:ba:e3:c3:f9:2e:3c:33:30:79:0a:42:5e:
         2b:16:0b:3f:b3:f6:07:ce:e6:e9:ae:bf:73:42:24:21:ca:4d:
         81:af:6d:92:6b:06:bc:9c:bd:85:40:a7:19:87:98:bc:c7:48:
         5e:96:7c:b0:67:f1:fc:2d:03:4e:d7:2b:40:e0:06:f7:61:ed:
         15:29:2a:b5:6d:fc:f2:ab:a8:5a:44:90:84:0a:e0:4f:99:72:
         fc:31:e4:84
-----BEGIN CERTIFICATE-----
MIIECTCCAvGgAwIBAgIEEAAAmjANBgkqhkiG9w0BAQUFADBEMQswCQYDVQQGEwJE
RTEPMA0GA1UECAwGSGVzc2VuMRQwEgYDVQQKDAtwcml2YWN5aWRlYTEOMAwGA1UE
AwwFQ0EwMDEwHhcNMTUwNzIxMDYzODU0WhcNMTYwNzIwMDYzODU0WjA3MRMwEQYD
VQQDEwpTdGV2ZSBUZXN0MSAwHgYJKoZIhvcNAQkBFhFzdGV2ZUBvcGVuc3NsLm9y
ZzCCASIwDQYJKoZIhvcNAQEBBQADggEPADCCAQoCggEBANKBiSBRSA9z9BEyJNUf
HP1c9bbmxfBSgdzSr2ZKfJMxYVyv0W0GcANgfHIMiN1JzZ4CbNJa11MP89q+aWS1
DwwA47NQR6Ozm7oTUNZYWkurOeARygonZwN4ImZtkh4bXEmu5mvRjjudBtPGrE1T
QxCr6JbBh4KXmY8g05kSNzGE4Yr/KQNfIpA+f5vgIMGt3K5MORoxlhcCjLLZtA0g
Ept9hlT9M/3BKmJG+GCWz24BbyLfE0fnl+wFciOjYvj676yccvA3yy83z5CoJ1GG
xtd4CI9+JaIVcKL7HLYVXqCXi4FMCSiKJzuUvHHbW3E3misW4G+1yfVLTyC6Zc+v
ra0CAwEAAaOCAQ4wggEKMAsGA1UdDwQEAwIFoDAJBgNVHRMEAjAAMBEGCWCGSAGG
+EIBAQQEAwIGQDAzBglghkgBhvhCAQ0EJhYkT3BlblNTTCBHZW5lcmF0ZWQgU2Vy
dmVyIENlcnRpZmljYXRlMB0GA1UdDgQWBBTlJW0+rw3dP0zyRRk51RTbfpzArTB0
BgNVHSMEbTBrgBT0p8DMkUavZPOR8if4yLJviocyc6FIpEYwRDELMAkGA1UEBhMC
REUxDzANBgNVBAgMBkhlc3NlbjEUMBIGA1UECgwLcHJpdmFjeWlkZWExDjAMBgNV
BAMMBUNBMDAxggkA+8jrrIPNEgcwEwYDVR0lBAwwCgYIKwYBBQUHAwEwDQYJKoZI
hvcNAQEFBQADggEBAGmtdwp51J0ZVeseNE8kuIwXWQf3595qvmN4CgUujrv5kRa5
CmAj61efcbqEf/6b+YjAVVX/ibK3KI+4/7CKc97/kOdBT2wpZn7UQYDfUWslMDmM
PSL+UijX9sV6dO10OJxPKhRzo/NPGsnqd2zPzVDP/gVaJYocBVZiBGuXlB8/11Kg
uojwN8VcVc8v/2S+PUki4rYhTlCg28MkF0AT2UyNmIDd97a67Lrjw/kuPDMweQpC
XisWCz+z9gfO5umuv3NCJCHKTYGvbZJrBrycvYVApxmHmLzHSF6WfLBn8fwtA07X
K0DgBvdh7RUpKrVt/PKrqFpEkIQK4E+Zcvwx5IQ=
-----END CERTIFICATE-----
