Certificate:
    Data:
        Version: 3 (0x2)
        Serial Number: 268435623 (0x100000a7)
    Signature Algorithm: sha1WithRSAEncryption
        Issuer: C=DE, ST=Hessen, O=privacyidea, CN=CA001
        Validity
            Not Before: Jul  1 14:06:03 2015 GMT
            Not After : Jun 30 14:06:03 2016 GMT
        Subject: C=DE, ST=Hessen, O=privacyidea, CN=requester.localdomain
        Subject Public Key Info:
            Public Key Algorithm: rsaEncryption
                Public-Key: (2048 bit)
                Modulus:
                    00:cd:be:14:4f:fa:ce:01:3f:42:22:1b:1d:9c:af:
                    dd:92:d2:7f:db:6c:b7:3e:39:43:43:6b:13:03:f1:
                    05:f4:07:74:bc:76:69:28:0b:af:19:8e:d7:fc:e3:
                    cd:c6:58:f2:ca:7f:08:6d:53:fc:07:02:44:24:c6:
                    b4:34:4c:8c:04:fe:33:0e:40:e2:20:ba:02:73:5a:
                    f7:f5:4f:63:6e:cc:c6:b6:df:54:1d:37:39:7d:51:
                    36:26:5f:bd:dc:3f:a8:8b:6b:a2:ae:b6:9d:d6:21:
                    e7:df:41:b8:7a:28:2a:68:48:ca:a8:2d:ed:e1:e9:
                    46:5e:5a:72:6d:b4:84:38:87:91:fd:94:11:0b:28:
                    84:c6:c2:2f:2a:fb:01:f9:36:7a:09:75:d1:33:88:
                    3c:73:41:5b:c8:bf:94:89:70:a1:f0:c0:b9:2e:50:
                    53:1e:b1:17:64:69:f4:2d:81:e0:a9:0d:0e:32:e9:
                    ba:55:8a:85:f1:1b:6f:49:79:b4:7f:88:c3:0d:3e:
                    54:88:9b:3d:1f:38:8c:04:f3:ee:6a:63:2b:f5:c6:
                    db:b4:83:aa:c4:78:41:3a:7d:4b:e1:c8:3e:71:ca:
                    1b:61:59:ea:c6:c4:ca:32:5e:c9:e9:bf:12:29:e6:
                    c6:c3:63:fe:a0:55:da:7a:f1:60:98:4d:26:ed:fa:
                    70:2d
                Exponent: 65537 (0x10001)
        X509v3 extensions:
            X509v3 Key Usage: 
                Digital Signature, Key Encipherment
            X509v3 Basic Constraints: 
                CA:FALSE
            Netscape Cert Type: 
                SSL Server
            Netscape Comment: 
                OpenSSL Generated Server Certificate
            X509v3 Subject Key Identifier: 
                53:3F:ED:5D:09:07:B3:65:7B:AB:45:C9:24:5B:09:77:80:0A:96:ED
            X509v3 Authority Key Identifier: 
                keyid:F4:A7:C0:CC:91:46:AF:64:F3:91:F2:27:F8:C8:B2:6F:8A:87:32:73
                DirName:/C=DE/ST=Hessen/O=privacyidea/CN=CA001
                serial:FB:C8:EB:AC:83:CD:12:07

            X509v3 Extended Key Usage: 
                TLS Web Server Authentication
    Signature Algorithm: sha1WithRSAEncryption
         73:d9:05:d6:b4:17:da:de:b9:d5:f9:61:65:c4:a3:8d:af:b4:
         b3:22:ff:a1:15:16:ff:6b:58:39:cc:ff:e2:ba:d1:4e:a2:31:
         ad:7e:8a:46:7c:8d:02:26:e1:04:ba:ce:79:05:91:b7:89:73:
         10:23:70:36:ca:86:35:56:89:fe:53:b2:d9:68:44:ea:41:bb:
         ad:8f:ba:2c:9a:4f:8c:03:29:20:2a:ad:1d:fa:f8:e4:36:95:
         70:2c:26:d8:ff:88:c8:65:20:1f:15:49:49:28:f4:1b:26:f1:
         85:9e:d8:03:15:8f:6e:d0:9e:91:dc:d1:62:8a:e4:d0:b9:bc:
         0a:75:d9:49:52:66:00:77:bb:cd:17:db:15:ac:9d:2b:11:a2:
         77:f7:26:cb:83:04:05:17:31:42:bb:83:8e:52:6d:9e:b6:c9:
         b1:83:b9:7e:cd:0b:d4:ef:53:70:54:1c:4c:3c:17:5d:ad:64:
         6f:9b:91:0e:ed:ad:dc:0d:b0:1e:a8:a5:d9:c1:45:e1:a3:7b:
         07:fb:49:4d:0d:1e:09:bc:2b:53:d9:6a:ff:89:aa:3a:30:b4:
         27:27:71:f0:a7:9b:93:0a:22:62:a8:90:7e:76:fc:bc:52:eb:
         06:34:d9:ed:56:21:74:80:e4:c7:a0:a5:bb:f4:7d:db:c3:3a:
         93:fa:1d:bd
-----BEGIN CERTIFICATE-----
MIIEJjCCAw6gAwIBAgIEEAAApzANBgkqhkiG9w0BAQUFADBEMQswCQYDVQQGEwJE
RTEPMA0GA1UECAwGSGVzc2VuMRQwEgYDVQQKDAtwcml2YWN5aWRlYTEOMAwGA1UE
AwwFQ0EwMDEwHhcNMTUwNzAxMTQwNjAzWhcNMTYwNjMwMTQwNjAzWjBUMQswCQYD
VQQGEwJERTEPMA0GA1UECAwGSGVzc2VuMRQwEgYDVQQKDAtwcml2YWN5aWRlYTEe
MBwGA1UEAwwVcmVxdWVzdGVyLmxvY2FsZG9tYWluMIIBIjANBgkqhkiG9w0BAQEF
AAOCAQ8AMIIBCgKCAQEAzb4UT/rOAT9CIhsdnK/dktJ/22y3PjlDQ2sTA/EF9Ad0
vHZpKAuvGY7X/OPNxljyyn8IbVP8BwJEJMa0NEyMBP4zDkDiILoCc1r39U9jbszG
tt9UHTc5fVE2Jl+93D+oi2uirrad1iHn30G4eigqaEjKqC3t4elGXlpybbSEOIeR
/ZQRCyiExsIvKvsB+TZ6CXXRM4g8c0FbyL+UiXCh8MC5LlBTHrEXZGn0LYHgqQ0O
Mum6VYqF8RtvSXm0f4jDDT5UiJs9HziMBPPuamMr9cbbtIOqxHhBOn1L4cg+ccob
YVnqxsTKMl7J6b8SKebGw2P+oFXaevFgmE0m7fpwLQIDAQABo4IBDjCCAQowCwYD
VR0PBAQDAgWgMAkGA1UdEwQCMAAwEQYJYIZIAYb4QgEBBAQDAgZAMDMGCWCGSAGG
+EIBDQQmFiRPcGVuU1NMIEdlbmVyYXRlZCBTZXJ2ZXIgQ2VydGlmaWNhdGUwHQYD
VR0OBBYEFFM/7V0JB7Nle6tFySRbCXeACpbtMHQGA1UdIwRtMGuAFPSnwMyRRq9k
85HyJ/jIsm+KhzJzoUikRjBEMQswCQYDVQQGEwJERTEPMA0GA1UECAwGSGVzc2Vu
MRQwEgYDVQQKDAtwcml2YWN5aWRlYTEOMAwGA1UEAwwFQ0EwMDGCCQD7yOusg80S
BzATBgNVHSUEDDAKBggrBgEFBQcDATANBgkqhkiG9w0BAQUFAAOCAQEAc9kF1rQX
2t651flhZcSjja+0syL/oRUW/2tYOcz/4rrRTqIxrX6KRnyNAibhBLrOeQWRt4lz
ECNwNsqGNVaJ/lOy2WhE6kG7rY+6LJpPjAMpICqtHfr45DaVcCwm2P+IyGUgHxVJ
SSj0GybxhZ7YAxWPbtCekdzRYork0Lm8CnXZSVJmAHe7zRfbFaydKxGid/cmy4ME
BRcxQruDjlJtnrbJsYO5fs0L1O9TcFQcTDwXXa1kb5uRDu2t3A2wHqil2cFF4aN7
B/tJTQ0eCbwrU9lq/4mqOjC0Jydx8KebkwoiYqiQfnb8vFLrBjTZ7VYhdIDkx6Cl
u/R928M6k/odvQ==
-----END CERTIFICATE-----
