Certificate:
    Data:
        Version: 3 (0x2)
        Serial Number: 268435630 (0x100000ae)
    Signature Algorithm: sha1WithRSAEncryption
        Issuer: C=DE, ST=Hessen, O=privacyidea, CN=CA001
        Validity
            Not Before: Jul  1 14:12:18 2015 GMT
            Not After : Jun 30 14:12:18 2016 GMT
        Subject: CN=selfservice,CN=user,O=realm1/emailAddress=meine
        Subject Public Key Info:
            Public Key Algorithm: rsaEncryption
                Public-Key: (2048 bit)
                Modulus:
                    00:cf:3c:d4:33:0e:12:c4:e6:da:cd:b6:56:a1:1c:
                    26:bb:26:1c:8a:4a:73:a8:58:8a:b6:1e:b3:8b:99:
                    d2:1d:07:c2:92:89:79:c0:69:d8:c8:df:28:61:98:
                    1e:b3:fe:ae:2b:bd:78:a9:f7:6e:47:dc:a3:a0:16:
                    8c:85:02:c1:4e:92:fd:72:6e:f0:c8:03:29:9b:b8:
                    00:6e:c0:83:95:c8:34:20:36:9c:b3:e5:e4:e6:76:
                    73:a3:1a:ad:40:96:e0:53:54:00:ec:76:79:9a:c6:
                    0d:7e:b6:bd:29:ec:83:f3:cb:89:a4:cb:6c:00:ba:
                    0c:c5:78:0f:ff:69:b8:94:f4:04:70:43:3f:d8:9e:
                    d7:a7:fb:5d:ce:75:8e:da:e7:c4:07:b1:9d:de:6f:
                    88:4b:b6:4d:9a:cf:f9:bc:fa:9f:cd:32:6d:f6:3a:
                    0b:0d:23:42:78:ec:97:42:bf:0e:4d:60:56:e1:d3:
                    02:f2:19:cb:84:57:90:e5:70:a1:a2:83:35:86:e2:
                    da:86:9f:f9:8a:c4:79:b3:52:28:da:cb:bb:34:ca:
                    d3:da:91:4a:cf:8d:76:a2:b2:6b:9b:f9:96:fd:09:
                    2a:da:11:23:4d:f0:cb:d6:b2:b1:0e:12:6c:9a:19:
                    65:98:87:ca:e4:ee:24:ce:44:ac:90:8f:9d:1b:c5:
                    2a:9d
                Exponent: 65537 (0x10001)
        X509v3 extensions:
            X509v3 Key Usage: 
                Digital Signature, Key Encipherment
            X509v3 Basic Constraints: 
                CA:FALSE
            Netscape Cert Type: 
                SSL Server
            Netscape Comment: 
                OpenSSL Generated Server Certificate
            X509v3 Subject Key Identifier: 
                4D:07:90:AD:FF:1D:0D:E7:1A:DD:D6:2E:FA:BA:34:CB:AA:1F:24:C6
            X509v3 Authority Key Identifier: 
                keyid:F4:A7:C0:CC:91:46:AF:64:F3:91:F2:27:F8:C8:B2:6F:8A:87:32:73
                DirName:/C=DE/ST=Hessen/O=privacyidea/CN=CA001
                serial:FB:C8:EB:AC:83:CD:12:07

            X509v3 Extended Key Usage: 
                TLS Web Server Authentication
    Signature Algorithm: sha1WithRSAEncryption
         99:7f:30:f9:a9:be:37:78:d0:c4:c3:1d:f3:cc:04:37:92:f5:
         e4:a6:06:ec:3b:b4:84:07:ba:e7:45:7c:6a:86:3e:16:b9:34:
         f2:58:c3:fa:c7:7b:29:92:a1:c7:b4:72:60:5a:fc:98:30:3f:
         41:a9:7a:c7:18:a5:07:a1:11:4e:07:9a:f8:8e:3b:a1:bd:42:
         1c:ca:d8:ab:7f:e5:55:ea:e0:4a:be:e3:b8:2c:50:83:74:8a:
         05:c7:be:d4:c2:da:c1:5c:61:36:3b:35:e0:d2:00:57:ea:51:
         0a:16:bb:1a:e1:81:47:2a:5a:16:72:2b:38:62:05:fc:81:4c:
         ad:9e:35:99:f6:52:04:38:6e:ad:e0:e6:20:dc:63:c2:bb:a7:
         e9:86:72:68:c7:1a:10:6d:d7:c9:c1:d6:0e:11:c2:f7:2d:74:
         cd:c8:3c:e4:80:e9:16:e2:12:c6:25:72:e3:b1:d6:b1:58:0f:
         03:9a:e2:dd:80:bc:3b:5f:60:15:f5:d9:4c:e2:7e:c5:e5:d1:
         4e:63:b6:fe:98:1e:be:ab:13:b3:e9:6d:40:fc:6d:5c:a6:e6:
         ea:ec:c4:26:12:15:d7:36:a6:b5:fd:c7:a3:33:03:ed:54:85:
         5b:96:c4:bd:69:f2:7e:6f:b5:d6:70:25:e7:66:2c:19:17:8a:
         8c:cd:a3:54
-----BEGIN CERTIFICATE-----
MIIEDzCCAvegAwIBAgIEEAAArjANBgkqhkiG9w0BAQUFADBEMQswCQYDVQQGEwJE
RTEPMA0GA1UECAwGSGVzc2VuMRQwEgYDVQQKDAtwcml2YWN5aWRlYTEOMAwGA1UE
AwwFQ0EwMDEwHhcNMTUwNzAxMTQxMjE4WhcNMTYwNjMwMTQxMjE4WjA9MSUwIwYD
VQQDExxzZWxmc2VydmljZSxDTj11c2VyLE89cmVhbG0xMRQwEgYJKoZIhvcNAQkB
FgVtZWluZTCCASIwDQYJKoZIhvcNAQEBBQADggEPADCCAQoCggEBAM881DMOEsTm
2s22VqEcJrsmHIpKc6hYirYes4uZ0h0HwpKJecBp2MjfKGGYHrP+riu9eKn3bkfc
o6AWjIUCwU6S/XJu8MgDKZu4AG7Ag5XINCA2nLPl5OZ2c6MarUCW4FNUAOx2eZrG
DX62vSnsg/PLiaTLbAC6DMV4D/9puJT0BHBDP9ie16f7Xc51jtrnxAexnd5viEu2
TZrP+bz6n80ybfY6Cw0jQnjsl0K/Dk1gVuHTAvIZy4RXkOVwoaKDNYbi2oaf+YrE
ebNSKNrLuzTK09qRSs+NdqKya5v5lv0JKtoRI03wy9aysQ4SbJoZZZiHyuTuJM5E
rJCPnRvFKp0CAwEAAaOCAQ4wggEKMAsGA1UdDwQEAwIFoDAJBgNVHRMEAjAAMBEG
CWCGSAGG+EIBAQQEAwIGQDAzBglghkgBhvhCAQ0EJhYkT3BlblNTTCBHZW5lcmF0
ZWQgU2VydmVyIENlcnRpZmljYXRlMB0GA1UdDgQWBBRNB5Ct/x0N5xrd1i76ujTL
qh8kxjB0BgNVHSMEbTBrgBT0p8DMkUavZPOR8if4yLJviocyc6FIpEYwRDELMAkG
A1UEBhMCREUxDzANBgNVBAgMBkhlc3NlbjEUMBIGA1UECgwLcHJpdmFjeWlkZWEx
DjAMBgNVBAMMBUNBMDAxggkA+8jrrIPNEgcwEwYDVR0lBAwwCgYIKwYBBQUHAwEw
DQYJKoZIhvcNAQEFBQADggEBAJl/MPmpvjd40MTDHfPMBDeS9eSmBuw7tIQHuudF
fGqGPha5NPJYw/rHeymSoce0cmBa/JgwP0GpescYpQehEU4HmviOO6G9QhzK2Kt/
5VXq4Eq+47gsUIN0igXHvtTC2sFcYTY7NeDSAFfqUQoWuxrhgUcqWhZyKzhiBfyB
TK2eNZn2UgQ4bq3g5iDcY8K7p+mGcmjHGhBt18nB1g4RwvctdM3IPOSA6RbiEsYl
cuOx1rFYDwOa4t2AvDtfYBX12UzifsXl0U5jtv6YHr6rE7PpbUD8bVym5ursxCYS
Fdc2prX9x6MzA+1UhVuWxL1p8n5vtdZwJedmLBkXiozNo1Q=
-----END CERTIFICATE-----
