Certificate:
    Data:
        Version: 3 (0x2)
        Serial Number: 268435632 (0x100000b0)
    Signature Algorithm: sha1WithRSAEncryption
        Issuer: C=DE, ST=Hessen, O=privacyidea, CN=CA001
        Validity
            Not Before: Jun 18 14:14:46 2015 GMT
            Not After : Jun 17 14:14:46 2016 GMT
        Subject: CN=admin,CN=admin,O=/emailAddress=meine
        Subject Public Key Info:
            Public Key Algorithm: rsaEncryption
                Public-Key: (2048 bit)
                Modulus:
                    00:c9:e5:92:9d:b1:fc:98:45:2a:50:3a:25:ef:33:
                    c5:35:b2:da:3f:9b:a6:12:0c:d6:c9:c0:99:e3:99:
                    4d:fc:a9:fb:7f:98:b6:6d:3d:21:04:88:db:38:8d:
                    1f:3a:4e:e2:14:a3:8a:49:f3:76:89:6f:6b:c7:5f:
                    87:2a:05:34:fb:6c:9b:1b:10:2a:d2:fa:5b:7f:66:
                    d9:36:a0:1b:da:91:c1:16:b8:48:92:f3:5e:75:4c:
                    8d:36:e6:d5:02:68:07:a3:7f:f6:a7:f4:b1:8c:3a:
                    c4:b3:4d:55:6b:51:18:17:f4:ba:4d:54:24:1c:83:
                    9b:2d:95:ec:8a:37:cd:d7:ff:73:3e:df:ce:dd:ed:
                    7c:71:3e:8d:38:ce:4b:94:79:ae:b4:a2:30:24:e0:
                    dd:c3:e5:f2:d0:73:3e:90:c8:98:d9:41:b3:5f:35:
                    cb:ed:d1:da:4d:8c:f2:c7:1a:34:1c:e0:a7:e5:27:
                    a2:08:62:1e:d0:a2:f6:ac:d0:61:b3:80:6c:29:9f:
                    a3:37:7e:68:ab:5e:3c:7f:df:17:c6:79:b8:2e:76:
                    e4:8f:60:37:04:46:a3:eb:b1:cd:4c:66:ca:62:fe:
                    0d:ca:01:ba:b5:aa:b2:da:d6:04:f4:00:b8:d8:7b:
                    11:cc:15:d2:7c:89:01:4c:8e:16:d9:96:1a:8e:1b:
                    49:87
                Exponent: 65537 (0x10001)
        X509v3 extensions:
            X509v3 Key Usage: 
                Digital Signature, Key Encipherment
            X509v3 Basic Constraints: 
                CA:FALSE
            Netscape Cert Type: 
                SSL Server
            Netscape Comment: 
                OpenSSL Generated Server Certificate
            X509v3 Subject Key Identifier: 
                53:C4:41:C6:7E:42:FD:90:72:CC:59:BA:F9:9C:CD:42:62:07:C3:BF
            X509v3 Authority Key Identifier: 
                keyid:F4:A7:C0:CC:91:46:AF:64:F3:91:F2:27:F8:C8:B2:6F:8A:87:32:73
                DirName:/C=DE/ST=Hessen/O=privacyidea/CN=CA001
                serial:FB:C8:EB:AC:83:CD:12:07

            X509v3 Extended Key Usage: 
                TLS Web Server Authentication
    Signature Algorithm: sha1WithRSAEncryption
         6e:4c:7a:54:49:ae:22:68:ee:7f:c1:b3:a6:de:a9:e0:dc:b4:
         81:01:24:3c:8d:ef:96:24:be:6d:f8:f0:db:8f:fb:e4:1c:30:
         b4:d6:7c:f7:8d:a0:f4:f8:01:3b:39:fd:2e:64:1d:c0:25:1d:
         95:f8:d7:a5:c1:45:5d:9a:98:b7:de:61:ba:eb:8d:2d:d1:cb:
         6e:7d:c0:10:58:1e:66:2c:48:cc:8a:ae:c4:d0:f4:81:2e:c2:
         8b:74:05:a4:71:6a:b8:dd:10:eb:b0:26:20:3c:45:24:8e:27:
         f8:ad:c4:3e:92:37:fe:8a:86:ef:96:eb:26:dd:25:3f:90:fa:
         9f:a5:c9:d9:2c:78:a1:8b:40:9e:07:bf:8b:5e:1b:46:c7:92:
         72:83:c2:de:cd:ed:07:5f:c2:c2:9f:8c:24:fc:94:fc:4e:d4:
         48:6b:f4:cf:42:d1:d2:ab:26:aa:eb:98:4c:15:86:76:8f:b3:
         0b:30:60:80:c2:d0:fe:e9:18:f6:e3:09:a7:00:da:93:06:78:
         a3:e0:16:61:2f:84:d7:d2:70:b9:39:30:38:e8:bd:98:77:21:
         57:69:81:93:2a:18:cd:2e:1e:af:74:34:99:9e:66:59:b5:7f:
         8c:cc:c4:11:0e:4e:68:3d:f7:61:93:8e:73:60:5d:79:d0:bf:
         38:ca:25:8f
-----BEGIN CERTIFICATE-----
MIIEBDCCAuygAwIBAgIEEAAAsDANBgkqhkiG9w0BAQUFADBEMQswCQYDVQQGEwJE
RTEPMA0GA1UECAwGSGVzc2VuMRQwEgYDVQQKDAtwcml2YWN5aWRlYTEOMAwGA1UE
AwwFQ0EwMDEwHhcNMTUwNjE4MTQxNDQ2WhcNMTYwNjE3MTQxNDQ2WjAyMRowGAYD
VQQDExFhZG1pbixDTj1hZG1pbixPPTEUMBIGCSqGSIb3DQEJARYFbWVpbmUwggEi
MA0GCSqGSIb3DQEBAQUAA4IBDwAwggEKAoIBAQDJ5ZKdsfyYRSpQOiXvM8U1sto/
m6YSDNbJwJnjmU38qft/mLZtPSEEiNs4jR86TuIUo4pJ83aJb2vHX4cqBTT7bJsb
ECrS+lt/Ztk2oBvakcEWuEiS8151TI025tUCaAejf/an9LGMOsSzTVVrURgX9LpN
VCQcg5stleyKN83X/3M+387d7XxxPo04zkuUea60ojAk4N3D5fLQcz6QyJjZQbNf
Ncvt0dpNjPLHGjQc4KflJ6IIYh7Qovas0GGzgGwpn6M3fmirXjx/3xfGebguduSP
YDcERqPrsc1MZspi/g3KAbq1qrLa1gT0ALjYexHMFdJ8iQFMjhbZlhqOG0mHAgMB
AAGjggEOMIIBCjALBgNVHQ8EBAMCBaAwCQYDVR0TBAIwADARBglghkgBhvhCAQEE
BAMCBkAwMwYJYIZIAYb4QgENBCYWJE9wZW5TU0wgR2VuZXJhdGVkIFNlcnZlciBD
ZXJ0aWZpY2F0ZTAdBgNVHQ4EFgQUU8RBxn5C/ZByzFm6+ZzNQmIHw78wdAYDVR0j
BG0wa4AU9KfAzJFGr2TzkfIn+Miyb4qHMnOhSKRGMEQxCzAJBgNVBAYTAkRFMQ8w
DQYDVQQIDAZIZXNzZW4xFDASBgNVBAoMC3ByaXZhY3lpZGVhMQ4wDAYDVQQDDAVD
QTAwMYIJAPvI66yDzRIHMBMGA1UdJQQMMAoGCCsGAQUFBwMBMA0GCSqGSIb3DQEB
BQUAA4IBAQBuTHpUSa4iaO5/wbOm3qng3LSBASQ8je+WJL5t+PDbj/vkHDC01nz3
jaD0+AE7Of0uZB3AJR2V+NelwUVdmpi33mG6640t0ctufcAQWB5mLEjMiq7E0PSB
LsKLdAWkcWq43RDrsCYgPEUkjif4rcQ+kjf+iobvlusm3SU/kPqfpcnZLHihi0Ce
B7+LXhtGx5Jyg8Leze0HX8LCn4wk/JT8TtRIa/TPQtHSqyaq65hMFYZ2j7MLMGCA
wtD+6Rj24wmnANqTBnij4BZhL4TX0nC5OTA46L2YdyFXaYGTKhjNLh6vdDSZnmZZ
tX+MzMQRDk5oPfdhk45zYF150L84yiWP
-----END CERTIFICATE-----
