Certificate:
    Data:
        Version: 3 (0x2)
        Serial Number: 268435626 (0x100000aa)
    Signature Algorithm: sha1WithRSAEncryption
        Issuer: C=DE, ST=Hessen, O=privacyidea, CN=CA001
        Validity
            Not Before: Jul  1 14:10:41 2015 GMT
            Not After : Jun 30 14:10:41 2016 GMT
        Subject: C=DE, ST=Hessen, O=privacyidea, CN=requester.localdomain
        Subject Public Key Info:
            Public Key Algorithm: rsaEncryption
                Public-Key: (2048 bit)
                Modulus:
                    00:cd:be:14:4f:fa:ce:01:3f:42:22:1b:1d:9c:af:
                    dd:92:d2:7f:db:6c:b7:3e:39:43:43:6b:13:03:f1:
                    05:f4:07:74:bc:76:69:28:0b:af:19:8e:d7:fc:e3:
                    cd:c6:58:f2:ca:7f:08:6d:53:fc:07:02:44:24:c6:
                    b4:34:4c:8c:04:fe:33:0e:40:e2:20:ba:02:73:5a:
                    f7:f5:4f:63:6e:cc:c6:b6:df:54:1d:37:39:7d:51:
                    36:26:5f:bd:dc:3f:a8:8b:6b:a2:ae:b6:9d:d6:21:
                    e7:df:41:b8:7a:28:2a:68:48:ca:a8:2d:ed:e1:e9:
                    46:5e:5a:72:6d:b4:84:38:87:91:fd:94:11:0b:28:
                    84:c6:c2:2f:2a:fb:01:f9:36:7a:09:75:d1:33:88:
                    3c:73:41:5b:c8:bf:94:89:70:a1:f0:c0:b9:2e:50:
                    53:1e:b1:17:64:69:f4:2d:81:e0:a9:0d:0e:32:e9:
                    ba:55:8a:85:f1:1b:6f:49:79:b4:7f:88:c3:0d:3e:
                    54:88:9b:3d:1f:38:8c:04:f3:ee:6a:63:2b:f5:c6:
                    db:b4:83:aa:c4:78:41:3a:7d:4b:e1:c8:3e:71:ca:
                    1b:61:59:ea:c6:c4:ca:32:5e:c9:e9:bf:12:29:e6:
                    c6:c3:63:fe:a0:55:da:7a:f1:60:98:4d:26:ed:fa:
                    70:2d
                Exponent: 65537 (0x10001)
        X509v3 extensions:
            X509v3 Key Usage: 
                Digital Signature, Key Encipherment
            X509v3 Basic Constraints: 
                CA:FALSE
            Netscape Cert Type: 
                SSL Server
            Netscape Comment: 
                OpenSSL Generated Server Certificate
            X509v3 Subject Key Identifier: 
                53:3F:ED:5D:09:07:B3:65:7B:AB:45:C9:24:5B:09:77:80:0A:96:ED
            X509v3 Authority Key Identifier: 
                keyid:F4:A7:C0:CC:91:46:AF:64:F3:91:F2:27:F8:C8:B2:6F:8A:87:32:73
                DirName:/C=DE/ST=Hessen/O=privacyidea/CN=CA001
                serial:FB:C8:EB:AC:83:CD:12:07

            X509v3 Extended Key Usage: 
                TLS Web Server Authentication
    Signature Algorithm: sha1WithRSAEncryption
         4e:c4:d1:a9:a3:43:35:b3:d4:1d:9c:2e:59:b1:0d:ab:22:61:
         a9:05:0a:8a:17:d3:e7:11:70:c5:f9:36:0f:b4:55:35:4b:b6:
         96:a9:09:4f:a5:e6:6d:94:41:68:59:bb:4e:57:e6:1c:94:df:
         55:06:4f:8f:51:29:93:17:cd:46:83:de:dd:fe:7b:65:da:f7:
         ec:ef:5a:45:9d:1b:ff:44:f9:44:78:d1:18:04:73:70:2b:d5:
         8f:a2:51:a1:37:e7:ed:01:ae:8b:14:c6:00:10:b4:23:c9:a6:
         64:2c:0a:7e:5d:c9:84:24:ec:2c:29:ca:fb:29:ce:4d:6c:4b:
         e6:3a:b5:a5:82:e2:3d:0e:b5:88:57:b6:06:2f:ce:fc:e7:7f:
         d0:96:3e:0b:63:81:d2:c2:e9:34:81:9d:8c:d7:c9:19:6c:40:
         4a:dc:4b:a5:b9:11:2c:6e:43:48:f5:f2:96:a4:05:74:01:ef:
         e0:14:91:82:1d:ec:14:09:38:46:d0:9d:05:6b:27:ce:84:3f:
         78:d9:60:ac:19:cd:ab:58:e9:2f:70:da:dc:37:84:34:e0:32:
         2b:08:3c:31:3a:71:6e:f9:dc:19:58:7f:83:cb:48:9f:39:f4:
         58:e6:71:9f:9a:67:68:6b:2c:7a:78:35:a1:fc:f2:a8:94:b3:
         45:33:d5:3b
-----BEGIN CERTIFICATE-----
MIIEJjCCAw6gAwIBAgIEEAAAqjANBgkqhkiG9w0BAQUFADBEMQswCQYDVQQGEwJE
RTEPMA0GA1UECAwGSGVzc2VuMRQwEgYDVQQKDAtwcml2YWN5aWRlYTEOMAwGA1UE
AwwFQ0EwMDEwHhcNMTUwNzAxMTQxMDQxWhcNMTYwNjMwMTQxMDQxWjBUMQswCQYD
VQQGEwJERTEPMA0GA1UECAwGSGVzc2VuMRQwEgYDVQQKDAtwcml2YWN5aWRlYTEe
MBwGA1UEAwwVcmVxdWVzdGVyLmxvY2FsZG9tYWluMIIBIjANBgkqhkiG9w0BAQEF
AAOCAQ8AMIIBCgKCAQEAzb4UT/rOAT9CIhsdnK/dktJ/22y3PjlDQ2sTA/EF9Ad0
vHZpKAuvGY7X/OPNxljyyn8IbVP8BwJEJMa0NEyMBP4zDkDiILoCc1r39U9jbszG
tt9UHTc5fVE2Jl+93D+oi2uirrad1iHn30G4eigqaEjKqC3t4elGXlpybbSEOIeR
/ZQRCyiExsIvKvsB+TZ6CXXRM4g8c0FbyL+UiXCh8MC5LlBTHrEXZGn0LYHgqQ0O
Mum6VYqF8RtvSXm0f4jDDT5UiJs9HziMBPPuamMr9cbbtIOqxHhBOn1L4cg+ccob
YVnqxsTKMl7J6b8SKebGw2P+oFXaevFgmE0m7fpwLQIDAQABo4IBDjCCAQowCwYD
VR0PBAQDAgWgMAkGA1UdEwQCMAAwEQYJYIZIAYb4QgEBBAQDAgZAMDMGCWCGSAGG
+EIBDQQmFiRPcGVuU1NMIEdlbmVyYXRlZCBTZXJ2ZXIgQ2VydGlmaWNhdGUwHQYD
VR0OBBYEFFM/7V0JB7Nle6tFySRbCXeACpbtMHQGA1UdIwRtMGuAFPSnwMyRRq9k
85HyJ/jIsm+KhzJzoUikRjBEMQswCQYDVQQGEwJERTEPMA0GA1UECAwGSGVzc2Vu
MRQwEgYDVQQKDAtwcml2YWN5aWRlYTEOMAwGA1UEAwwFQ0EwMDGCCQD7yOusg80S
BzATBgNVHSUEDDAKBggrBgEFBQcDATANBgkqhkiG9w0BAQUFAAOCAQEATsTRqaND
NbPUHZwuWbENqyJhqQUKihfT5xFwxfk2D7RVNUu2lqkJT6XmbZRBaFm7TlfmHJTf
VQZPj1EpkxfNRoPe3f57Zdr37O9aRZ0b/0T5RHjRGARzcCvVj6JRoTfn7QGuixTG
ABC0I8mmZCwKfl3JhCTsLCnK+ynOTWxL5jq1pYLiPQ61iFe2Bi/O/Od/0JY+C2OB
0sLpNIGdjNfJGWxAStxLpbkRLG5DSPXylqQFdAHv4BSRgh3sFAk4RtCdBWsnzoQ/
eNlgrBnNq1jpL3Da3DeENOAyKwg8MTpxbvncGVh/g8tInzn0WOZxn5pnaGsseng1
ofzyqJSzRTPVOw==
-----END CERTIFICATE-----
