Certificate:
    Data:
        Version: 3 (0x2)
        Serial Number: 268435619 (0x100000a3)
    Signature Algorithm: sha1WithRSAEncryption
        Issuer: C=DE, ST=Hessen, O=privacyidea, CN=CA001
        Validity
            Not Before: Jul  1 14:04:50 2015 GMT
            Not After : Jun 30 14:04:50 2016 GMT
        Subject: C=DE, ST=Hessen, O=privacyidea, CN=requester.localdomain
        Subject Public Key Info:
            Public Key Algorithm: rsaEncryption
                Public-Key: (2048 bit)
                Modulus:
                    00:cd:be:14:4f:fa:ce:01:3f:42:22:1b:1d:9c:af:
                    dd:92:d2:7f:db:6c:b7:3e:39:43:43:6b:13:03:f1:
                    05:f4:07:74:bc:76:69:28:0b:af:19:8e:d7:fc:e3:
                    cd:c6:58:f2:ca:7f:08:6d:53:fc:07:02:44:24:c6:
                    b4:34:4c:8c:04:fe:33:0e:40:e2:20:ba:02:73:5a:
                    f7:f5:4f:63:6e:cc:c6:b6:df:54:1d:37:39:7d:51:
                    36:26:5f:bd:dc:3f:a8:8b:6b:a2:ae:b6:9d:d6:21:
                    e7:df:41:b8:7a:28:2a:68:48:ca:a8:2d:ed:e1:e9:
                    46:5e:5a:72:6d:b4:84:38:87:91:fd:94:11:0b:28:
                    84:c6:c2:2f:2a:fb:01:f9:36:7a:09:75:d1:33:88:
                    3c:73:41:5b:c8:bf:94:89:70:a1:f0:c0:b9:2e:50:
                    53:1e:b1:17:64:69:f4:2d:81:e0:a9:0d:0e:32:e9:
                    ba:55:8a:85:f1:1b:6f:49:79:b4:7f:88:c3:0d:3e:
                    54:88:9b:3d:1f:38:8c:04:f3:ee:6a:63:2b:f5:c6:
                    db:b4:83:aa:c4:78:41:3a:7d:4b:e1:c8:3e:71:ca:
                    1b:61:59:ea:c6:c4:ca:32:5e:c9:e9:bf:12:29:e6:
                    c6:c3:63:fe:a0:55:da:7a:f1:60:98:4d:26:ed:fa:
                    70:2d
                Exponent: 65537 (0x10001)
        X509v3 extensions:
            X509v3 Key Usage: 
                Digital Signature, Key Encipherment
            X509v3 Basic Constraints: 
                CA:FALSE
            Netscape Cert Type: 
                SSL Server
            Netscape Comment: 
                OpenSSL Generated Server Certificate
            X509v3 Subject Key Identifier: 
                53:3F:ED:5D:09:07:B3:65:7B:AB:45:C9:24:5B:09:77:80:0A:96:ED
            X509v3 Authority Key Identifier: 
                keyid:F4:A7:C0:CC:91:46:AF:64:F3:91:F2:27:F8:C8:B2:6F:8A:87:32:73
                DirName:/C=DE/ST=Hessen/O=privacyidea/CN=CA001
                serial:FB:C8:EB:AC:83:CD:12:07

            X509v3 Extended Key Usage: 
                TLS Web Server Authentication
    Signature Algorithm: sha1WithRSAEncryption
         08:a7:2b:aa:a3:05:34:77:aa:ee:5a:69:81:ad:7e:d5:8e:b2:
         cd:43:00:17:b9:f3:f7:cb:58:0e:56:f7:47:46:3a:47:b0:6f:
         40:e3:6b:59:6e:8a:26:3d:01:c0:91:4d:ea:bf:85:7c:46:99:
         38:6a:72:68:e2:48:ef:1a:8c:d9:dd:93:68:48:cb:0e:9d:04:
         d7:ef:46:9f:9b:ef:03:8b:20:d5:1c:ce:02:25:71:b6:af:e5:
         14:a4:0d:1c:99:ed:a2:0c:da:18:58:67:ae:d5:33:65:e7:f1:
         e7:e5:83:0d:0f:65:0b:f5:58:b4:83:36:d5:ed:ef:7f:ea:00:
         51:51:b0:22:15:56:be:f6:9a:2d:50:14:4e:e7:ba:99:98:0e:
         ef:6a:a8:43:b1:6a:12:7e:c2:f1:e7:18:2e:1a:b7:90:da:99:
         40:54:f5:7f:6c:99:68:e2:9e:6c:a5:86:88:9f:30:66:3e:32:
         0c:18:20:cb:71:13:d6:e7:32:d0:d6:ae:52:5a:82:c7:1d:52:
         01:4c:f7:27:0b:5c:a4:a9:ed:d2:5b:b6:c3:31:cf:65:bd:d8:
         53:79:45:6b:ed:9b:10:f5:20:fe:7d:64:a3:f4:b7:0f:4f:7f:
         0b:f4:05:9c:8b:78:70:27:3b:9a:80:0c:c0:8d:66:0f:7a:2c:
         17:7a:00:b5
-----BEGIN CERTIFICATE-----
MIIEJjCCAw6gAwIBAgIEEAAAozANBgkqhkiG9w0BAQUFADBEMQswCQYDVQQGEwJE
RTEPMA0GA1UECAwGSGVzc2VuMRQwEgYDVQQKDAtwcml2YWN5aWRlYTEOMAwGA1UE
AwwFQ0EwMDEwHhcNMTUwNzAxMTQwNDUwWhcNMTYwNjMwMTQwNDUwWjBUMQswCQYD
VQQGEwJERTEPMA0GA1UECAwGSGVzc2VuMRQwEgYDVQQKDAtwcml2YWN5aWRlYTEe
MBwGA1UEAwwVcmVxdWVzdGVyLmxvY2FsZG9tYWluMIIBIjANBgkqhkiG9w0BAQEF
AAOCAQ8AMIIBCgKCAQEAzb4UT/rOAT9CIhsdnK/dktJ/22y3PjlDQ2sTA/EF9Ad0
vHZpKAuvGY7X/OPNxljyyn8IbVP8BwJEJMa0NEyMBP4zDkDiILoCc1r39U9jbszG
tt9UHTc5fVE2Jl+93D+oi2uirrad1iHn30G4eigqaEjKqC3t4elGXlpybbSEOIeR
/ZQRCyiExsIvKvsB+TZ6CXXRM4g8c0FbyL+UiXCh8MC5LlBTHrEXZGn0LYHgqQ0O
Mum6VYqF8RtvSXm0f4jDDT5UiJs9HziMBPPuamMr9cbbtIOqxHhBOn1L4cg+ccob
YVnqxsTKMl7J6b8SKebGw2P+oFXaevFgmE0m7fpwLQIDAQABo4IBDjCCAQowCwYD
VR0PBAQDAgWgMAkGA1UdEwQCMAAwEQYJYIZIAYb4QgEBBAQDAgZAMDMGCWCGSAGG
+EIBDQQmFiRPcGVuU1NMIEdlbmVyYXRlZCBTZXJ2ZXIgQ2VydGlmaWNhdGUwHQYD
VR0OBBYEFFM/7V0JB7Nle6tFySRbCXeACpbtMHQGA1UdIwRtMGuAFPSnwMyRRq9k
85HyJ/jIsm+KhzJzoUikRjBEMQswCQYDVQQGEwJERTEPMA0GA1UECAwGSGVzc2Vu
MRQwEgYDVQQKDAtwcml2YWN5aWRlYTEOMAwGA1UEAwwFQ0EwMDGCCQD7yOusg80S
BzATBgNVHSUEDDAKBggrBgEFBQcDATANBgkqhkiG9w0BAQUFAAOCAQEACKcrqqMF
NHeq7lppga1+1Y6yzUMAF7nz98tYDlb3R0Y6R7BvQONrWW6KJj0BwJFN6r+FfEaZ
OGpyaOJI7xqM2d2TaEjLDp0E1+9Gn5vvA4sg1RzOAiVxtq/lFKQNHJntogzaGFhn
rtUzZefx5+WDDQ9lC/VYtIM21e3vf+oAUVGwIhVWvvaaLVAUTue6mZgO72qoQ7Fq
En7C8ecYLhq3kNqZQFT1f2yZaOKebKWGiJ8wZj4yDBggy3ET1ucy0NauUlqCxx1S
AUz3JwtcpKnt0lu2wzHPZb3YU3lFa+2bEPUg/n1ko/S3D09/C/QFnIt4cCc7moAM
wI1mD3osF3oAtQ==
-----END CERTIFICATE-----
