Certificate:
    Data:
        Version: 3 (0x2)
        Serial Number: 268435635 (0x100000b3)
    Signature Algorithm: sha1WithRSAEncryption
        Issuer: C=DE, ST=Hessen, O=privacyidea, CN=CA001
        Validity
            Not Before: Jun 18 14:21:08 2015 GMT
            Not After : Jun 17 14:21:08 2016 GMT
        Subject: CN=admin,CN=admin,O=/emailAddress=meine
        Subject Public Key Info:
            Public Key Algorithm: rsaEncryption
                Public-Key: (2048 bit)
                Modulus:
                    00:99:90:48:ce:29:92:23:d3:8f:3e:2e:fc:76:1c:
                    8c:7c:a2:44:bd:f7:aa:d0:89:db:51:56:84:62:7f:
                    db:83:51:4b:fa:8f:b9:60:26:24:b8:0a:f8:fe:d7:
                    16:17:09:3c:a3:e7:2d:09:39:e8:22:28:8f:82:57:
                    e3:a8:bd:bb:d0:98:57:0c:83:a2:6a:0a:e9:aa:08:
                    e7:86:29:9c:56:41:6a:90:99:4a:51:8d:3b:2a:43:
                    31:e7:be:d8:ed:da:1f:f8:ea:6d:81:a1:84:f3:52:
                    de:b9:e7:7f:74:cf:04:81:6a:5f:fc:6d:c2:f7:6c:
                    01:22:cc:e5:c9:29:18:79:ee:f1:51:b8:81:c0:86:
                    17:eb:d3:33:63:1f:14:6c:ad:ed:e5:2f:69:38:d2:
                    23:c1:09:d5:40:01:c6:ce:67:df:4b:1d:aa:1a:a7:
                    68:80:f2:4f:99:a7:10:4e:24:cc:a0:57:06:86:19:
                    c6:c6:ee:23:23:a6:86:78:52:f7:7b:2c:2d:1b:c6:
                    e6:ae:2f:64:c6:6f:32:39:21:d8:6a:72:85:72:da:
                    21:a8:89:13:6d:9c:87:42:da:c8:c2:82:4b:35:73:
                    48:a4:31:5e:da:b6:21:65:36:52:de:73:9e:d6:8c:
                    7f:af:2e:72:12:96:52:81:ee:44:49:4f:a9:72:b9:
                    09:7b
                Exponent: 65537 (0x10001)
        X509v3 extensions:
            X509v3 Key Usage: 
                Digital Signature, Key Encipherment
            X509v3 Basic Constraints: 
                CA:FALSE
            Netscape Cert Type: 
                SSL Server
            Netscape Comment: 
                OpenSSL Generated Server Certificate
            X509v3 Subject Key Identifier: 
                29:6C:5F:79:0D:9F:D0:12:3B:E1:9E:C7:84:21:2E:EE:CE:65:DA:F9
            X509v3 Authority Key Identifier: 
                keyid:F4:A7:C0:CC:91:46:AF:64:F3:91:F2:27:F8:C8:B2:6F:8A:87:32:73
                DirName:/C=DE/ST=Hessen/O=privacyidea/CN=CA001
                serial:FB:C8:EB:AC:83:CD:12:07

            X509v3 Extended Key Usage: 
                TLS Web Server Authentication
    Signature Algorithm: sha1WithRSAEncryption
         26:40:95:23:2c:82:d3:19:c0:72:03:47:1d:a2:18:d1:4d:70:
         9d:e3:fd:bb:16:56:de:ac:51:76:9e:cd:9a:56:f8:dd:1f:9c:
         dc:1d:78:6e:e5:d5:a6:3d:84:28:7f:6f:63:d4:60:ed:c5:39:
         4d:57:6e:81:bd:4c:00:91:9e:4f:5d:cc:b1:56:02:65:f6:7d:
         14:ba:84:03:ee:ee:68:65:51:f9:51:8f:f1:db:a8:55:54:e1:
         d7:df:b9:2c:4e:bb:bf:63:07:3f:e8:ce:d6:a4:ac:2f:8c:47:
         7c:a9:a0:91:68:ed:23:f8:dd:73:86:45:b7:8c:9a:03:98:40:
         0c:c7:8c:db:4d:60:a0:b5:97:d4:c6:c2:fe:6b:8d:10:60:e1:
         a4:e3:71:6e:5b:58:13:24:e5:fd:9f:89:35:1f:30:5a:ab:75:
         0d:0b:36:96:d4:10:7b:ea:9f:ed:2e:51:03:5b:c0:f4:12:9c:
         a8:f4:3d:1b:ee:cf:d4:04:54:ef:dc:9f:96:6d:a3:f6:3d:34:
         8c:c3:e8:1f:cc:f3:98:ec:0d:3b:84:f9:39:d7:a1:e9:08:7b:
         76:31:8e:89:e2:6b:eb:2a:76:c9:5b:b5:65:15:09:16:5f:6a:
         10:69:26:dd:e1:d2:a0:5b:65:0c:fe:5c:3f:2d:5b:e2:81:00:
         1c:29:e9:c2
-----BEGIN CERTIFICATE-----
MIIEBDCCAuygAwIBAgIEEAAAszANBgkqhkiG9w0BAQUFADBEMQswCQYDVQQGEwJE
RTEPMA0GA1UECAwGSGVzc2VuMRQwEgYDVQQKDAtwcml2YWN5aWRlYTEOMAwGA1UE
AwwFQ0EwMDEwHhcNMTUwNjE4MTQyMTA4WhcNMTYwNjE3MTQyMTA4WjAyMRowGAYD
VQQDExFhZG1pbixDTj1hZG1pbixPPTEUMBIGCSqGSIb3DQEJARYFbWVpbmUwggEi
MA0GCSqGSIb3DQEBAQUAA4IBDwAwggEKAoIBAQCZkEjOKZIj048+Lvx2HIx8okS9
96rQidtRVoRif9uDUUv6j7lgJiS4Cvj+1xYXCTyj5y0JOegiKI+CV+OovbvQmFcM
g6JqCumqCOeGKZxWQWqQmUpRjTsqQzHnvtjt2h/46m2BoYTzUt655390zwSBal/8
bcL3bAEizOXJKRh57vFRuIHAhhfr0zNjHxRsre3lL2k40iPBCdVAAcbOZ99LHaoa
p2iA8k+ZpxBOJMygVwaGGcbG7iMjpoZ4Uvd7LC0bxuauL2TGbzI5IdhqcoVy2iGo
iRNtnIdC2sjCgks1c0ikMV7atiFlNlLec57WjH+vLnISllKB7kRJT6lyuQl7AgMB
AAGjggEOMIIBCjALBgNVHQ8EBAMCBaAwCQYDVR0TBAIwADARBglghkgBhvhCAQEE
BAMCBkAwMwYJYIZIAYb4QgENBCYWJE9wZW5TU0wgR2VuZXJhdGVkIFNlcnZlciBD
ZXJ0aWZpY2F0ZTAdBgNVHQ4EFgQUKWxfeQ2f0BI74Z7HhCEu7s5l2vkwdAYDVR0j
BG0wa4AU9KfAzJFGr2TzkfIn+Miyb4qHMnOhSKRGMEQxCzAJBgNVBAYTAkRFMQ8w
DQYDVQQIDAZIZXNzZW4xFDASBgNVBAoMC3ByaXZhY3lpZGVhMQ4wDAYDVQQDDAVD
QTAwMYIJAPvI66yDzRIHMBMGA1UdJQQMMAoGCCsGAQUFBwMBMA0GCSqGSIb3DQEB
BQUAA4IBAQAmQJUjLILTGcByA0cdohjRTXCd4/27FlberFF2ns2aVvjdH5zcHXhu
5dWmPYQof29j1GDtxTlNV26BvUwAkZ5PXcyxVgJl9n0UuoQD7u5oZVH5UY/x26hV
VOHX37ksTru/Ywc/6M7WpKwvjEd8qaCRaO0j+N1zhkW3jJoDmEAMx4zbTWCgtZfU
xsL+a40QYOGk43FuW1gTJOX9n4k1HzBaq3UNCzaW1BB76p/tLlEDW8D0Epyo9D0b
7s/UBFTv3J+WbaP2PTSMw+gfzPOY7A07hPk516HpCHt2MY6J4mvrKnbJW7VlFQkW
X2oQaSbd4dKgW2UM/lw/LVvigQAcKenC
-----END CERTIFICATE-----
