Certificate:
    Data:
        Version: 3 (0x2)
        Serial Number: 268435609 (0x10000099)
    Signature Algorithm: sha1WithRSAEncryption
        Issuer: C=DE, ST=Hessen, O=privacyidea, CN=CA001
        Validity
            Not Before: Jul 21 06:38:54 2015 GMT
            Not After : Jul 20 06:38:54 2016 GMT
        Subject: C=DE, ST=Hessen, O=privacyidea, CN=usercert
        Subject Public Key Info:
            Public Key Algorithm: rsaEncryption
                Public-Key: (2048 bit)
                Modulus:
                    00:dc:2f:d1:5f:29:97:d4:7c:c3:53:c8:30:bd:4b:
                    67:70:2c:24:6b:b8:5e:eb:21:7a:48:12:56:7c:81:
                    5c:48:75:b6:68:eb:f6:f2:98:4e:50:51:d1:7f:6c:
                    73:f3:0a:a7:ae:be:48:5e:e5:d6:e1:d9:2a:7c:32:
                    6e:4e:fd:08:f6:5a:54:49:23:73:c3:b9:07:18:d1:
                    ef:b3:ac:f8:8a:dc:94:96:a4:90:3a:8e:74:df:e6:
                    0d:37:1b:bd:5b:b7:25:1a:56:39:da:6f:91:aa:5e:
                    1c:74:f3:f9:7c:14:01:83:12:65:76:c7:bb:fe:36:
                    5b:95:e9:72:65:83:ed:3e:98:30:71:fa:87:dd:a3:
                    36:5a:30:03:2e:26:e0:61:d1:bf:02:3f:b6:06:1f:
                    4a:89:28:1c:5c:a2:ff:4e:be:94:e6:8c:e0:da:82:
                    f1:9d:29:32:48:30:73:b4:04:f6:42:1e:be:f7:e2:
                    32:32:27:3c:9d:89:2f:70:3e:85:9a:6f:5c:c5:09:
                    c0:8c:32:2f:72:22:c9:d2:95:1f:b6:ac:72:60:72:
                    b7:82:4d:6b:ce:5b:e3:00:d0:d2:2f:58:c6:e0:10:
                    e5:51:ca:4d:3b:2e:e6:7e:ab:84:d6:56:f1:93:35:
                    a0:93:64:26:81:75:2f:91:b5:16:06:38:0b:db:cc:
                    2d:07
                Exponent: 65537 (0x10001)
        X509v3 extensions:
            X509v3 Key Usage: 
                Digital Signature, Key Encipherment
            X509v3 Basic Constraints: 
                CA:FALSE
            Netscape Cert Type: 
                SSL Server
            Netscape Comment: 
                OpenSSL Generated Server Certificate
            X509v3 Subject Key Identifier: 
                FC:14:D1:F0:4B:8D:00:90:F2:F5:B8:71:9E:4E:97:C3:92:54:AD:0B
            X509v3 Authority Key Identifier: 
                keyid:F4:A7:C0:CC:91:46:AF:64:F3:91:F2:27:F8:C8:B2:6F:8A:87:32:73
                DirName:/C=DE/ST=Hessen/O=privacyidea/CN=CA001
                serial:FB:C8:EB:AC:83:CD:12:07

            X509v3 Extended Key Usage: 
                TLS Web Server Authentication
    Signature Algorithm: sha1WithRSAEncryption
         b0:fc:74:5c:ea:64:45:92:84:7b:df:7d:d5:13:a0:56:58:06:
         26:ba:f0:58:86:73:76:33:5f:e8:34:23:df:77:83:1a:45:0a:
         7b:b2:d1:3f:41:21:9e:fd:e7:b5:d3:e8:c0:89:85:dc:4a:11:
         70:1e:eb:e0:19:32:3f:7e:f9:ba:39:74:a3:01:8a:41:ba:63:
         41:db:c8:b3:94:6d:e2:79:db:c8:1c:61:11:8e:3a:ca:f3:17:
         ca:91:8b:9d:bb:6f:7a:ad:5d:3a:a5:6d:f6:c3:c8:e7:8b:94:
         2b:b7:ee:31:5e:41:22:9f:aa:b1:08:57:30:f9:5f:48:4d:95:
         32:40:56:85:82:6a:84:07:fb:84:4e:d3:a8:b8:85:d2:cc:3b:
         31:a6:58:13:b6:a9:f6:72:76:14:39:15:73:65:1e:a5:a4:90:
         6e:db:36:69:f0:01:ff:b9:6c:70:89:c8:2c:9f:02:4d:fd:89:
         cb:c8:4b:99:97:cc:c7:53:c2:72:79:f7:04:db:98:40:db:74:
         c9:1a:a0:da:cc:2d:cf:a7:29:ee:87:2d:e2:39:8f:d5:7a:ac:
         6d:c0:98:26:d4:00:3a:46:78:f7:13:ad:55:3d:a4:9f:68:cf:
         23:cd:31:d3:87:af:7d:fa:99:76:57:79:90:61:6e:1c:4f:26:
         f9:de:c7:2c
-----BEGIN CERTIFICATE-----
MIIEGTCCAwGgAwIBAgIEEAAAmTANBgkqhkiG9w0BAQUFADBEMQswCQYDVQQGEwJE
RTEPMA0GA1UECAwGSGVzc2VuMRQwEgYDVQQKDAtwcml2YWN5aWRlYTEOMAwGA1UE
AwwFQ0EwMDEwHhcNMTUwNzIxMDYzODU0WhcNMTYwNzIwMDYzODU0WjBHMQswCQYD
VQQGEwJERTEPMA0GA1UECAwGSGVzc2VuMRQwEgYDVQQKDAtwcml2YWN5aWRlYTER
MA8GA1UEAwwIdXNlcmNlcnQwggEiMA0GCSqGSIb3DQEBAQUAA4IBDwAwggEKAoIB
AQDcL9FfKZfUfMNTyDC9S2dwLCRruF7rIXpIElZ8gVxIdbZo6/bymE5QUdF/bHPz
Cqeuvkhe5dbh2Sp8Mm5O/Qj2WlRJI3PDuQcY0e+zrPiK3JSWpJA6jnTf5g03G71b
tyUaVjnab5GqXhx08/l8FAGDEmV2x7v+NluV6XJlg+0+mDBx+ofdozZaMAMuJuBh
0b8CP7YGH0qJKBxcov9OvpTmjODagvGdKTJIMHO0BPZCHr734jIyJzydiS9wPoWa
b1zFCcCMMi9yIsnSlR+2rHJgcreCTWvOW+MA0NIvWMbgEOVRyk07LuZ+q4TWVvGT
NaCTZCaBdS+RtRYGOAvbzC0HAgMBAAGjggEOMIIBCjALBgNVHQ8EBAMCBaAwCQYD
VR0TBAIwADARBglghkgBhvhCAQEEBAMCBkAwMwYJYIZIAYb4QgENBCYWJE9wZW5T
U0wgR2VuZXJhdGVkIFNlcnZlciBDZXJ0aWZpY2F0ZTAdBgNVHQ4EFgQU/BTR8EuN
AJDy9bhxnk6Xw5JUrQswdAYDVR0jBG0wa4AU9KfAzJFGr2TzkfIn+Miyb4qHMnOh
SKRGMEQxCzAJBgNVBAYTAkRFMQ8wDQYDVQQIDAZIZXNzZW4xFDASBgNVBAoMC3By
aXZhY3lpZGVhMQ4wDAYDVQQDDAVDQTAwMYIJAPvI66yDzRIHMBMGA1UdJQQMMAoG
CCsGAQUFBwMBMA0GCSqGSIb3DQEBBQUAA4IBAQCw/HRc6mRFkoR7333VE6BWWAYm
uvBYhnN2M1/oNCPfd4MaRQp7stE/QSGe/ee10+jAiYXcShFwHuvgGTI/fvm6OXSj
AYpBumNB28izlG3iedvIHGERjjrK8xfKkYudu296rV06pW32w8jni5Qrt+4xXkEi
n6qxCFcw+V9ITZUyQFaFgmqEB/uETtOouIXSzDsxplgTtqn2cnYUORVzZR6lpJBu
2zZp8AH/uWxwicgsnwJN/YnLyEuZl8zHU8JyefcE25hA23TJGqDazC3Ppynuhy3i
OY/VeqxtwJgm1AA6Rnj3E61VPaSfaM8jzTHTh699+pl2V3mQYW4cTyb53scs
-----END CERTIFICATE-----
