Certificate:
    Data:
        Version: 3 (0x2)
        Serial Number: 268435617 (0x100000a1)
    Signature Algorithm: sha1WithRSAEncryption
        Issuer: C=DE, ST=Hessen, O=privacyidea, CN=CA001
        Validity
            Not Before: Jul 21 06:45:31 2015 GMT
            Not After : Jul 20 06:45:31 2016 GMT
        Subject: C=DE, ST=Hessen, O=privacyidea, CN=requester.localdomain
        Subject Public Key Info:
            Public Key Algorithm: rsaEncryption
                Public-Key: (2048 bit)
                Modulus:
                    00:cd:be:14:4f:fa:ce:01:3f:42:22:1b:1d:9c:af:
                    dd:92:d2:7f:db:6c:b7:3e:39:43:43:6b:13:03:f1:
                    05:f4:07:74:bc:76:69:28:0b:af:19:8e:d7:fc:e3:
                    cd:c6:58:f2:ca:7f:08:6d:53:fc:07:02:44:24:c6:
                    b4:34:4c:8c:04:fe:33:0e:40:e2:20:ba:02:73:5a:
                    f7:f5:4f:63:6e:cc:c6:b6:df:54:1d:37:39:7d:51:
                    36:26:5f:bd:dc:3f:a8:8b:6b:a2:ae:b6:9d:d6:21:
                    e7:df:41:b8:7a:28:2a:68:48:ca:a8:2d:ed:e1:e9:
                    46:5e:5a:72:6d:b4:84:38:87:91:fd:94:11:0b:28:
                    84:c6:c2:2f:2a:fb:01:f9:36:7a:09:75:d1:33:88:
                    3c:73:41:5b:c8:bf:94:89:70:a1:f0:c0:b9:2e:50:
                    53:1e:b1:17:64:69:f4:2d:81:e0:a9:0d:0e:32:e9:
                    ba:55:8a:85:f1:1b:6f:49:79:b4:7f:88:c3:0d:3e:
                    54:88:9b:3d:1f:38:8c:04:f3:ee:6a:63:2b:f5:c6:
                    db:b4:83:aa:c4:78:41:3a:7d:4b:e1:c8:3e:71:ca:
                    1b:61:59:ea:c6:c4:ca:32:5e:c9:e9:bf:12:29:e6:
                    c6:c3:63:fe:a0:55:da:7a:f1:60:98:4d:26:ed:fa:
                    70:2d
                Exponent: 65537 (0x10001)
        X509v3 extensions:
            X509v3 Key Usage: 
                Digital Signature, Key Encipherment
            X509v3 Basic Constraints: 
                CA:FALSE
            Netscape Cert Type: 
                SSL Server
            Netscape Comment: 
                OpenSSL Generated Server Certificate
            X509v3 Subject Key Identifier: 
                53:3F:ED:5D:09:07:B3:65:7B:AB:45:C9:24:5B:09:77:80:0A:96:ED
            X509v3 Authority Key Identifier: 
                keyid:F4:A7:C0:CC:91:46:AF:64:F3:91:F2:27:F8:C8:B2:6F:8A:87:32:73
                DirName:/C=DE/ST=Hessen/O=privacyidea/CN=CA001
                serial:FB:C8:EB:AC:83:CD:12:07

            X509v3 Extended Key Usage: 
                TLS Web Server Authentication
    Signature Algorithm: sha1WithRSAEncryption
         8f:5d:6b:d9:3f:42:f7:8e:ba:e1:e2:9d:d5:43:63:11:79:7f:
         21:73:3c:09:b9:66:0b:6e:24:0d:ee:40:7b:ef:6b:a4:3f:61:
         4c:4c:03:7d:b6:06:a9:13:a5:b2:c9:67:c6:05:5f:30:c8:a6:
         ce:e2:1e:8c:5c:8a:85:0f:2b:e8:62:cf:d9:75:f8:46:38:83:
         8d:02:8c:c4:01:16:96:e5:99:47:c6:42:97:7d:f3:d7:c1:db:
         c1:7f:88:ee:8c:04:d1:57:a1:88:01:a7:bb:06:24:68:12:8c:
         b5:fe:f1:2e:a1:d3:cb:72:6c:93:87:2d:db:ae:ce:d8:93:2d:
         63:d2:28:22:8c:7d:df:ab:f8:d9:83:7f:70:c5:c8:3c:30:47:
         1e:b1:f7:5e:e4:89:8a:df:9c:10:e8:c4:a7:00:88:c4:32:4a:
         61:e3:a1:2f:b5:f3:70:20:8a:a1:e5:3a:4b:d5:0b:89:55:e2:
         e3:38:a7:cd:de:61:f1:3e:12:dd:fe:84:df:10:f3:8e:98:f7:
         c0:c2:f0:81:21:d6:fb:1b:c0:19:3e:1d:a3:38:6b:c4:44:fd:
         62:36:4b:55:0b:5c:6d:4e:08:62:47:48:34:e7:57:70:75:20:
         e3:fa:41:9f:a5:d5:ea:dd:d0:79:89:f8:db:2d:fb:48:b6:20:
         8f:1b:ac:26
-----BEGIN CERTIFICATE-----
MIIEJjCCAw6gAwIBAgIEEAAAoTANBgkqhkiG9w0BAQUFADBEMQswCQYDVQQGEwJE
RTEPMA0GA1UECAwGSGVzc2VuMRQwEgYDVQQKDAtwcml2YWN5aWRlYTEOMAwGA1UE
AwwFQ0EwMDEwHhcNMTUwNzIxMDY0NTMxWhcNMTYwNzIwMDY0NTMxWjBUMQswCQYD
VQQGEwJERTEPMA0GA1UECAwGSGVzc2VuMRQwEgYDVQQKDAtwcml2YWN5aWRlYTEe
MBwGA1UEAwwVcmVxdWVzdGVyLmxvY2FsZG9tYWluMIIBIjANBgkqhkiG9w0BAQEF
AAOCAQ8AMIIBCgKCAQEAzb4UT/rOAT9CIhsdnK/dktJ/22y3PjlDQ2sTA/EF9Ad0
vHZpKAuvGY7X/OPNxljyyn8IbVP8BwJEJMa0NEyMBP4zDkDiILoCc1r39U9jbszG
tt9UHTc5fVE2Jl+93D+oi2uirrad1iHn30G4eigqaEjKqC3t4elGXlpybbSEOIeR
/ZQRCyiExsIvKvsB+TZ6CXXRM4g8c0FbyL+UiXCh8MC5LlBTHrEXZGn0LYHgqQ0O
Mum6VYqF8RtvSXm0f4jDDT5UiJs9HziMBPPuamMr9cbbtIOqxHhBOn1L4cg+ccob
YVnqxsTKMl7J6b8SKebGw2P+oFXaevFgmE0m7fpwLQIDAQABo4IBDjCCAQowCwYD
VR0PBAQDAgWgMAkGA1UdEwQCMAAwEQYJYIZIAYb4QgEBBAQDAgZAMDMGCWCGSAGG
+EIBDQQmFiRPcGVuU1NMIEdlbmVyYXRlZCBTZXJ2ZXIgQ2VydGlmaWNhdGUwHQYD
VR0OBBYEFFM/7V0JB7Nle6tFySRbCXeACpbtMHQGA1UdIwRtMGuAFPSnwMyRRq9k
85HyJ/jIsm+KhzJzoUikRjBEMQswCQYDVQQGEwJERTEPMA0GA1UECAwGSGVzc2Vu
MRQwEgYDVQQKDAtwcml2YWN5aWRlYTEOMAwGA1UEAwwFQ0EwMDGCCQD7yOusg80S
BzATBgNVHSUEDDAKBggrBgEFBQcDATANBgkqhkiG9w0BAQUFAAOCAQEAj11r2T9C
94664eKd1UNjEXl/IXM8CblmC24kDe5Ae+9rpD9hTEwDfbYGqROlsslnxgVfMMim
zuIejFyKhQ8r6GLP2XX4RjiDjQKMxAEWluWZR8ZCl33z18HbwX+I7owE0VehiAGn
uwYkaBKMtf7xLqHTy3Jsk4ct267O2JMtY9IoIox936v42YN/cMXIPDBHHrH3XuSJ
it+cEOjEpwCIxDJKYeOhL7XzcCCKoeU6S9ULiVXi4zinzd5h8T4S3f6E3xDzjpj3
wMLwgSHW+xvAGT4dozhrxET9YjZLVQtcbU4IYkdINOdXcHUg4/pBn6XV6t3QeYn4
2y37SLYgjxusJg==
-----END CERTIFICATE-----
