Certificate:
    Data:
        Version: 3 (0x2)
        Serial Number: 268435615 (0x1000009f)
    Signature Algorithm: sha1WithRSAEncryption
        Issuer: C=DE, ST=Hessen, O=privacyidea, CN=CA001
        Validity
            Not Before: Jul 21 06:44:47 2015 GMT
            Not After : Jul 20 06:44:47 2016 GMT
        Subject: C=DE, ST=Hessen, O=privacyidea, CN=usercert
        Subject Public Key Info:
            Public Key Algorithm: rsaEncryption
                Public-Key: (2048 bit)
                Modulus:
                    00:dc:2f:d1:5f:29:97:d4:7c:c3:53:c8:30:bd:4b:
                    67:70:2c:24:6b:b8:5e:eb:21:7a:48:12:56:7c:81:
                    5c:48:75:b6:68:eb:f6:f2:98:4e:50:51:d1:7f:6c:
                    73:f3:0a:a7:ae:be:48:5e:e5:d6:e1:d9:2a:7c:32:
                    6e:4e:fd:08:f6:5a:54:49:23:73:c3:b9:07:18:d1:
                    ef:b3:ac:f8:8a:dc:94:96:a4:90:3a:8e:74:df:e6:
                    0d:37:1b:bd:5b:b7:25:1a:56:39:da:6f:91:aa:5e:
                    1c:74:f3:f9:7c:14:01:83:12:65:76:c7:bb:fe:36:
                    5b:95:e9:72:65:83:ed:3e:98:30:71:fa:87:dd:a3:
                    36:5a:30:03:2e:26:e0:61:d1:bf:02:3f:b6:06:1f:
                    4a:89:28:1c:5c:a2:ff:4e:be:94:e6:8c:e0:da:82:
                    f1:9d:29:32:48:30:73:b4:04:f6:42:1e:be:f7:e2:
                    32:32:27:3c:9d:89:2f:70:3e:85:9a:6f:5c:c5:09:
                    c0:8c:32:2f:72:22:c9:d2:95:1f:b6:ac:72:60:72:
                    b7:82:4d:6b:ce:5b:e3:00:d0:d2:2f:58:c6:e0:10:
                    e5:51:ca:4d:3b:2e:e6:7e:ab:84:d6:56:f1:93:35:
                    a0:93:64:26:81:75:2f:91:b5:16:06:38:0b:db:cc:
                    2d:07
                Exponent: 65537 (0x10001)
        X509v3 extensions:
            X509v3 Key Usage: 
                Digital Signature, Key Encipherment
            X509v3 Basic Constraints: 
                CA:FALSE
            Netscape Cert Type: 
                SSL Server
            Netscape Comment: 
                OpenSSL Generated Server Certificate
            X509v3 Subject Key Identifier: 
                FC:14:D1:F0:4B:8D:00:90:F2:F5:B8:71:9E:4E:97:C3:92:54:AD:0B
            X509v3 Authority Key Identifier: 
                keyid:F4:A7:C0:CC:91:46:AF:64:F3:91:F2:27:F8:C8:B2:6F:8A:87:32:73
                DirName:/C=DE/ST=Hessen/O=privacyidea/CN=CA001
                serial:FB:C8:EB:AC:83:CD:12:07

            X509v3 Extended Key Usage: 
                TLS Web Server Authentication
    Signature Algorithm: sha1WithRSAEncryption
         05:8a:a8:60:64:29:11:4b:2b:26:29:42:e2:4f:ef:08:41:86:
         c0:ed:00:e6:d6:aa:b4:49:d0:d5:ab:62:f6:73:bd:6b:21:99:
         f9:29:4c:9a:65:fc:48:b4:f6:45:1e:ef:91:ce:cf:13:e9:da:
         2d:65:52:c4:27:b3:f9:8a:ce:21:82:e6:5b:b1:3c:5e:2e:d4:
         36:ab:ff:ff:6d:8d:cb:ac:fa:d4:a6:cd:e1:e0:06:cd:31:97:
         ed:0e:82:49:ac:22:a3:48:a0:7a:70:dc:10:69:af:e7:e5:c7:
         9d:e8:b0:9f:cf:1d:eb:16:e3:6d:19:fc:a9:e3:88:f2:8e:5f:
         d0:6d:49:68:5e:df:18:a7:28:d8:b5:0b:f0:ac:4a:34:d9:00:
         fd:61:b3:b8:99:07:a8:c4:23:82:8a:cd:2c:86:dc:a4:cc:35:
         79:22:22:9b:8f:dc:84:da:8c:de:0c:ee:d9:df:e4:48:29:26:
         09:57:43:5e:d6:e3:99:aa:a9:e1:db:60:1c:d6:c9:06:1b:a9:
         fc:08:ed:79:9e:2e:94:1e:1b:45:56:c1:a0:36:9f:be:5d:fc:
         7b:d1:05:31:8d:85:a5:10:b4:67:b7:05:c5:df:4d:14:c7:80:
         aa:5d:74:8e:03:72:a7:e1:54:e3:3e:cc:0f:7f:2d:a4:5a:7f:
         4a:0b:f9:5b
-----BEGIN CERTIFICATE-----
MIIEGTCCAwGgAwIBAgIEEAAAnzANBgkqhkiG9w0BAQUFADBEMQswCQYDVQQGEwJE
RTEPMA0GA1UECAwGSGVzc2VuMRQwEgYDVQQKDAtwcml2YWN5aWRlYTEOMAwGA1UE
AwwFQ0EwMDEwHhcNMTUwNzIxMDY0NDQ3WhcNMTYwNzIwMDY0NDQ3WjBHMQswCQYD
VQQGEwJERTEPMA0GA1UECAwGSGVzc2VuMRQwEgYDVQQKDAtwcml2YWN5aWRlYTER
MA8GA1UEAwwIdXNlcmNlcnQwggEiMA0GCSqGSIb3DQEBAQUAA4IBDwAwggEKAoIB
AQDcL9FfKZfUfMNTyDC9S2dwLCRruF7rIXpIElZ8gVxIdbZo6/bymE5QUdF/bHPz
Cqeuvkhe5dbh2Sp8Mm5O/Qj2WlRJI3PDuQcY0e+zrPiK3JSWpJA6jnTf5g03G71b
tyUaVjnab5GqXhx08/l8FAGDEmV2x7v+NluV6XJlg+0+mDBx+ofdozZaMAMuJuBh
0b8CP7YGH0qJKBxcov9OvpTmjODagvGdKTJIMHO0BPZCHr734jIyJzydiS9wPoWa
b1zFCcCMMi9yIsnSlR+2rHJgcreCTWvOW+MA0NIvWMbgEOVRyk07LuZ+q4TWVvGT
NaCTZCaBdS+RtRYGOAvbzC0HAgMBAAGjggEOMIIBCjALBgNVHQ8EBAMCBaAwCQYD
VR0TBAIwADARBglghkgBhvhCAQEEBAMCBkAwMwYJYIZIAYb4QgENBCYWJE9wZW5T
U0wgR2VuZXJhdGVkIFNlcnZlciBDZXJ0aWZpY2F0ZTAdBgNVHQ4EFgQU/BTR8EuN
AJDy9bhxnk6Xw5JUrQswdAYDVR0jBG0wa4AU9KfAzJFGr2TzkfIn+Miyb4qHMnOh
SKRGMEQxCzAJBgNVBAYTAkRFMQ8wDQYDVQQIDAZIZXNzZW4xFDASBgNVBAoMC3By
aXZhY3lpZGVhMQ4wDAYDVQQDDAVDQTAwMYIJAPvI66yDzRIHMBMGA1UdJQQMMAoG
CCsGAQUFBwMBMA0GCSqGSIb3DQEBBQUAA4IBAQAFiqhgZCkRSysmKULiT+8IQYbA
7QDm1qq0SdDVq2L2c71rIZn5KUyaZfxItPZFHu+Rzs8T6dotZVLEJ7P5is4hguZb
sTxeLtQ2q///bY3LrPrUps3h4AbNMZftDoJJrCKjSKB6cNwQaa/n5ced6LCfzx3r
FuNtGfyp44jyjl/QbUloXt8YpyjYtQvwrEo02QD9YbO4mQeoxCOCis0shtykzDV5
IiKbj9yE2ozeDO7Z3+RIKSYJV0Ne1uOZqqnh22Ac1skGG6n8CO15ni6UHhtFVsGg
Np++Xfx70QUxjYWlELRntwXF300Ux4CqXXSOA3Kn4VTjPswPfy2kWn9KC/lb
-----END CERTIFICATE-----
