Certificate:
    Data:
        Version: 3 (0x2)
        Serial Number: 268435626 (0x100000aa)
    Signature Algorithm: sha1WithRSAEncryption
        Issuer: C=DE, ST=Hessen, O=privacyidea, CN=CA001
        Validity
            Not Before: Sep  7 09:53:02 2015 GMT
            Not After : Sep  6 09:53:02 2016 GMT
        Subject: C=DE, ST=Hessen, O=privacyidea, CN=requester.localdomain
        Subject Public Key Info:
            Public Key Algorithm: rsaEncryption
                Public-Key: (2048 bit)
                Modulus:
                    00:cd:be:14:4f:fa:ce:01:3f:42:22:1b:1d:9c:af:
                    dd:92:d2:7f:db:6c:b7:3e:39:43:43:6b:13:03:f1:
                    05:f4:07:74:bc:76:69:28:0b:af:19:8e:d7:fc:e3:
                    cd:c6:58:f2:ca:7f:08:6d:53:fc:07:02:44:24:c6:
                    b4:34:4c:8c:04:fe:33:0e:40:e2:20:ba:02:73:5a:
                    f7:f5:4f:63:6e:cc:c6:b6:df:54:1d:37:39:7d:51:
                    36:26:5f:bd:dc:3f:a8:8b:6b:a2:ae:b6:9d:d6:21:
                    e7:df:41:b8:7a:28:2a:68:48:ca:a8:2d:ed:e1:e9:
                    46:5e:5a:72:6d:b4:84:38:87:91:fd:94:11:0b:28:
                    84:c6:c2:2f:2a:fb:01:f9:36:7a:09:75:d1:33:88:
                    3c:73:41:5b:c8:bf:94:89:70:a1:f0:c0:b9:2e:50:
                    53:1e:b1:17:64:69:f4:2d:81:e0:a9:0d:0e:32:e9:
                    ba:55:8a:85:f1:1b:6f:49:79:b4:7f:88:c3:0d:3e:
                    54:88:9b:3d:1f:38:8c:04:f3:ee:6a:63:2b:f5:c6:
                    db:b4:83:aa:c4:78:41:3a:7d:4b:e1:c8:3e:71:ca:
                    1b:61:59:ea:c6:c4:ca:32:5e:c9:e9:bf:12:29:e6:
                    c6:c3:63:fe:a0:55:da:7a:f1:60:98:4d:26:ed:fa:
                    70:2d
                Exponent: 65537 (0x10001)
        X509v3 extensions:
            X509v3 Key Usage: 
                Digital Signature, Key Encipherment
            X509v3 Basic Constraints: 
                CA:FALSE
            Netscape Cert Type: 
                SSL Server
            Netscape Comment: 
                OpenSSL Generated Server Certificate
            X509v3 Subject Key Identifier: 
                53:3F:ED:5D:09:07:B3:65:7B:AB:45:C9:24:5B:09:77:80:0A:96:ED
            X509v3 Authority Key Identifier: 
                keyid:F4:A7:C0:CC:91:46:AF:64:F3:91:F2:27:F8:C8:B2:6F:8A:87:32:73
                DirName:/C=DE/ST=Hessen/O=privacyidea/CN=CA001
                serial:FB:C8:EB:AC:83:CD:12:07

            X509v3 Extended Key Usage: 
                TLS Web Server Authentication
    Signature Algorithm: sha1WithRSAEncryption
         2a:51:a2:9f:ed:56:d0:1b:ad:19:0e:18:08:82:66:60:16:fc:
         24:ac:73:f0:b3:a9:e0:de:f9:52:e1:3e:ec:d3:b4:94:df:12:
         63:85:1b:37:b3:a0:19:19:96:a7:a6:57:b3:d5:c8:11:3d:37:
         72:4b:d7:74:44:c2:98:de:71:19:7e:62:c0:d9:de:36:d5:b1:
         ca:58:e6:26:da:87:da:7f:32:94:c1:d0:48:e8:30:8f:8f:1a:
         e1:7d:2b:cb:d8:ef:c6:08:bd:0c:fa:0c:6d:6e:e9:3a:3e:78:
         bb:ad:62:52:b6:72:48:46:a7:07:95:65:3c:fc:5a:71:2e:10:
         90:d7:40:23:1e:db:b5:40:cb:99:b7:32:71:32:11:9a:a3:26:
         7a:f6:0d:30:80:51:db:d2:77:8b:68:3e:29:51:3e:2f:2d:b2:
         3f:21:4c:e4:97:18:1e:59:41:76:c5:f6:67:1a:1a:b2:78:be:
         d3:5c:49:31:3a:1c:07:38:de:a4:67:ce:46:a6:a8:63:e4:e8:
         66:89:22:f4:25:de:2a:6f:2f:b5:49:31:12:e7:23:a5:31:a5:
         cd:ce:73:d4:55:be:f0:7f:5a:64:c3:cb:e2:ca:97:5d:8b:83:
         22:f3:e6:5a:e6:7f:a4:b4:00:b2:18:b5:22:ba:9f:46:03:4e:
         b9:36:ea:81
-----BEGIN CERTIFICATE-----
MIIEJjCCAw6gAwIBAgIEEAAAqjANBgkqhkiG9w0BAQUFADBEMQswCQYDVQQGEwJE
RTEPMA0GA1UECAwGSGVzc2VuMRQwEgYDVQQKDAtwcml2YWN5aWRlYTEOMAwGA1UE
AwwFQ0EwMDEwHhcNMTUwOTA3MDk1MzAyWhcNMTYwOTA2MDk1MzAyWjBUMQswCQYD
VQQGEwJERTEPMA0GA1UECAwGSGVzc2VuMRQwEgYDVQQKDAtwcml2YWN5aWRlYTEe
MBwGA1UEAwwVcmVxdWVzdGVyLmxvY2FsZG9tYWluMIIBIjANBgkqhkiG9w0BAQEF
AAOCAQ8AMIIBCgKCAQEAzb4UT/rOAT9CIhsdnK/dktJ/22y3PjlDQ2sTA/EF9Ad0
vHZpKAuvGY7X/OPNxljyyn8IbVP8BwJEJMa0NEyMBP4zDkDiILoCc1r39U9jbszG
tt9UHTc5fVE2Jl+93D+oi2uirrad1iHn30G4eigqaEjKqC3t4elGXlpybbSEOIeR
/ZQRCyiExsIvKvsB+TZ6CXXRM4g8c0FbyL+UiXCh8MC5LlBTHrEXZGn0LYHgqQ0O
Mum6VYqF8RtvSXm0f4jDDT5UiJs9HziMBPPuamMr9cbbtIOqxHhBOn1L4cg+ccob
YVnqxsTKMl7J6b8SKebGw2P+oFXaevFgmE0m7fpwLQIDAQABo4IBDjCCAQowCwYD
VR0PBAQDAgWgMAkGA1UdEwQCMAAwEQYJYIZIAYb4QgEBBAQDAgZAMDMGCWCGSAGG
+EIBDQQmFiRPcGVuU1NMIEdlbmVyYXRlZCBTZXJ2ZXIgQ2VydGlmaWNhdGUwHQYD
VR0OBBYEFFM/7V0JB7Nle6tFySRbCXeACpbtMHQGA1UdIwRtMGuAFPSnwMyRRq9k
85HyJ/jIsm+KhzJzoUikRjBEMQswCQYDVQQGEwJERTEPMA0GA1UECAwGSGVzc2Vu
MRQwEgYDVQQKDAtwcml2YWN5aWRlYTEOMAwGA1UEAwwFQ0EwMDGCCQD7yOusg80S
BzATBgNVHSUEDDAKBggrBgEFBQcDATANBgkqhkiG9w0BAQUFAAOCAQEAKlGin+1W
0ButGQ4YCIJmYBb8JKxz8LOp4N75UuE+7NO0lN8SY4UbN7OgGRmWp6ZXs9XIET03
ckvXdETCmN5xGX5iwNneNtWxyljmJtqH2n8ylMHQSOgwj48a4X0ry9jvxgi9DPoM
bW7pOj54u61iUrZySEanB5VlPPxacS4QkNdAIx7btUDLmbcycTIRmqMmevYNMIBR
29J3i2g+KVE+Ly2yPyFM5JcYHllBdsX2Zxoasni+01xJMTocBzjepGfORqaoY+To
Zoki9CXeKm8vtUkxEucjpTGlzc5z1FW+8H9aZMPL4sqXXYuDIvPmWuZ/pLQAshi1
IrqfRgNOuTbqgQ==
-----END CERTIFICATE-----
