Certificate:
    Data:
        Version: 3 (0x2)
        Serial Number: 268435614 (0x1000009e)
    Signature Algorithm: sha1WithRSAEncryption
        Issuer: C=DE, ST=Hessen, O=privacyidea, CN=CA001
        Validity
            Not Before: Sep  7 08:43:51 2015 GMT
            Not After : Sep  6 08:43:51 2016 GMT
        Subject: C=DE, ST=Hessen, O=privacyidea, CN=requester.localdomain
        Subject Public Key Info:
            Public Key Algorithm: rsaEncryption
                Public-Key: (2048 bit)
                Modulus:
                    00:cd:be:14:4f:fa:ce:01:3f:42:22:1b:1d:9c:af:
                    dd:92:d2:7f:db:6c:b7:3e:39:43:43:6b:13:03:f1:
                    05:f4:07:74:bc:76:69:28:0b:af:19:8e:d7:fc:e3:
                    cd:c6:58:f2:ca:7f:08:6d:53:fc:07:02:44:24:c6:
                    b4:34:4c:8c:04:fe:33:0e:40:e2:20:ba:02:73:5a:
                    f7:f5:4f:63:6e:cc:c6:b6:df:54:1d:37:39:7d:51:
                    36:26:5f:bd:dc:3f:a8:8b:6b:a2:ae:b6:9d:d6:21:
                    e7:df:41:b8:7a:28:2a:68:48:ca:a8:2d:ed:e1:e9:
                    46:5e:5a:72:6d:b4:84:38:87:91:fd:94:11:0b:28:
                    84:c6:c2:2f:2a:fb:01:f9:36:7a:09:75:d1:33:88:
                    3c:73:41:5b:c8:bf:94:89:70:a1:f0:c0:b9:2e:50:
                    53:1e:b1:17:64:69:f4:2d:81:e0:a9:0d:0e:32:e9:
                    ba:55:8a:85:f1:1b:6f:49:79:b4:7f:88:c3:0d:3e:
                    54:88:9b:3d:1f:38:8c:04:f3:ee:6a:63:2b:f5:c6:
                    db:b4:83:aa:c4:78:41:3a:7d:4b:e1:c8:3e:71:ca:
                    1b:61:59:ea:c6:c4:ca:32:5e:c9:e9:bf:12:29:e6:
                    c6:c3:63:fe:a0:55:da:7a:f1:60:98:4d:26:ed:fa:
                    70:2d
                Exponent: 65537 (0x10001)
        X509v3 extensions:
            X509v3 Key Usage: 
                Digital Signature, Key Encipherment
            X509v3 Basic Constraints: 
                CA:FALSE
            Netscape Cert Type: 
                SSL Server
            Netscape Comment: 
                OpenSSL Generated Server Certificate
            X509v3 Subject Key Identifier: 
                53:3F:ED:5D:09:07:B3:65:7B:AB:45:C9:24:5B:09:77:80:0A:96:ED
            X509v3 Authority Key Identifier: 
                keyid:F4:A7:C0:CC:91:46:AF:64:F3:91:F2:27:F8:C8:B2:6F:8A:87:32:73
                DirName:/C=DE/ST=Hessen/O=privacyidea/CN=CA001
                serial:FB:C8:EB:AC:83:CD:12:07

            X509v3 Extended Key Usage: 
                TLS Web Server Authentication
    Signature Algorithm: sha1WithRSAEncryption
         16:40:6f:48:d8:7c:0e:77:c6:1f:cb:23:2e:36:50:92:6d:bd:
         76:7d:a5:3d:8b:78:3d:c6:74:e8:c1:96:13:9f:69:cc:17:ac:
         ef:96:11:ab:39:72:e8:68:b4:71:6a:09:2f:80:7d:22:95:9d:
         cc:cc:b8:71:b3:f4:db:44:3c:85:5b:f9:75:dc:91:27:81:12:
         0f:7b:12:4a:af:7e:1d:69:9a:bf:ff:b3:01:df:6e:ea:86:24:
         83:57:ad:3e:3c:32:95:5f:90:0c:46:64:a9:01:88:bd:9f:8b:
         45:2a:0a:87:a4:ed:6c:1b:ec:aa:78:28:06:0b:d7:1d:6d:97:
         fe:9d:8f:c4:51:88:2f:0e:ef:3b:37:28:4f:43:85:36:ef:cc:
         2e:a2:dd:20:15:07:bf:37:e7:d9:be:da:e3:3d:01:fb:19:d3:
         76:06:2b:09:3e:89:e4:09:7d:dd:0d:e8:05:71:19:2c:16:99:
         9a:65:ce:da:33:42:b7:f0:fa:13:97:1a:a7:39:04:a3:4b:d8:
         37:65:03:da:64:a9:cd:c2:f3:63:ae:87:e8:a7:5c:74:62:8e:
         57:de:c7:63:50:8e:3f:f0:31:88:cf:61:63:90:c5:7a:53:e9:
         81:b9:38:c4:35:2e:01:83:5f:bc:2a:bf:6e:78:1d:94:8f:a6:
         e2:ae:5e:8d
-----BEGIN CERTIFICATE-----
MIIEJjCCAw6gAwIBAgIEEAAAnjANBgkqhkiG9w0BAQUFADBEMQswCQYDVQQGEwJE
RTEPMA0GA1UECAwGSGVzc2VuMRQwEgYDVQQKDAtwcml2YWN5aWRlYTEOMAwGA1UE
AwwFQ0EwMDEwHhcNMTUwOTA3MDg0MzUxWhcNMTYwOTA2MDg0MzUxWjBUMQswCQYD
VQQGEwJERTEPMA0GA1UECAwGSGVzc2VuMRQwEgYDVQQKDAtwcml2YWN5aWRlYTEe
MBwGA1UEAwwVcmVxdWVzdGVyLmxvY2FsZG9tYWluMIIBIjANBgkqhkiG9w0BAQEF
AAOCAQ8AMIIBCgKCAQEAzb4UT/rOAT9CIhsdnK/dktJ/22y3PjlDQ2sTA/EF9Ad0
vHZpKAuvGY7X/OPNxljyyn8IbVP8BwJEJMa0NEyMBP4zDkDiILoCc1r39U9jbszG
tt9UHTc5fVE2Jl+93D+oi2uirrad1iHn30G4eigqaEjKqC3t4elGXlpybbSEOIeR
/ZQRCyiExsIvKvsB+TZ6CXXRM4g8c0FbyL+UiXCh8MC5LlBTHrEXZGn0LYHgqQ0O
Mum6VYqF8RtvSXm0f4jDDT5UiJs9HziMBPPuamMr9cbbtIOqxHhBOn1L4cg+ccob
YVnqxsTKMl7J6b8SKebGw2P+oFXaevFgmE0m7fpwLQIDAQABo4IBDjCCAQowCwYD
VR0PBAQDAgWgMAkGA1UdEwQCMAAwEQYJYIZIAYb4QgEBBAQDAgZAMDMGCWCGSAGG
+EIBDQQmFiRPcGVuU1NMIEdlbmVyYXRlZCBTZXJ2ZXIgQ2VydGlmaWNhdGUwHQYD
VR0OBBYEFFM/7V0JB7Nle6tFySRbCXeACpbtMHQGA1UdIwRtMGuAFPSnwMyRRq9k
85HyJ/jIsm+KhzJzoUikRjBEMQswCQYDVQQGEwJERTEPMA0GA1UECAwGSGVzc2Vu
MRQwEgYDVQQKDAtwcml2YWN5aWRlYTEOMAwGA1UEAwwFQ0EwMDGCCQD7yOusg80S
BzATBgNVHSUEDDAKBggrBgEFBQcDATANBgkqhkiG9w0BAQUFAAOCAQEAFkBvSNh8
DnfGH8sjLjZQkm29dn2lPYt4PcZ06MGWE59pzBes75YRqzly6Gi0cWoJL4B9IpWd
zMy4cbP020Q8hVv5ddyRJ4ESD3sSSq9+HWmav/+zAd9u6oYkg1etPjwylV+QDEZk
qQGIvZ+LRSoKh6TtbBvsqngoBgvXHW2X/p2PxFGILw7vOzcoT0OFNu/MLqLdIBUH
vzfn2b7a4z0B+xnTdgYrCT6J5Al93Q3oBXEZLBaZmmXO2jNCt/D6E5capzkEo0vY
N2UD2mSpzcLzY66H6KdcdGKOV97HY1COP/AxiM9hY5DFelPpgbk4xDUuAYNfvCq/
bngdlI+m4q5ejQ==
-----END CERTIFICATE-----
