Certificate:
    Data:
        Version: 3 (0x2)
        Serial Number: 268435638 (0x100000b6)
    Signature Algorithm: sha1WithRSAEncryption
        Issuer: C=DE, ST=Hessen, O=privacyidea, CN=CA001
        Validity
            Not Before: Jun 18 14:24:40 2015 GMT
            Not After : Jun 17 14:24:40 2016 GMT
        Subject: CN=admin,CN=admin,O=/emailAddress=meine
        Subject Public Key Info:
            Public Key Algorithm: rsaEncryption
                Public-Key: (2048 bit)
                Modulus:
                    00:b3:63:af:c3:b3:bc:af:5d:85:12:ae:26:f2:4f:
                    91:8c:5a:76:6b:74:19:73:16:8f:a1:5b:41:14:52:
                    8a:08:38:02:f4:e4:0c:7a:8b:ef:c3:84:2d:b1:71:
                    cf:cc:3f:6a:8b:59:19:64:43:15:27:25:66:d7:bf:
                    5e:da:3b:2f:a0:34:39:fa:28:60:2f:83:44:12:d5:
                    2d:25:57:79:20:75:31:9e:88:8c:85:cf:15:63:f2:
                    08:41:58:db:b0:20:49:23:ee:b5:53:45:7f:c8:fb:
                    f7:40:47:89:93:20:04:57:18:3a:c6:2c:59:1f:eb:
                    59:fd:d5:84:0d:3a:0a:86:a0:fa:3e:45:b4:ec:d1:
                    e7:b2:36:08:6b:8e:4c:73:36:8f:ad:ce:12:c7:e1:
                    00:3d:e2:fd:36:79:4b:0a:bf:80:8f:83:7d:8e:a8:
                    43:a4:90:42:0b:7a:42:83:c3:5f:c4:20:af:71:b9:
                    30:73:cc:6f:12:57:45:79:22:a9:0d:3c:1f:0d:32:
                    a0:d5:02:0f:8d:5d:20:0f:51:79:e4:bf:d9:ea:09:
                    31:63:d5:67:11:dc:e4:68:81:a3:e6:1c:41:72:d7:
                    7e:f0:7a:fe:65:86:5a:6d:37:c1:7a:90:da:10:37:
                    68:af:e8:1f:56:81:77:11:b3:7b:82:a0:5f:af:8b:
                    24:59
                Exponent: 65537 (0x10001)
        X509v3 extensions:
            X509v3 Key Usage: 
                Digital Signature, Key Encipherment
            X509v3 Basic Constraints: 
                CA:FALSE
            Netscape Cert Type: 
                SSL Server
            Netscape Comment: 
                OpenSSL Generated Server Certificate
            X509v3 Subject Key Identifier: 
                BE:0D:E3:1D:F7:06:10:FB:E5:B0:2E:93:E6:7B:2C:67:D0:99:A8:82
            X509v3 Authority Key Identifier: 
                keyid:F4:A7:C0:CC:91:46:AF:64:F3:91:F2:27:F8:C8:B2:6F:8A:87:32:73
                DirName:/C=DE/ST=Hessen/O=privacyidea/CN=CA001
                serial:FB:C8:EB:AC:83:CD:12:07

            X509v3 Extended Key Usage: 
                TLS Web Server Authentication
    Signature Algorithm: sha1WithRSAEncryption
         54:7e:70:f4:b7:d3:f0:e5:b1:14:52:3c:c1:73:d9:94:15:66:
         e4:e8:7e:e2:47:89:99:39:7c:b5:6e:15:c7:2a:fb:e4:56:a6:
         ac:7b:a9:b6:25:63:95:c9:e0:a7:29:f7:10:02:36:8d:c6:3e:
         26:e7:37:8d:7c:31:85:a4:aa:1a:ac:7d:c4:33:df:d4:42:17:
         ab:f4:7a:f5:a2:c3:1e:db:de:65:9b:31:f2:77:2b:e5:5d:fe:
         5e:b9:77:2e:7a:e1:0d:9d:97:28:ad:eb:6a:d9:79:d7:0f:2c:
         f1:0b:7d:c9:1f:78:90:1a:76:c8:2e:b6:9a:ce:12:0b:11:eb:
         64:ba:4f:50:f1:3b:a5:b2:87:0b:51:05:68:c3:f8:ef:68:60:
         42:75:df:e8:e7:b1:e2:68:d3:6c:82:7b:e1:a8:f1:a4:04:88:
         b0:dd:80:62:10:a7:c2:7f:6d:ee:18:ef:42:f4:b8:bb:bb:c6:
         6e:d1:37:69:e4:25:e6:29:7c:59:c5:95:be:03:88:cf:15:f7:
         48:06:47:37:79:1b:1d:74:ce:e9:1d:aa:93:c1:7a:3d:10:5d:
         94:3a:82:b5:4f:c6:dc:14:c6:39:93:b6:ed:35:ca:a9:80:1b:
         75:71:f1:b7:c9:b5:41:b9:38:e7:ef:69:e6:ac:7b:0d:a3:d8:
         2d:38:40:7a
-----BEGIN CERTIFICATE-----
MIIEBDCCAuygAwIBAgIEEAAAtjANBgkqhkiG9w0BAQUFADBEMQswCQYDVQQGEwJE
RTEPMA0GA1UECAwGSGVzc2VuMRQwEgYDVQQKDAtwcml2YWN5aWRlYTEOMAwGA1UE
AwwFQ0EwMDEwHhcNMTUwNjE4MTQyNDQwWhcNMTYwNjE3MTQyNDQwWjAyMRowGAYD
VQQDExFhZG1pbixDTj1hZG1pbixPPTEUMBIGCSqGSIb3DQEJARYFbWVpbmUwggEi
MA0GCSqGSIb3DQEBAQUAA4IBDwAwggEKAoIBAQCzY6/Ds7yvXYUSribyT5GMWnZr
dBlzFo+hW0EUUooIOAL05Ax6i+/DhC2xcc/MP2qLWRlkQxUnJWbXv17aOy+gNDn6
KGAvg0QS1S0lV3kgdTGeiIyFzxVj8ghBWNuwIEkj7rVTRX/I+/dAR4mTIARXGDrG
LFkf61n91YQNOgqGoPo+RbTs0eeyNghrjkxzNo+tzhLH4QA94v02eUsKv4CPg32O
qEOkkEILekKDw1/EIK9xuTBzzG8SV0V5IqkNPB8NMqDVAg+NXSAPUXnkv9nqCTFj
1WcR3ORogaPmHEFy137wev5lhlptN8F6kNoQN2iv6B9WgXcRs3uCoF+viyRZAgMB
AAGjggEOMIIBCjALBgNVHQ8EBAMCBaAwCQYDVR0TBAIwADARBglghkgBhvhCAQEE
BAMCBkAwMwYJYIZIAYb4QgENBCYWJE9wZW5TU0wgR2VuZXJhdGVkIFNlcnZlciBD
ZXJ0aWZpY2F0ZTAdBgNVHQ4EFgQUvg3jHfcGEPvlsC6T5nssZ9CZqIIwdAYDVR0j
BG0wa4AU9KfAzJFGr2TzkfIn+Miyb4qHMnOhSKRGMEQxCzAJBgNVBAYTAkRFMQ8w
DQYDVQQIDAZIZXNzZW4xFDASBgNVBAoMC3ByaXZhY3lpZGVhMQ4wDAYDVQQDDAVD
QTAwMYIJAPvI66yDzRIHMBMGA1UdJQQMMAoGCCsGAQUFBwMBMA0GCSqGSIb3DQEB
BQUAA4IBAQBUfnD0t9Pw5bEUUjzBc9mUFWbk6H7iR4mZOXy1bhXHKvvkVqase6m2
JWOVyeCnKfcQAjaNxj4m5zeNfDGFpKoarH3EM9/UQher9Hr1osMe295lmzHydyvl
Xf5euXcueuENnZcoretq2XnXDyzxC33JH3iQGnbILraazhILEetkuk9Q8TulsocL
UQVow/jvaGBCdd/o57HiaNNsgnvhqPGkBIiw3YBiEKfCf23uGO9C9Li7u8Zu0Tdp
5CXmKXxZxZW+A4jPFfdIBkc3eRsddM7pHaqTwXo9EF2UOoK1T8bcFMY5k7btNcqp
gBt1cfG3ybVBuTjn72nmrHsNo9gtOEB6
-----END CERTIFICATE-----
