Certificate:
    Data:
        Version: 3 (0x2)
        Serial Number: 268435618 (0x100000a2)
    Signature Algorithm: sha1WithRSAEncryption
        Issuer: C=DE, ST=Hessen, O=privacyidea, CN=CA001
        Validity
            Not Before: Sep  7 08:45:32 2015 GMT
            Not After : Sep  6 08:45:32 2016 GMT
        Subject: CN=selfservice,CN=user,O=realm1/emailAddress=meine
        Subject Public Key Info:
            Public Key Algorithm: rsaEncryption
                Public-Key: (2048 bit)
                Modulus:
                    00:cf:3c:d4:33:0e:12:c4:e6:da:cd:b6:56:a1:1c:
                    26:bb:26:1c:8a:4a:73:a8:58:8a:b6:1e:b3:8b:99:
                    d2:1d:07:c2:92:89:79:c0:69:d8:c8:df:28:61:98:
                    1e:b3:fe:ae:2b:bd:78:a9:f7:6e:47:dc:a3:a0:16:
                    8c:85:02:c1:4e:92:fd:72:6e:f0:c8:03:29:9b:b8:
                    00:6e:c0:83:95:c8:34:20:36:9c:b3:e5:e4:e6:76:
                    73:a3:1a:ad:40:96:e0:53:54:00:ec:76:79:9a:c6:
                    0d:7e:b6:bd:29:ec:83:f3:cb:89:a4:cb:6c:00:ba:
                    0c:c5:78:0f:ff:69:b8:94:f4:04:70:43:3f:d8:9e:
                    d7:a7:fb:5d:ce:75:8e:da:e7:c4:07:b1:9d:de:6f:
                    88:4b:b6:4d:9a:cf:f9:bc:fa:9f:cd:32:6d:f6:3a:
                    0b:0d:23:42:78:ec:97:42:bf:0e:4d:60:56:e1:d3:
                    02:f2:19:cb:84:57:90:e5:70:a1:a2:83:35:86:e2:
                    da:86:9f:f9:8a:c4:79:b3:52:28:da:cb:bb:34:ca:
                    d3:da:91:4a:cf:8d:76:a2:b2:6b:9b:f9:96:fd:09:
                    2a:da:11:23:4d:f0:cb:d6:b2:b1:0e:12:6c:9a:19:
                    65:98:87:ca:e4:ee:24:ce:44:ac:90:8f:9d:1b:c5:
                    2a:9d
                Exponent: 65537 (0x10001)
        X509v3 extensions:
            X509v3 Key Usage: 
                Digital Signature, Key Encipherment
            X509v3 Basic Constraints: 
                CA:FALSE
            Netscape Cert Type: 
                SSL Server
            Netscape Comment: 
                OpenSSL Generated Server Certificate
            X509v3 Subject Key Identifier: 
                4D:07:90:AD:FF:1D:0D:E7:1A:DD:D6:2E:FA:BA:34:CB:AA:1F:24:C6
            X509v3 Authority Key Identifier: 
                keyid:F4:A7:C0:CC:91:46:AF:64:F3:91:F2:27:F8:C8:B2:6F:8A:87:32:73
                DirName:/C=DE/ST=Hessen/O=privacyidea/CN=CA001
                serial:FB:C8:EB:AC:83:CD:12:07

            X509v3 Extended Key Usage: 
                TLS Web Server Authentication
    Signature Algorithm: sha1WithRSAEncryption
         53:28:45:15:7f:ab:bf:95:76:dd:9f:c7:a2:8e:63:14:be:8b:
         bc:a5:62:2a:29:0a:10:e5:66:8d:cc:57:75:ec:39:0c:39:f9:
         28:8d:73:41:d9:90:11:af:dd:01:a0:27:b3:63:a0:e4:7c:b9:
         03:2f:e1:ff:78:97:87:5f:86:95:dc:42:88:dd:1c:88:0f:5f:
         0a:b2:b7:5c:b1:65:61:08:20:d6:2d:c1:d3:6e:f0:02:55:8b:
         0c:f0:ee:ee:1b:3a:dc:78:0f:a7:68:c0:5f:3b:a6:52:35:db:
         c9:fa:18:14:56:40:f9:20:0d:27:0c:f1:06:1b:4a:22:3f:05:
         e4:a6:6c:02:2f:33:77:42:8d:d7:42:c1:19:2d:bf:37:7d:ec:
         a2:c6:cd:b1:24:83:7f:49:b4:78:c0:34:5e:6e:a3:1a:09:f3:
         c4:69:84:dd:a5:77:ba:2d:6d:d4:5e:5a:28:d3:8a:ba:82:80:
         16:46:d8:42:bf:f0:09:83:23:4f:6a:24:c7:fa:70:59:ce:66:
         ca:0b:f1:d1:16:8c:f9:2a:25:56:5a:8c:dd:94:82:a8:2d:1f:
         9d:14:e2:25:dd:0b:33:37:ca:c9:5e:2c:ad:22:0b:53:5a:a7:
         3d:c6:67:2a:9e:ca:7a:c9:71:a9:7f:48:ae:68:79:ae:43:7b:
         91:b2:a4:d9
-----BEGIN CERTIFICATE-----
MIIEDzCCAvegAwIBAgIEEAAAojANBgkqhkiG9w0BAQUFADBEMQswCQYDVQQGEwJE
RTEPMA0GA1UECAwGSGVzc2VuMRQwEgYDVQQKDAtwcml2YWN5aWRlYTEOMAwGA1UE
AwwFQ0EwMDEwHhcNMTUwOTA3MDg0NTMyWhcNMTYwOTA2MDg0NTMyWjA9MSUwIwYD
VQQDExxzZWxmc2VydmljZSxDTj11c2VyLE89cmVhbG0xMRQwEgYJKoZIhvcNAQkB
FgVtZWluZTCCASIwDQYJKoZIhvcNAQEBBQADggEPADCCAQoCggEBAM881DMOEsTm
2s22VqEcJrsmHIpKc6hYirYes4uZ0h0HwpKJecBp2MjfKGGYHrP+riu9eKn3bkfc
o6AWjIUCwU6S/XJu8MgDKZu4AG7Ag5XINCA2nLPl5OZ2c6MarUCW4FNUAOx2eZrG
DX62vSnsg/PLiaTLbAC6DMV4D/9puJT0BHBDP9ie16f7Xc51jtrnxAexnd5viEu2
TZrP+bz6n80ybfY6Cw0jQnjsl0K/Dk1gVuHTAvIZy4RXkOVwoaKDNYbi2oaf+YrE
ebNSKNrLuzTK09qRSs+NdqKya5v5lv0JKtoRI03wy9aysQ4SbJoZZZiHyuTuJM5E
rJCPnRvFKp0CAwEAAaOCAQ4wggEKMAsGA1UdDwQEAwIFoDAJBgNVHRMEAjAAMBEG
CWCGSAGG+EIBAQQEAwIGQDAzBglghkgBhvhCAQ0EJhYkT3BlblNTTCBHZW5lcmF0
ZWQgU2VydmVyIENlcnRpZmljYXRlMB0GA1UdDgQWBBRNB5Ct/x0N5xrd1i76ujTL
qh8kxjB0BgNVHSMEbTBrgBT0p8DMkUavZPOR8if4yLJviocyc6FIpEYwRDELMAkG
A1UEBhMCREUxDzANBgNVBAgMBkhlc3NlbjEUMBIGA1UECgwLcHJpdmFjeWlkZWEx
DjAMBgNVBAMMBUNBMDAxggkA+8jrrIPNEgcwEwYDVR0lBAwwCgYIKwYBBQUHAwEw
DQYJKoZIhvcNAQEFBQADggEBAFMoRRV/q7+Vdt2fx6KOYxS+i7ylYiopChDlZo3M
V3XsOQw5+SiNc0HZkBGv3QGgJ7NjoOR8uQMv4f94l4dfhpXcQojdHIgPXwqyt1yx
ZWEIINYtwdNu8AJViwzw7u4bOtx4D6dowF87plI128n6GBRWQPkgDScM8QYbSiI/
BeSmbAIvM3dCjddCwRktvzd97KLGzbEkg39JtHjANF5uoxoJ88RphN2ld7otbdRe
WijTirqCgBZG2EK/8AmDI09qJMf6cFnOZsoL8dEWjPkqJVZajN2UgqgtH50U4iXd
CzM3ysleLK0iC1Napz3GZyqeynrJcal/SK5oea5De5GypNk=
-----END CERTIFICATE-----
