Certificate:
    Data:
        Version: 3 (0x2)
        Serial Number: 268435623 (0x100000a7)
    Signature Algorithm: sha1WithRSAEncryption
        Issuer: C=DE, ST=Hessen, O=privacyidea, CN=CA001
        Validity
            Not Before: Sep  7 09:08:13 2015 GMT
            Not After : Sep  6 09:08:13 2016 GMT
        Subject: C=DE, ST=Hessen, O=privacyidea, CN=requester.localdomain
        Subject Public Key Info:
            Public Key Algorithm: rsaEncryption
                Public-Key: (2048 bit)
                Modulus:
                    00:cd:be:14:4f:fa:ce:01:3f:42:22:1b:1d:9c:af:
                    dd:92:d2:7f:db:6c:b7:3e:39:43:43:6b:13:03:f1:
                    05:f4:07:74:bc:76:69:28:0b:af:19:8e:d7:fc:e3:
                    cd:c6:58:f2:ca:7f:08:6d:53:fc:07:02:44:24:c6:
                    b4:34:4c:8c:04:fe:33:0e:40:e2:20:ba:02:73:5a:
                    f7:f5:4f:63:6e:cc:c6:b6:df:54:1d:37:39:7d:51:
                    36:26:5f:bd:dc:3f:a8:8b:6b:a2:ae:b6:9d:d6:21:
                    e7:df:41:b8:7a:28:2a:68:48:ca:a8:2d:ed:e1:e9:
                    46:5e:5a:72:6d:b4:84:38:87:91:fd:94:11:0b:28:
                    84:c6:c2:2f:2a:fb:01:f9:36:7a:09:75:d1:33:88:
                    3c:73:41:5b:c8:bf:94:89:70:a1:f0:c0:b9:2e:50:
                    53:1e:b1:17:64:69:f4:2d:81:e0:a9:0d:0e:32:e9:
                    ba:55:8a:85:f1:1b:6f:49:79:b4:7f:88:c3:0d:3e:
                    54:88:9b:3d:1f:38:8c:04:f3:ee:6a:63:2b:f5:c6:
                    db:b4:83:aa:c4:78:41:3a:7d:4b:e1:c8:3e:71:ca:
                    1b:61:59:ea:c6:c4:ca:32:5e:c9:e9:bf:12:29:e6:
                    c6:c3:63:fe:a0:55:da:7a:f1:60:98:4d:26:ed:fa:
                    70:2d
                Exponent: 65537 (0x10001)
        X509v3 extensions:
            X509v3 Key Usage: 
                Digital Signature, Key Encipherment
            X509v3 Basic Constraints: 
                CA:FALSE
            Netscape Cert Type: 
                SSL Server
            Netscape Comment: 
                OpenSSL Generated Server Certificate
            X509v3 Subject Key Identifier: 
                53:3F:ED:5D:09:07:B3:65:7B:AB:45:C9:24:5B:09:77:80:0A:96:ED
            X509v3 Authority Key Identifier: 
                keyid:F4:A7:C0:CC:91:46:AF:64:F3:91:F2:27:F8:C8:B2:6F:8A:87:32:73
                DirName:/C=DE/ST=Hessen/O=privacyidea/CN=CA001
                serial:FB:C8:EB:AC:83:CD:12:07

            X509v3 Extended Key Usage: 
                TLS Web Server Authentication
    Signature Algorithm: sha1WithRSAEncryption
         7b:4c:f9:e9:85:80:65:63:13:fa:cb:78:f0:81:71:2f:09:39:
         36:59:89:27:53:e7:e4:0a:a0:75:b8:50:dc:a4:44:63:a8:3b:
         93:b6:0e:4a:2b:27:f9:3f:b1:94:ef:24:cd:a6:d2:ac:52:e7:
         48:e4:e3:b9:68:01:e9:7c:3d:38:77:53:5d:84:16:c1:7b:46:
         75:48:ae:10:e4:60:58:9f:e2:f4:5d:09:a7:60:80:8e:2b:9b:
         01:99:00:c0:27:dc:1f:28:0e:f3:e5:39:70:42:e8:ae:a9:bc:
         7e:d1:84:fd:5d:bf:38:bc:f3:f6:c5:3b:dc:f7:ac:21:e9:cb:
         65:42:d4:70:7d:03:8a:3e:8b:7b:8b:3e:7a:90:b9:c3:63:b3:
         70:55:45:c0:fb:28:ba:27:14:91:85:bf:46:73:c4:1e:74:b8:
         43:78:0e:0e:e9:cf:49:c7:00:06:25:2b:4f:37:46:9c:7b:3d:
         52:a7:3d:d3:6c:d6:d4:ad:41:25:95:c0:33:3b:94:08:f5:c0:
         37:0d:62:9c:58:9d:1d:8c:93:22:47:f2:29:58:9f:77:9a:d4:
         ed:fb:f2:27:b6:fc:60:38:1d:b6:36:7b:08:15:b7:6d:f7:85:
         64:d2:88:55:c8:88:d5:d9:ca:e9:17:76:7f:98:b8:67:ed:7d:
         70:da:2d:68
-----BEGIN CERTIFICATE-----
MIIEJjCCAw6gAwIBAgIEEAAApzANBgkqhkiG9w0BAQUFADBEMQswCQYDVQQGEwJE
RTEPMA0GA1UECAwGSGVzc2VuMRQwEgYDVQQKDAtwcml2YWN5aWRlYTEOMAwGA1UE
AwwFQ0EwMDEwHhcNMTUwOTA3MDkwODEzWhcNMTYwOTA2MDkwODEzWjBUMQswCQYD
VQQGEwJERTEPMA0GA1UECAwGSGVzc2VuMRQwEgYDVQQKDAtwcml2YWN5aWRlYTEe
MBwGA1UEAwwVcmVxdWVzdGVyLmxvY2FsZG9tYWluMIIBIjANBgkqhkiG9w0BAQEF
AAOCAQ8AMIIBCgKCAQEAzb4UT/rOAT9CIhsdnK/dktJ/22y3PjlDQ2sTA/EF9Ad0
vHZpKAuvGY7X/OPNxljyyn8IbVP8BwJEJMa0NEyMBP4zDkDiILoCc1r39U9jbszG
tt9UHTc5fVE2Jl+93D+oi2uirrad1iHn30G4eigqaEjKqC3t4elGXlpybbSEOIeR
/ZQRCyiExsIvKvsB+TZ6CXXRM4g8c0FbyL+UiXCh8MC5LlBTHrEXZGn0LYHgqQ0O
Mum6VYqF8RtvSXm0f4jDDT5UiJs9HziMBPPuamMr9cbbtIOqxHhBOn1L4cg+ccob
YVnqxsTKMl7J6b8SKebGw2P+oFXaevFgmE0m7fpwLQIDAQABo4IBDjCCAQowCwYD
VR0PBAQDAgWgMAkGA1UdEwQCMAAwEQYJYIZIAYb4QgEBBAQDAgZAMDMGCWCGSAGG
+EIBDQQmFiRPcGVuU1NMIEdlbmVyYXRlZCBTZXJ2ZXIgQ2VydGlmaWNhdGUwHQYD
VR0OBBYEFFM/7V0JB7Nle6tFySRbCXeACpbtMHQGA1UdIwRtMGuAFPSnwMyRRq9k
85HyJ/jIsm+KhzJzoUikRjBEMQswCQYDVQQGEwJERTEPMA0GA1UECAwGSGVzc2Vu
MRQwEgYDVQQKDAtwcml2YWN5aWRlYTEOMAwGA1UEAwwFQ0EwMDGCCQD7yOusg80S
BzATBgNVHSUEDDAKBggrBgEFBQcDATANBgkqhkiG9w0BAQUFAAOCAQEAe0z56YWA
ZWMT+st48IFxLwk5NlmJJ1Pn5AqgdbhQ3KREY6g7k7YOSisn+T+xlO8kzabSrFLn
SOTjuWgB6Xw9OHdTXYQWwXtGdUiuEORgWJ/i9F0Jp2CAjiubAZkAwCfcHygO8+U5
cELorqm8ftGE/V2/OLzz9sU73PesIenLZULUcH0Dij6Le4s+epC5w2OzcFVFwPso
uicUkYW/RnPEHnS4Q3gODunPSccABiUrTzdGnHs9Uqc902zW1K1BJZXAMzuUCPXA
Nw1inFidHYyTIkfyKVifd5rU7fvyJ7b8YDgdtjZ7CBW3bfeFZNKIVciI1dnK6Rd2
f5i4Z+19cNotaA==
-----END CERTIFICATE-----
