Certificate:
    Data:
        Version: 3 (0x2)
        Serial Number: 268435628 (0x100000ac)
    Signature Algorithm: sha1WithRSAEncryption
        Issuer: C=DE, ST=Hessen, O=privacyidea, CN=CA001
        Validity
            Not Before: Sep  7 09:53:02 2015 GMT
            Not After : Sep  6 09:53:02 2016 GMT
        Subject: CN=Steve Test/emailAddress=steve@openssl.org
        Subject Public Key Info:
            Public Key Algorithm: rsaEncryption
                Public-Key: (2048 bit)
                Modulus:
                    00:d2:81:89:20:51:48:0f:73:f4:11:32:24:d5:1f:
                    1c:fd:5c:f5:b6:e6:c5:f0:52:81:dc:d2:af:66:4a:
                    7c:93:31:61:5c:af:d1:6d:06:70:03:60:7c:72:0c:
                    88:dd:49:cd:9e:02:6c:d2:5a:d7:53:0f:f3:da:be:
                    69:64:b5:0f:0c:00:e3:b3:50:47:a3:b3:9b:ba:13:
                    50:d6:58:5a:4b:ab:39:e0:11:ca:0a:27:67:03:78:
                    22:66:6d:92:1e:1b:5c:49:ae:e6:6b:d1:8e:3b:9d:
                    06:d3:c6:ac:4d:53:43:10:ab:e8:96:c1:87:82:97:
                    99:8f:20:d3:99:12:37:31:84:e1:8a:ff:29:03:5f:
                    22:90:3e:7f:9b:e0:20:c1:ad:dc:ae:4c:39:1a:31:
                    96:17:02:8c:b2:d9:b4:0d:20:12:9b:7d:86:54:fd:
                    33:fd:c1:2a:62:46:f8:60:96:cf:6e:01:6f:22:df:
                    13:47:e7:97:ec:05:72:23:a3:62:f8:fa:ef:ac:9c:
                    72:f0:37:cb:2f:37:cf:90:a8:27:51:86:c6:d7:78:
                    08:8f:7e:25:a2:15:70:a2:fb:1c:b6:15:5e:a0:97:
                    8b:81:4c:09:28:8a:27:3b:94:bc:71:db:5b:71:37:
                    9a:2b:16:e0:6f:b5:c9:f5:4b:4f:20:ba:65:cf:af:
                    ad:ad
                Exponent: 65537 (0x10001)
        X509v3 extensions:
            X509v3 Key Usage: 
                Digital Signature, Key Encipherment
            X509v3 Basic Constraints: 
                CA:FALSE
            Netscape Cert Type: 
                SSL Server
            Netscape Comment: 
                OpenSSL Generated Server Certificate
            X509v3 Subject Key Identifier: 
                E5:25:6D:3E:AF:0D:DD:3F:4C:F2:45:19:39:D5:14:DB:7E:9C:C0:AD
            X509v3 Authority Key Identifier: 
                keyid:F4:A7:C0:CC:91:46:AF:64:F3:91:F2:27:F8:C8:B2:6F:8A:87:32:73
                DirName:/C=DE/ST=Hessen/O=privacyidea/CN=CA001
                serial:FB:C8:EB:AC:83:CD:12:07

            X509v3 Extended Key Usage: 
                TLS Web Server Authentication
    Signature Algorithm: sha1WithRSAEncryption
         a7:81:06:a5:ac:ec:82:62:6a:2e:05:30:ac:3f:19:10:6c:60:
         86:68:16:d0:74:33:86:b9:fc:61:c7:d2:6a:1c:88:76:bf:62:
         d9:dd:a1:50:a6:65:7b:1f:cb:91:b6:4d:d4:73:f0:0c:7c:1a:
         a7:f9:9b:cf:76:14:90:ab:ab:cd:8f:ac:78:7d:7b:62:1e:90:
         0c:ec:35:89:b8:f9:dd:58:78:8f:57:48:90:d0:fc:59:3d:b4:
         b2:93:45:b4:50:0f:ed:dd:f5:56:24:7b:d5:76:f7:a3:4d:53:
         d1:63:96:1c:50:00:f4:7a:03:a2:ce:f2:d6:72:da:bb:94:a3:
         d4:06:4a:cf:0b:e0:37:e9:49:18:02:f2:88:09:c7:d6:a0:ee:
         db:a1:ca:ad:8b:f0:4d:a9:64:53:16:d1:5d:15:99:68:ae:c7:
         3c:a0:42:a0:08:39:f0:fd:10:0e:77:e5:e8:e1:68:82:1c:8f:
         9b:07:cd:db:2e:4f:b2:1d:cb:ea:77:bf:ff:a2:d9:f6:a8:91:
         75:f5:7c:b5:35:e9:81:b0:5e:d2:b0:15:c9:5a:99:32:f7:02:
         e8:16:fd:9a:89:ae:41:db:6f:94:f1:f8:a8:55:43:07:ed:1a:
         25:0e:7c:17:d0:62:d9:f3:ce:ba:46:58:ac:ee:b4:f4:e0:ab:
         9e:5e:a5:74
-----BEGIN CERTIFICATE-----
MIIECTCCAvGgAwIBAgIEEAAArDANBgkqhkiG9w0BAQUFADBEMQswCQYDVQQGEwJE
RTEPMA0GA1UECAwGSGVzc2VuMRQwEgYDVQQKDAtwcml2YWN5aWRlYTEOMAwGA1UE
AwwFQ0EwMDEwHhcNMTUwOTA3MDk1MzAyWhcNMTYwOTA2MDk1MzAyWjA3MRMwEQYD
VQQDEwpTdGV2ZSBUZXN0MSAwHgYJKoZIhvcNAQkBFhFzdGV2ZUBvcGVuc3NsLm9y
ZzCCASIwDQYJKoZIhvcNAQEBBQADggEPADCCAQoCggEBANKBiSBRSA9z9BEyJNUf
HP1c9bbmxfBSgdzSr2ZKfJMxYVyv0W0GcANgfHIMiN1JzZ4CbNJa11MP89q+aWS1
DwwA47NQR6Ozm7oTUNZYWkurOeARygonZwN4ImZtkh4bXEmu5mvRjjudBtPGrE1T
QxCr6JbBh4KXmY8g05kSNzGE4Yr/KQNfIpA+f5vgIMGt3K5MORoxlhcCjLLZtA0g
Ept9hlT9M/3BKmJG+GCWz24BbyLfE0fnl+wFciOjYvj676yccvA3yy83z5CoJ1GG
xtd4CI9+JaIVcKL7HLYVXqCXi4FMCSiKJzuUvHHbW3E3misW4G+1yfVLTyC6Zc+v
ra0CAwEAAaOCAQ4wggEKMAsGA1UdDwQEAwIFoDAJBgNVHRMEAjAAMBEGCWCGSAGG
+EIBAQQEAwIGQDAzBglghkgBhvhCAQ0EJhYkT3BlblNTTCBHZW5lcmF0ZWQgU2Vy
dmVyIENlcnRpZmljYXRlMB0GA1UdDgQWBBTlJW0+rw3dP0zyRRk51RTbfpzArTB0
BgNVHSMEbTBrgBT0p8DMkUavZPOR8if4yLJviocyc6FIpEYwRDELMAkGA1UEBhMC
REUxDzANBgNVBAgMBkhlc3NlbjEUMBIGA1UECgwLcHJpdmFjeWlkZWExDjAMBgNV
BAMMBUNBMDAxggkA+8jrrIPNEgcwEwYDVR0lBAwwCgYIKwYBBQUHAwEwDQYJKoZI
hvcNAQEFBQADggEBAKeBBqWs7IJiai4FMKw/GRBsYIZoFtB0M4a5/GHH0mociHa/
YtndoVCmZXsfy5G2TdRz8Ax8Gqf5m892FJCrq82PrHh9e2IekAzsNYm4+d1YeI9X
SJDQ/Fk9tLKTRbRQD+3d9VYke9V296NNU9FjlhxQAPR6A6LO8tZy2ruUo9QGSs8L
4DfpSRgC8ogJx9ag7tuhyq2L8E2pZFMW0V0VmWiuxzygQqAIOfD9EA535ejhaIIc
j5sHzdsuT7Idy+p3v/+i2faokXX1fLU16YGwXtKwFclamTL3AugW/ZqJrkHbb5Tx
+KhVQwftGiUOfBfQYtnzzrpGWKzutPTgq55epXQ=
-----END CERTIFICATE-----
