Certificate:
    Data:
        Version: 3 (0x2)
        Serial Number: 268435622 (0x100000a6)
    Signature Algorithm: sha1WithRSAEncryption
        Issuer: C=DE, ST=Hessen, O=privacyidea, CN=CA001
        Validity
            Not Before: Sep  7 09:07:26 2015 GMT
            Not After : Sep  6 09:07:26 2016 GMT
        Subject: CN=Steve Test/emailAddress=steve@openssl.org
        Subject Public Key Info:
            Public Key Algorithm: rsaEncryption
                Public-Key: (2048 bit)
                Modulus:
                    00:d2:81:89:20:51:48:0f:73:f4:11:32:24:d5:1f:
                    1c:fd:5c:f5:b6:e6:c5:f0:52:81:dc:d2:af:66:4a:
                    7c:93:31:61:5c:af:d1:6d:06:70:03:60:7c:72:0c:
                    88:dd:49:cd:9e:02:6c:d2:5a:d7:53:0f:f3:da:be:
                    69:64:b5:0f:0c:00:e3:b3:50:47:a3:b3:9b:ba:13:
                    50:d6:58:5a:4b:ab:39:e0:11:ca:0a:27:67:03:78:
                    22:66:6d:92:1e:1b:5c:49:ae:e6:6b:d1:8e:3b:9d:
                    06:d3:c6:ac:4d:53:43:10:ab:e8:96:c1:87:82:97:
                    99:8f:20:d3:99:12:37:31:84:e1:8a:ff:29:03:5f:
                    22:90:3e:7f:9b:e0:20:c1:ad:dc:ae:4c:39:1a:31:
                    96:17:02:8c:b2:d9:b4:0d:20:12:9b:7d:86:54:fd:
                    33:fd:c1:2a:62:46:f8:60:96:cf:6e:01:6f:22:df:
                    13:47:e7:97:ec:05:72:23:a3:62:f8:fa:ef:ac:9c:
                    72:f0:37:cb:2f:37:cf:90:a8:27:51:86:c6:d7:78:
                    08:8f:7e:25:a2:15:70:a2:fb:1c:b6:15:5e:a0:97:
                    8b:81:4c:09:28:8a:27:3b:94:bc:71:db:5b:71:37:
                    9a:2b:16:e0:6f:b5:c9:f5:4b:4f:20:ba:65:cf:af:
                    ad:ad
                Exponent: 65537 (0x10001)
        X509v3 extensions:
            X509v3 Key Usage: 
                Digital Signature, Key Encipherment
            X509v3 Basic Constraints: 
                CA:FALSE
            Netscape Cert Type: 
                SSL Server
            Netscape Comment: 
                OpenSSL Generated Server Certificate
            X509v3 Subject Key Identifier: 
                E5:25:6D:3E:AF:0D:DD:3F:4C:F2:45:19:39:D5:14:DB:7E:9C:C0:AD
            X509v3 Authority Key Identifier: 
                keyid:F4:A7:C0:CC:91:46:AF:64:F3:91:F2:27:F8:C8:B2:6F:8A:87:32:73
                DirName:/C=DE/ST=Hessen/O=privacyidea/CN=CA001
                serial:FB:C8:EB:AC:83:CD:12:07

            X509v3 Extended Key Usage: 
                TLS Web Server Authentication
    Signature Algorithm: sha1WithRSAEncryption
         70:74:97:5a:e7:e2:86:94:f0:6e:bd:9f:29:fd:8f:27:47:3f:
         71:c7:5c:60:ca:5e:b0:74:0c:d9:2f:88:4b:80:b7:62:e9:69:
         5e:17:48:b6:b3:a0:cc:ae:9d:84:75:7e:bb:fd:a4:08:4a:8f:
         d3:11:c6:80:7c:45:39:24:6b:47:59:89:37:a2:d3:e2:bf:1e:
         e7:2c:ba:c4:a0:64:2c:b0:13:2b:2b:db:b2:73:ca:ae:82:79:
         70:f4:72:44:a1:4a:30:99:ef:43:c6:b0:a4:32:42:c3:7d:06:
         c1:d9:ac:b9:c0:85:97:d2:10:36:69:cc:cc:e5:c4:02:d0:3c:
         bc:a5:4e:e3:77:d7:75:db:5a:38:67:34:8b:a8:6a:56:94:f2:
         1e:24:19:0f:73:48:b2:26:78:b8:d4:c4:22:ec:fc:23:a9:6a:
         5f:17:fc:c3:22:73:d6:1d:08:96:b8:7c:e8:2a:95:5e:9c:f1:
         7b:0a:a5:e7:71:ea:72:65:25:84:af:2d:22:4f:77:35:22:0d:
         b0:35:e5:37:df:f5:ff:2d:32:a3:5c:cf:5c:8d:7d:de:f0:be:
         25:bf:a2:19:82:3c:b6:24:20:04:19:55:f6:bb:49:19:b2:3e:
         4f:f3:5c:45:11:21:1c:79:81:5c:4a:37:7f:1c:00:81:c3:13:
         17:c2:dd:7f
-----BEGIN CERTIFICATE-----
MIIECTCCAvGgAwIBAgIEEAAApjANBgkqhkiG9w0BAQUFADBEMQswCQYDVQQGEwJE
RTEPMA0GA1UECAwGSGVzc2VuMRQwEgYDVQQKDAtwcml2YWN5aWRlYTEOMAwGA1UE
AwwFQ0EwMDEwHhcNMTUwOTA3MDkwNzI2WhcNMTYwOTA2MDkwNzI2WjA3MRMwEQYD
VQQDEwpTdGV2ZSBUZXN0MSAwHgYJKoZIhvcNAQkBFhFzdGV2ZUBvcGVuc3NsLm9y
ZzCCASIwDQYJKoZIhvcNAQEBBQADggEPADCCAQoCggEBANKBiSBRSA9z9BEyJNUf
HP1c9bbmxfBSgdzSr2ZKfJMxYVyv0W0GcANgfHIMiN1JzZ4CbNJa11MP89q+aWS1
DwwA47NQR6Ozm7oTUNZYWkurOeARygonZwN4ImZtkh4bXEmu5mvRjjudBtPGrE1T
QxCr6JbBh4KXmY8g05kSNzGE4Yr/KQNfIpA+f5vgIMGt3K5MORoxlhcCjLLZtA0g
Ept9hlT9M/3BKmJG+GCWz24BbyLfE0fnl+wFciOjYvj676yccvA3yy83z5CoJ1GG
xtd4CI9+JaIVcKL7HLYVXqCXi4FMCSiKJzuUvHHbW3E3misW4G+1yfVLTyC6Zc+v
ra0CAwEAAaOCAQ4wggEKMAsGA1UdDwQEAwIFoDAJBgNVHRMEAjAAMBEGCWCGSAGG
+EIBAQQEAwIGQDAzBglghkgBhvhCAQ0EJhYkT3BlblNTTCBHZW5lcmF0ZWQgU2Vy
dmVyIENlcnRpZmljYXRlMB0GA1UdDgQWBBTlJW0+rw3dP0zyRRk51RTbfpzArTB0
BgNVHSMEbTBrgBT0p8DMkUavZPOR8if4yLJviocyc6FIpEYwRDELMAkGA1UEBhMC
REUxDzANBgNVBAgMBkhlc3NlbjEUMBIGA1UECgwLcHJpdmFjeWlkZWExDjAMBgNV
BAMMBUNBMDAxggkA+8jrrIPNEgcwEwYDVR0lBAwwCgYIKwYBBQUHAwEwDQYJKoZI
hvcNAQEFBQADggEBAHB0l1rn4oaU8G69nyn9jydHP3HHXGDKXrB0DNkviEuAt2Lp
aV4XSLazoMyunYR1frv9pAhKj9MRxoB8RTkka0dZiTei0+K/HucsusSgZCywEysr
27Jzyq6CeXD0ckShSjCZ70PGsKQyQsN9BsHZrLnAhZfSEDZpzMzlxALQPLylTuN3
13XbWjhnNIuoalaU8h4kGQ9zSLImeLjUxCLs/COpal8X/MMic9YdCJa4fOgqlV6c
8XsKpedx6nJlJYSvLSJPdzUiDbA15Tff9f8tMqNcz1yNfd7wviW/ohmCPLYkIAQZ
Vfa7SRmyPk/zXEURIRx5gVxKN38cAIHDExfC3X8=
-----END CERTIFICATE-----
