Certificate:
    Data:
        Version: 3 (0x2)
        Serial Number: 268435608 (0x10000098)
    Signature Algorithm: sha1WithRSAEncryption
        Issuer: C=DE, ST=Hessen, O=privacyidea, CN=CA001
        Validity
            Not Before: Sep  7 19:16:17 2015 GMT
            Not After : Sep  6 19:16:17 2016 GMT
        Subject: C=DE, ST=Hessen, O=privacyidea, CN=requester.localdomain
        Subject Public Key Info:
            Public Key Algorithm: rsaEncryption
                Public-Key: (2048 bit)
                Modulus:
                    00:cd:be:14:4f:fa:ce:01:3f:42:22:1b:1d:9c:af:
                    dd:92:d2:7f:db:6c:b7:3e:39:43:43:6b:13:03:f1:
                    05:f4:07:74:bc:76:69:28:0b:af:19:8e:d7:fc:e3:
                    cd:c6:58:f2:ca:7f:08:6d:53:fc:07:02:44:24:c6:
                    b4:34:4c:8c:04:fe:33:0e:40:e2:20:ba:02:73:5a:
                    f7:f5:4f:63:6e:cc:c6:b6:df:54:1d:37:39:7d:51:
                    36:26:5f:bd:dc:3f:a8:8b:6b:a2:ae:b6:9d:d6:21:
                    e7:df:41:b8:7a:28:2a:68:48:ca:a8:2d:ed:e1:e9:
                    46:5e:5a:72:6d:b4:84:38:87:91:fd:94:11:0b:28:
                    84:c6:c2:2f:2a:fb:01:f9:36:7a:09:75:d1:33:88:
                    3c:73:41:5b:c8:bf:94:89:70:a1:f0:c0:b9:2e:50:
                    53:1e:b1:17:64:69:f4:2d:81:e0:a9:0d:0e:32:e9:
                    ba:55:8a:85:f1:1b:6f:49:79:b4:7f:88:c3:0d:3e:
                    54:88:9b:3d:1f:38:8c:04:f3:ee:6a:63:2b:f5:c6:
                    db:b4:83:aa:c4:78:41:3a:7d:4b:e1:c8:3e:71:ca:
                    1b:61:59:ea:c6:c4:ca:32:5e:c9:e9:bf:12:29:e6:
                    c6:c3:63:fe:a0:55:da:7a:f1:60:98:4d:26:ed:fa:
                    70:2d
                Exponent: 65537 (0x10001)
        X509v3 extensions:
            X509v3 Key Usage: 
                Digital Signature, Key Encipherment
            X509v3 Basic Constraints: 
                CA:FALSE
            Netscape Cert Type: 
                SSL Server
            Netscape Comment: 
                OpenSSL Generated Server Certificate
            X509v3 Subject Key Identifier: 
                53:3F:ED:5D:09:07:B3:65:7B:AB:45:C9:24:5B:09:77:80:0A:96:ED
            X509v3 Authority Key Identifier: 
                keyid:F4:A7:C0:CC:91:46:AF:64:F3:91:F2:27:F8:C8:B2:6F:8A:87:32:73
                DirName:/C=DE/ST=Hessen/O=privacyidea/CN=CA001
                serial:FB:C8:EB:AC:83:CD:12:07

            X509v3 Extended Key Usage: 
                TLS Web Server Authentication
    Signature Algorithm: sha1WithRSAEncryption
         8e:9b:4c:04:bc:af:fc:d8:fd:bd:05:68:31:0b:98:c6:f0:c5:
         71:2d:e3:dd:b6:80:86:2b:f4:29:e8:5e:eb:e0:49:95:79:72:
         d3:9b:f6:1b:f4:04:fe:f7:33:66:32:5c:8e:11:62:7e:1f:7c:
         ff:7f:40:3d:ad:52:83:92:ab:3d:64:9b:3e:ce:4d:28:8c:eb:
         44:c9:18:c1:17:82:41:00:e9:36:4d:e5:a7:37:42:d3:1e:fa:
         96:9d:d5:e2:ec:3c:a3:1b:60:2d:29:f0:e1:87:31:e9:d8:3e:
         54:97:a5:f6:db:f7:dc:c4:32:cf:e2:55:14:d4:e8:22:94:0c:
         71:f9:39:ca:9e:36:d3:51:01:1e:76:6c:79:cb:da:0f:cf:85:
         0d:b4:81:48:9a:b6:e6:49:3d:36:44:1b:51:56:b6:17:8f:6a:
         8e:71:16:b6:7e:ba:11:8b:8f:c2:d3:bd:86:17:41:ff:99:13:
         c1:f6:ee:9d:22:79:6b:c4:93:d4:9d:ec:de:d2:a6:74:b3:d4:
         58:c5:8c:c2:be:70:1a:67:c3:56:bb:2a:b2:1d:39:30:1c:02:
         db:7f:04:5e:3d:ea:7f:fb:ec:18:ba:f8:02:a4:96:98:df:bb:
         9a:73:8f:00:15:5e:61:ee:1a:ba:85:ba:40:bf:fa:b6:08:d3:
         7a:27:10:6c
-----BEGIN CERTIFICATE-----
MIIEJjCCAw6gAwIBAgIEEAAAmDANBgkqhkiG9w0BAQUFADBEMQswCQYDVQQGEwJE
RTEPMA0GA1UECAwGSGVzc2VuMRQwEgYDVQQKDAtwcml2YWN5aWRlYTEOMAwGA1UE
AwwFQ0EwMDEwHhcNMTUwOTA3MTkxNjE3WhcNMTYwOTA2MTkxNjE3WjBUMQswCQYD
VQQGEwJERTEPMA0GA1UECAwGSGVzc2VuMRQwEgYDVQQKDAtwcml2YWN5aWRlYTEe
MBwGA1UEAwwVcmVxdWVzdGVyLmxvY2FsZG9tYWluMIIBIjANBgkqhkiG9w0BAQEF
AAOCAQ8AMIIBCgKCAQEAzb4UT/rOAT9CIhsdnK/dktJ/22y3PjlDQ2sTA/EF9Ad0
vHZpKAuvGY7X/OPNxljyyn8IbVP8BwJEJMa0NEyMBP4zDkDiILoCc1r39U9jbszG
tt9UHTc5fVE2Jl+93D+oi2uirrad1iHn30G4eigqaEjKqC3t4elGXlpybbSEOIeR
/ZQRCyiExsIvKvsB+TZ6CXXRM4g8c0FbyL+UiXCh8MC5LlBTHrEXZGn0LYHgqQ0O
Mum6VYqF8RtvSXm0f4jDDT5UiJs9HziMBPPuamMr9cbbtIOqxHhBOn1L4cg+ccob
YVnqxsTKMl7J6b8SKebGw2P+oFXaevFgmE0m7fpwLQIDAQABo4IBDjCCAQowCwYD
VR0PBAQDAgWgMAkGA1UdEwQCMAAwEQYJYIZIAYb4QgEBBAQDAgZAMDMGCWCGSAGG
+EIBDQQmFiRPcGVuU1NMIEdlbmVyYXRlZCBTZXJ2ZXIgQ2VydGlmaWNhdGUwHQYD
VR0OBBYEFFM/7V0JB7Nle6tFySRbCXeACpbtMHQGA1UdIwRtMGuAFPSnwMyRRq9k
85HyJ/jIsm+KhzJzoUikRjBEMQswCQYDVQQGEwJERTEPMA0GA1UECAwGSGVzc2Vu
MRQwEgYDVQQKDAtwcml2YWN5aWRlYTEOMAwGA1UEAwwFQ0EwMDGCCQD7yOusg80S
BzATBgNVHSUEDDAKBggrBgEFBQcDATANBgkqhkiG9w0BAQUFAAOCAQEAjptMBLyv
/Nj9vQVoMQuYxvDFcS3j3baAhiv0Kehe6+BJlXly05v2G/QE/vczZjJcjhFifh98
/39APa1Sg5KrPWSbPs5NKIzrRMkYwReCQQDpNk3lpzdC0x76lp3V4uw8oxtgLSnw
4Ycx6dg+VJel9tv33MQyz+JVFNToIpQMcfk5yp4201EBHnZsecvaD8+FDbSBSJq2
5kk9NkQbUVa2F49qjnEWtn66EYuPwtO9hhdB/5kTwfbunSJ5a8ST1J3s3tKmdLPU
WMWMwr5wGmfDVrsqsh05MBwC238EXj3qf/vsGLr4AqSWmN+7mnOPABVeYe4auoW6
QL/6tgjTeicQbA==
-----END CERTIFICATE-----
