Certificate:
    Data:
        Version: 3 (0x2)
        Serial Number: 268435617 (0x100000a1)
    Signature Algorithm: sha1WithRSAEncryption
        Issuer: C=DE, ST=Hessen, O=privacyidea, CN=CA001
        Validity
            Not Before: Sep  7 08:44:38 2015 GMT
            Not After : Sep  6 08:44:38 2016 GMT
        Subject: C=DE, ST=Hessen, O=privacyidea, CN=requester.localdomain
        Subject Public Key Info:
            Public Key Algorithm: rsaEncryption
                Public-Key: (2048 bit)
                Modulus:
                    00:cd:be:14:4f:fa:ce:01:3f:42:22:1b:1d:9c:af:
                    dd:92:d2:7f:db:6c:b7:3e:39:43:43:6b:13:03:f1:
                    05:f4:07:74:bc:76:69:28:0b:af:19:8e:d7:fc:e3:
                    cd:c6:58:f2:ca:7f:08:6d:53:fc:07:02:44:24:c6:
                    b4:34:4c:8c:04:fe:33:0e:40:e2:20:ba:02:73:5a:
                    f7:f5:4f:63:6e:cc:c6:b6:df:54:1d:37:39:7d:51:
                    36:26:5f:bd:dc:3f:a8:8b:6b:a2:ae:b6:9d:d6:21:
                    e7:df:41:b8:7a:28:2a:68:48:ca:a8:2d:ed:e1:e9:
                    46:5e:5a:72:6d:b4:84:38:87:91:fd:94:11:0b:28:
                    84:c6:c2:2f:2a:fb:01:f9:36:7a:09:75:d1:33:88:
                    3c:73:41:5b:c8:bf:94:89:70:a1:f0:c0:b9:2e:50:
                    53:1e:b1:17:64:69:f4:2d:81:e0:a9:0d:0e:32:e9:
                    ba:55:8a:85:f1:1b:6f:49:79:b4:7f:88:c3:0d:3e:
                    54:88:9b:3d:1f:38:8c:04:f3:ee:6a:63:2b:f5:c6:
                    db:b4:83:aa:c4:78:41:3a:7d:4b:e1:c8:3e:71:ca:
                    1b:61:59:ea:c6:c4:ca:32:5e:c9:e9:bf:12:29:e6:
                    c6:c3:63:fe:a0:55:da:7a:f1:60:98:4d:26:ed:fa:
                    70:2d
                Exponent: 65537 (0x10001)
        X509v3 extensions:
            X509v3 Key Usage: 
                Digital Signature, Key Encipherment
            X509v3 Basic Constraints: 
                CA:FALSE
            Netscape Cert Type: 
                SSL Server
            Netscape Comment: 
                OpenSSL Generated Server Certificate
            X509v3 Subject Key Identifier: 
                53:3F:ED:5D:09:07:B3:65:7B:AB:45:C9:24:5B:09:77:80:0A:96:ED
            X509v3 Authority Key Identifier: 
                keyid:F4:A7:C0:CC:91:46:AF:64:F3:91:F2:27:F8:C8:B2:6F:8A:87:32:73
                DirName:/C=DE/ST=Hessen/O=privacyidea/CN=CA001
                serial:FB:C8:EB:AC:83:CD:12:07

            X509v3 Extended Key Usage: 
                TLS Web Server Authentication
    Signature Algorithm: sha1WithRSAEncryption
         23:f2:83:d2:22:4d:4d:c8:44:5e:2a:03:75:86:18:25:62:91:
         a5:93:5f:ef:f7:1f:60:23:5f:bc:e7:4d:ce:59:19:a2:45:6e:
         6e:77:ec:03:4b:f8:a6:5c:f8:e6:46:67:8a:1f:ce:c4:72:b7:
         3d:63:28:fe:d9:68:0e:5d:95:a9:5b:89:aa:bd:2a:26:dc:4f:
         38:da:be:e0:f6:8b:dc:70:91:31:d6:fe:00:f6:a1:4e:17:8d:
         9f:20:33:df:43:e6:58:12:c6:d8:c9:54:21:48:3c:b9:03:14:
         67:71:47:c0:8e:c6:54:f9:a6:69:61:d4:db:63:47:2a:a7:c0:
         e1:17:9d:7a:a0:26:da:08:65:d9:c4:44:49:c5:7f:65:00:bb:
         6e:9f:8d:64:cc:b4:b8:e8:ed:ba:3a:52:bd:9b:72:5e:60:40:
         6d:9b:dc:56:7b:6b:aa:fa:25:39:55:e9:f7:ec:52:67:b6:a0:
         13:4a:be:64:bf:e6:5e:20:ba:7f:1a:92:ce:d1:29:a3:bb:a7:
         3b:4a:fc:da:ec:9b:ad:bb:bf:2a:bb:0b:82:fb:ba:d1:0e:08:
         4f:b9:17:f0:69:09:9c:c5:22:2d:3c:f6:bf:ea:58:bb:d0:58:
         5b:a8:ee:4c:b5:95:13:5d:d1:bc:bb:ee:f9:63:46:bd:fa:8a:
         c8:23:0c:a5
-----BEGIN CERTIFICATE-----
MIIEJjCCAw6gAwIBAgIEEAAAoTANBgkqhkiG9w0BAQUFADBEMQswCQYDVQQGEwJE
RTEPMA0GA1UECAwGSGVzc2VuMRQwEgYDVQQKDAtwcml2YWN5aWRlYTEOMAwGA1UE
AwwFQ0EwMDEwHhcNMTUwOTA3MDg0NDM4WhcNMTYwOTA2MDg0NDM4WjBUMQswCQYD
VQQGEwJERTEPMA0GA1UECAwGSGVzc2VuMRQwEgYDVQQKDAtwcml2YWN5aWRlYTEe
MBwGA1UEAwwVcmVxdWVzdGVyLmxvY2FsZG9tYWluMIIBIjANBgkqhkiG9w0BAQEF
AAOCAQ8AMIIBCgKCAQEAzb4UT/rOAT9CIhsdnK/dktJ/22y3PjlDQ2sTA/EF9Ad0
vHZpKAuvGY7X/OPNxljyyn8IbVP8BwJEJMa0NEyMBP4zDkDiILoCc1r39U9jbszG
tt9UHTc5fVE2Jl+93D+oi2uirrad1iHn30G4eigqaEjKqC3t4elGXlpybbSEOIeR
/ZQRCyiExsIvKvsB+TZ6CXXRM4g8c0FbyL+UiXCh8MC5LlBTHrEXZGn0LYHgqQ0O
Mum6VYqF8RtvSXm0f4jDDT5UiJs9HziMBPPuamMr9cbbtIOqxHhBOn1L4cg+ccob
YVnqxsTKMl7J6b8SKebGw2P+oFXaevFgmE0m7fpwLQIDAQABo4IBDjCCAQowCwYD
VR0PBAQDAgWgMAkGA1UdEwQCMAAwEQYJYIZIAYb4QgEBBAQDAgZAMDMGCWCGSAGG
+EIBDQQmFiRPcGVuU1NMIEdlbmVyYXRlZCBTZXJ2ZXIgQ2VydGlmaWNhdGUwHQYD
VR0OBBYEFFM/7V0JB7Nle6tFySRbCXeACpbtMHQGA1UdIwRtMGuAFPSnwMyRRq9k
85HyJ/jIsm+KhzJzoUikRjBEMQswCQYDVQQGEwJERTEPMA0GA1UECAwGSGVzc2Vu
MRQwEgYDVQQKDAtwcml2YWN5aWRlYTEOMAwGA1UEAwwFQ0EwMDGCCQD7yOusg80S
BzATBgNVHSUEDDAKBggrBgEFBQcDATANBgkqhkiG9w0BAQUFAAOCAQEAI/KD0iJN
TchEXioDdYYYJWKRpZNf7/cfYCNfvOdNzlkZokVubnfsA0v4plz45kZnih/OxHK3
PWMo/tloDl2VqVuJqr0qJtxPONq+4PaL3HCRMdb+APahTheNnyAz30PmWBLG2MlU
IUg8uQMUZ3FHwI7GVPmmaWHU22NHKqfA4RedeqAm2ghl2cREScV/ZQC7bp+NZMy0
uOjtujpSvZtyXmBAbZvcVntrqvolOVXp9+xSZ7agE0q+ZL/mXiC6fxqSztEpo7un
O0r82uybrbu/KrsLgvu60Q4IT7kX8GkJnMUiLTz2v+pYu9BYW6juTLWVE13RvLvu
+WNGvfqKyCMMpQ==
-----END CERTIFICATE-----
