Certificate:
    Data:
        Version: 3 (0x2)
        Serial Number: 268435616 (0x100000a0)
    Signature Algorithm: sha1WithRSAEncryption
        Issuer: C=DE, ST=Hessen, O=privacyidea, CN=CA001
        Validity
            Not Before: Sep  7 08:43:51 2015 GMT
            Not After : Sep  6 08:43:51 2016 GMT
        Subject: CN=Steve Test/emailAddress=steve@openssl.org
        Subject Public Key Info:
            Public Key Algorithm: rsaEncryption
                Public-Key: (2048 bit)
                Modulus:
                    00:d2:81:89:20:51:48:0f:73:f4:11:32:24:d5:1f:
                    1c:fd:5c:f5:b6:e6:c5:f0:52:81:dc:d2:af:66:4a:
                    7c:93:31:61:5c:af:d1:6d:06:70:03:60:7c:72:0c:
                    88:dd:49:cd:9e:02:6c:d2:5a:d7:53:0f:f3:da:be:
                    69:64:b5:0f:0c:00:e3:b3:50:47:a3:b3:9b:ba:13:
                    50:d6:58:5a:4b:ab:39:e0:11:ca:0a:27:67:03:78:
                    22:66:6d:92:1e:1b:5c:49:ae:e6:6b:d1:8e:3b:9d:
                    06:d3:c6:ac:4d:53:43:10:ab:e8:96:c1:87:82:97:
                    99:8f:20:d3:99:12:37:31:84:e1:8a:ff:29:03:5f:
                    22:90:3e:7f:9b:e0:20:c1:ad:dc:ae:4c:39:1a:31:
                    96:17:02:8c:b2:d9:b4:0d:20:12:9b:7d:86:54:fd:
                    33:fd:c1:2a:62:46:f8:60:96:cf:6e:01:6f:22:df:
                    13:47:e7:97:ec:05:72:23:a3:62:f8:fa:ef:ac:9c:
                    72:f0:37:cb:2f:37:cf:90:a8:27:51:86:c6:d7:78:
                    08:8f:7e:25:a2:15:70:a2:fb:1c:b6:15:5e:a0:97:
                    8b:81:4c:09:28:8a:27:3b:94:bc:71:db:5b:71:37:
                    9a:2b:16:e0:6f:b5:c9:f5:4b:4f:20:ba:65:cf:af:
                    ad:ad
                Exponent: 65537 (0x10001)
        X509v3 extensions:
            X509v3 Key Usage: 
                Digital Signature, Key Encipherment
            X509v3 Basic Constraints: 
                CA:FALSE
            Netscape Cert Type: 
                SSL Server
            Netscape Comment: 
                OpenSSL Generated Server Certificate
            X509v3 Subject Key Identifier: 
                E5:25:6D:3E:AF:0D:DD:3F:4C:F2:45:19:39:D5:14:DB:7E:9C:C0:AD
            X509v3 Authority Key Identifier: 
                keyid:F4:A7:C0:CC:91:46:AF:64:F3:91:F2:27:F8:C8:B2:6F:8A:87:32:73
                DirName:/C=DE/ST=Hessen/O=privacyidea/CN=CA001
                serial:FB:C8:EB:AC:83:CD:12:07

            X509v3 Extended Key Usage: 
                TLS Web Server Authentication
    Signature Algorithm: sha1WithRSAEncryption
         0b:79:16:99:e8:bc:f6:c5:a6:c8:76:ce:d2:f6:5c:f8:36:38:
         07:13:1f:7c:f8:11:52:47:b7:69:a2:04:04:aa:93:a6:91:bc:
         b4:b5:74:ec:30:08:72:07:74:6d:f6:46:7c:16:13:e6:8b:5b:
         1c:48:cf:63:ff:31:c7:d3:a0:10:03:49:0f:91:54:bf:37:05:
         26:f6:73:e7:87:74:19:64:1b:0a:ce:a4:51:12:8f:e6:00:2c:
         ea:f9:4f:bd:57:6d:b0:80:d6:87:2a:89:5d:08:f4:ba:f6:d9:
         af:47:de:c8:da:8d:e8:1f:31:6d:c9:df:61:98:62:1f:bb:4b:
         b2:55:fb:4b:ee:1a:42:31:c7:26:d4:8c:96:96:fc:c8:f3:f8:
         1b:ef:c1:5d:21:86:67:1a:64:b0:7e:15:ed:53:d5:47:c1:16:
         e7:e8:b2:a4:60:8a:fa:05:cb:2f:aa:ce:03:1d:eb:b9:dd:ec:
         90:6c:97:cb:d6:43:ee:70:e4:01:2e:0a:1e:ec:55:d7:e1:9f:
         8d:92:38:d6:7c:39:34:d7:dc:84:06:28:a8:2e:d3:e7:76:91:
         e4:91:82:6f:99:ad:b1:fb:71:5a:be:b7:e1:c7:f3:97:21:d0:
         a0:e2:c7:19:78:0e:fd:ee:29:95:d0:0a:47:e7:5d:14:0d:9a:
         16:96:48:65
-----BEGIN CERTIFICATE-----
MIIECTCCAvGgAwIBAgIEEAAAoDANBgkqhkiG9w0BAQUFADBEMQswCQYDVQQGEwJE
RTEPMA0GA1UECAwGSGVzc2VuMRQwEgYDVQQKDAtwcml2YWN5aWRlYTEOMAwGA1UE
AwwFQ0EwMDEwHhcNMTUwOTA3MDg0MzUxWhcNMTYwOTA2MDg0MzUxWjA3MRMwEQYD
VQQDEwpTdGV2ZSBUZXN0MSAwHgYJKoZIhvcNAQkBFhFzdGV2ZUBvcGVuc3NsLm9y
ZzCCASIwDQYJKoZIhvcNAQEBBQADggEPADCCAQoCggEBANKBiSBRSA9z9BEyJNUf
HP1c9bbmxfBSgdzSr2ZKfJMxYVyv0W0GcANgfHIMiN1JzZ4CbNJa11MP89q+aWS1
DwwA47NQR6Ozm7oTUNZYWkurOeARygonZwN4ImZtkh4bXEmu5mvRjjudBtPGrE1T
QxCr6JbBh4KXmY8g05kSNzGE4Yr/KQNfIpA+f5vgIMGt3K5MORoxlhcCjLLZtA0g
Ept9hlT9M/3BKmJG+GCWz24BbyLfE0fnl+wFciOjYvj676yccvA3yy83z5CoJ1GG
xtd4CI9+JaIVcKL7HLYVXqCXi4FMCSiKJzuUvHHbW3E3misW4G+1yfVLTyC6Zc+v
ra0CAwEAAaOCAQ4wggEKMAsGA1UdDwQEAwIFoDAJBgNVHRMEAjAAMBEGCWCGSAGG
+EIBAQQEAwIGQDAzBglghkgBhvhCAQ0EJhYkT3BlblNTTCBHZW5lcmF0ZWQgU2Vy
dmVyIENlcnRpZmljYXRlMB0GA1UdDgQWBBTlJW0+rw3dP0zyRRk51RTbfpzArTB0
BgNVHSMEbTBrgBT0p8DMkUavZPOR8if4yLJviocyc6FIpEYwRDELMAkGA1UEBhMC
REUxDzANBgNVBAgMBkhlc3NlbjEUMBIGA1UECgwLcHJpdmFjeWlkZWExDjAMBgNV
BAMMBUNBMDAxggkA+8jrrIPNEgcwEwYDVR0lBAwwCgYIKwYBBQUHAwEwDQYJKoZI
hvcNAQEFBQADggEBAAt5FpnovPbFpsh2ztL2XPg2OAcTH3z4EVJHt2miBASqk6aR
vLS1dOwwCHIHdG32RnwWE+aLWxxIz2P/McfToBADSQ+RVL83BSb2c+eHdBlkGwrO
pFESj+YALOr5T71XbbCA1ocqiV0I9Lr22a9H3sjajegfMW3J32GYYh+7S7JV+0vu
GkIxxybUjJaW/Mjz+BvvwV0hhmcaZLB+Fe1T1UfBFufosqRgivoFyy+qzgMd67nd
7JBsl8vWQ+5w5AEuCh7sVdfhn42SONZ8OTTX3IQGKKgu0+d2keSRgm+ZrbH7cVq+
t+HH85ch0KDixxl4Dv3uKZXQCkfnXRQNmhaWSGU=
-----END CERTIFICATE-----
