Certificate:
    Data:
        Version: 3 (0x2)
        Serial Number: 268435610 (0x1000009a)
    Signature Algorithm: sha1WithRSAEncryption
        Issuer: C=DE, ST=Hessen, O=privacyidea, CN=CA001
        Validity
            Not Before: Sep  7 19:16:17 2015 GMT
            Not After : Sep  6 19:16:17 2016 GMT
        Subject: CN=Steve Test/emailAddress=steve@openssl.org
        Subject Public Key Info:
            Public Key Algorithm: rsaEncryption
                Public-Key: (2048 bit)
                Modulus:
                    00:d2:81:89:20:51:48:0f:73:f4:11:32:24:d5:1f:
                    1c:fd:5c:f5:b6:e6:c5:f0:52:81:dc:d2:af:66:4a:
                    7c:93:31:61:5c:af:d1:6d:06:70:03:60:7c:72:0c:
                    88:dd:49:cd:9e:02:6c:d2:5a:d7:53:0f:f3:da:be:
                    69:64:b5:0f:0c:00:e3:b3:50:47:a3:b3:9b:ba:13:
                    50:d6:58:5a:4b:ab:39:e0:11:ca:0a:27:67:03:78:
                    22:66:6d:92:1e:1b:5c:49:ae:e6:6b:d1:8e:3b:9d:
                    06:d3:c6:ac:4d:53:43:10:ab:e8:96:c1:87:82:97:
                    99:8f:20:d3:99:12:37:31:84:e1:8a:ff:29:03:5f:
                    22:90:3e:7f:9b:e0:20:c1:ad:dc:ae:4c:39:1a:31:
                    96:17:02:8c:b2:d9:b4:0d:20:12:9b:7d:86:54:fd:
                    33:fd:c1:2a:62:46:f8:60:96:cf:6e:01:6f:22:df:
                    13:47:e7:97:ec:05:72:23:a3:62:f8:fa:ef:ac:9c:
                    72:f0:37:cb:2f:37:cf:90:a8:27:51:86:c6:d7:78:
                    08:8f:7e:25:a2:15:70:a2:fb:1c:b6:15:5e:a0:97:
                    8b:81:4c:09:28:8a:27:3b:94:bc:71:db:5b:71:37:
                    9a:2b:16:e0:6f:b5:c9:f5:4b:4f:20:ba:65:cf:af:
                    ad:ad
                Exponent: 65537 (0x10001)
        X509v3 extensions:
            X509v3 Key Usage: 
                Digital Signature, Key Encipherment
            X509v3 Basic Constraints: 
                CA:FALSE
            Netscape Cert Type: 
                SSL Server
            Netscape Comment: 
                OpenSSL Generated Server Certificate
            X509v3 Subject Key Identifier: 
                E5:25:6D:3E:AF:0D:DD:3F:4C:F2:45:19:39:D5:14:DB:7E:9C:C0:AD
            X509v3 Authority Key Identifier: 
                keyid:F4:A7:C0:CC:91:46:AF:64:F3:91:F2:27:F8:C8:B2:6F:8A:87:32:73
                DirName:/C=DE/ST=Hessen/O=privacyidea/CN=CA001
                serial:FB:C8:EB:AC:83:CD:12:07

            X509v3 Extended Key Usage: 
                TLS Web Server Authentication
    Signature Algorithm: sha1WithRSAEncryption
         48:c2:ea:76:71:a6:1a:8c:d7:de:3b:6d:6a:d4:a4:a7:2a:95:
         03:60:91:e9:cb:35:a2:f8:c9:bb:0a:54:bb:3c:f8:6e:c4:1c:
         3b:63:c0:c6:a3:ec:92:5a:0f:73:df:b3:f1:34:1d:b9:e0:f9:
         6b:e8:a2:0e:bd:4f:0b:65:33:a0:62:84:6d:6a:4a:c1:36:dc:
         23:d0:fd:12:19:1b:79:8f:83:ef:52:e1:18:15:c4:43:06:37:
         59:2c:3f:39:1b:84:15:6e:35:72:e8:7b:1e:65:b1:87:90:6f:
         68:6e:30:0e:b5:a6:21:a2:d4:b2:a0:b0:85:bd:25:3d:a2:9f:
         a5:c1:1c:ea:68:6c:b0:0c:7e:53:01:bb:74:43:f9:69:f6:f5:
         88:26:a2:db:e2:93:f5:7c:15:27:39:4c:14:77:30:8b:2c:d8:
         bc:3c:ed:6e:27:f2:54:15:55:41:fc:04:1b:9a:e1:94:22:2a:
         77:4e:a1:ae:87:97:1a:b8:82:80:a6:3e:4f:d7:d6:b9:b9:a2:
         bc:58:a4:81:d0:7f:b1:8e:f9:73:d5:f3:26:6f:1a:a8:2f:a3:
         11:9c:bb:dc:52:2a:e1:36:ec:9b:86:19:27:89:b0:c7:cd:90:
         7d:f5:05:14:63:f1:a0:ff:09:61:40:82:1e:14:33:dc:6e:62:
         ea:9f:ba:cc
-----BEGIN CERTIFICATE-----
MIIECTCCAvGgAwIBAgIEEAAAmjANBgkqhkiG9w0BAQUFADBEMQswCQYDVQQGEwJE
RTEPMA0GA1UECAwGSGVzc2VuMRQwEgYDVQQKDAtwcml2YWN5aWRlYTEOMAwGA1UE
AwwFQ0EwMDEwHhcNMTUwOTA3MTkxNjE3WhcNMTYwOTA2MTkxNjE3WjA3MRMwEQYD
VQQDEwpTdGV2ZSBUZXN0MSAwHgYJKoZIhvcNAQkBFhFzdGV2ZUBvcGVuc3NsLm9y
ZzCCASIwDQYJKoZIhvcNAQEBBQADggEPADCCAQoCggEBANKBiSBRSA9z9BEyJNUf
HP1c9bbmxfBSgdzSr2ZKfJMxYVyv0W0GcANgfHIMiN1JzZ4CbNJa11MP89q+aWS1
DwwA47NQR6Ozm7oTUNZYWkurOeARygonZwN4ImZtkh4bXEmu5mvRjjudBtPGrE1T
QxCr6JbBh4KXmY8g05kSNzGE4Yr/KQNfIpA+f5vgIMGt3K5MORoxlhcCjLLZtA0g
Ept9hlT9M/3BKmJG+GCWz24BbyLfE0fnl+wFciOjYvj676yccvA3yy83z5CoJ1GG
xtd4CI9+JaIVcKL7HLYVXqCXi4FMCSiKJzuUvHHbW3E3misW4G+1yfVLTyC6Zc+v
ra0CAwEAAaOCAQ4wggEKMAsGA1UdDwQEAwIFoDAJBgNVHRMEAjAAMBEGCWCGSAGG
+EIBAQQEAwIGQDAzBglghkgBhvhCAQ0EJhYkT3BlblNTTCBHZW5lcmF0ZWQgU2Vy
dmVyIENlcnRpZmljYXRlMB0GA1UdDgQWBBTlJW0+rw3dP0zyRRk51RTbfpzArTB0
BgNVHSMEbTBrgBT0p8DMkUavZPOR8if4yLJviocyc6FIpEYwRDELMAkGA1UEBhMC
REUxDzANBgNVBAgMBkhlc3NlbjEUMBIGA1UECgwLcHJpdmFjeWlkZWExDjAMBgNV
BAMMBUNBMDAxggkA+8jrrIPNEgcwEwYDVR0lBAwwCgYIKwYBBQUHAwEwDQYJKoZI
hvcNAQEFBQADggEBAEjC6nZxphqM1947bWrUpKcqlQNgkenLNaL4ybsKVLs8+G7E
HDtjwMaj7JJaD3Pfs/E0Hbng+Wvoog69TwtlM6BihG1qSsE23CPQ/RIZG3mPg+9S
4RgVxEMGN1ksPzkbhBVuNXLoex5lsYeQb2huMA61piGi1LKgsIW9JT2in6XBHOpo
bLAMflMBu3RD+Wn29Ygmotvik/V8FSc5TBR3MIss2Lw87W4n8lQVVUH8BBua4ZQi
KndOoa6Hlxq4goCmPk/X1rm5orxYpIHQf7GO+XPV8yZvGqgvoxGcu9xSKuE27JuG
GSeJsMfNkH31BRRj8aD/CWFAgh4UM9xuYuqfusw=
-----END CERTIFICATE-----
