Certificate:
    Data:
        Version: 3 (0x2)
        Serial Number: 268435612 (0x1000009c)
    Signature Algorithm: sha1WithRSAEncryption
        Issuer: C=DE, ST=Hessen, O=privacyidea, CN=CA001
        Validity
            Not Before: Sep  7 19:18:14 2015 GMT
            Not After : Sep  6 19:18:14 2016 GMT
        Subject: CN=selfservice,CN=user,O=realm1/emailAddress=meine
        Subject Public Key Info:
            Public Key Algorithm: rsaEncryption
                Public-Key: (2048 bit)
                Modulus:
                    00:cf:3c:d4:33:0e:12:c4:e6:da:cd:b6:56:a1:1c:
                    26:bb:26:1c:8a:4a:73:a8:58:8a:b6:1e:b3:8b:99:
                    d2:1d:07:c2:92:89:79:c0:69:d8:c8:df:28:61:98:
                    1e:b3:fe:ae:2b:bd:78:a9:f7:6e:47:dc:a3:a0:16:
                    8c:85:02:c1:4e:92:fd:72:6e:f0:c8:03:29:9b:b8:
                    00:6e:c0:83:95:c8:34:20:36:9c:b3:e5:e4:e6:76:
                    73:a3:1a:ad:40:96:e0:53:54:00:ec:76:79:9a:c6:
                    0d:7e:b6:bd:29:ec:83:f3:cb:89:a4:cb:6c:00:ba:
                    0c:c5:78:0f:ff:69:b8:94:f4:04:70:43:3f:d8:9e:
                    d7:a7:fb:5d:ce:75:8e:da:e7:c4:07:b1:9d:de:6f:
                    88:4b:b6:4d:9a:cf:f9:bc:fa:9f:cd:32:6d:f6:3a:
                    0b:0d:23:42:78:ec:97:42:bf:0e:4d:60:56:e1:d3:
                    02:f2:19:cb:84:57:90:e5:70:a1:a2:83:35:86:e2:
                    da:86:9f:f9:8a:c4:79:b3:52:28:da:cb:bb:34:ca:
                    d3:da:91:4a:cf:8d:76:a2:b2:6b:9b:f9:96:fd:09:
                    2a:da:11:23:4d:f0:cb:d6:b2:b1:0e:12:6c:9a:19:
                    65:98:87:ca:e4:ee:24:ce:44:ac:90:8f:9d:1b:c5:
                    2a:9d
                Exponent: 65537 (0x10001)
        X509v3 extensions:
            X509v3 Key Usage: 
                Digital Signature, Key Encipherment
            X509v3 Basic Constraints: 
                CA:FALSE
            Netscape Cert Type: 
                SSL Server
            Netscape Comment: 
                OpenSSL Generated Server Certificate
            X509v3 Subject Key Identifier: 
                4D:07:90:AD:FF:1D:0D:E7:1A:DD:D6:2E:FA:BA:34:CB:AA:1F:24:C6
            X509v3 Authority Key Identifier: 
                keyid:F4:A7:C0:CC:91:46:AF:64:F3:91:F2:27:F8:C8:B2:6F:8A:87:32:73
                DirName:/C=DE/ST=Hessen/O=privacyidea/CN=CA001
                serial:FB:C8:EB:AC:83:CD:12:07

            X509v3 Extended Key Usage: 
                TLS Web Server Authentication
    Signature Algorithm: sha1WithRSAEncryption
         26:c3:fa:53:48:3a:57:c4:1e:7b:d2:ec:d0:5d:61:e8:09:2a:
         f9:e0:ac:0c:90:84:df:6e:98:7b:9d:b6:45:93:bf:e3:51:f4:
         3f:90:99:f5:43:c2:62:46:78:3d:97:59:16:32:f8:d5:1f:ff:
         be:0c:c7:a3:ad:14:ea:f8:db:6f:5e:9a:e1:cf:7b:7a:b3:89:
         10:a5:8b:3b:c9:5f:7d:a0:b0:cc:c4:55:ba:5e:31:31:b9:7b:
         72:73:4b:eb:5b:48:a9:07:7b:2c:27:6a:da:f6:33:fd:a8:50:
         d7:42:e0:be:1f:df:a4:0a:73:94:95:46:4c:d8:c6:26:e5:70:
         20:9f:59:59:f3:2b:05:b4:b9:b9:37:30:80:69:c5:5b:f6:af:
         cd:57:12:b6:3e:0f:c7:c3:ad:8b:c7:74:91:0b:8a:d9:6f:53:
         98:d7:bb:21:16:b3:14:c7:28:32:23:54:08:66:fa:a4:2f:d2:
         d2:b0:05:b9:7b:c4:26:3b:11:82:67:5a:d2:67:14:ee:89:85:
         27:9d:9c:63:2d:b3:73:c8:85:b3:70:ec:eb:df:20:98:d2:fb:
         a3:cb:c2:c3:b2:99:41:e5:1f:f2:af:4c:d0:f2:3d:cf:c4:43:
         fd:57:ec:3f:57:e4:69:e5:85:75:72:1e:53:26:8f:a6:14:6b:
         a8:20:4c:68
-----BEGIN CERTIFICATE-----
MIIEDzCCAvegAwIBAgIEEAAAnDANBgkqhkiG9w0BAQUFADBEMQswCQYDVQQGEwJE
RTEPMA0GA1UECAwGSGVzc2VuMRQwEgYDVQQKDAtwcml2YWN5aWRlYTEOMAwGA1UE
AwwFQ0EwMDEwHhcNMTUwOTA3MTkxODE0WhcNMTYwOTA2MTkxODE0WjA9MSUwIwYD
VQQDExxzZWxmc2VydmljZSxDTj11c2VyLE89cmVhbG0xMRQwEgYJKoZIhvcNAQkB
FgVtZWluZTCCASIwDQYJKoZIhvcNAQEBBQADggEPADCCAQoCggEBAM881DMOEsTm
2s22VqEcJrsmHIpKc6hYirYes4uZ0h0HwpKJecBp2MjfKGGYHrP+riu9eKn3bkfc
o6AWjIUCwU6S/XJu8MgDKZu4AG7Ag5XINCA2nLPl5OZ2c6MarUCW4FNUAOx2eZrG
DX62vSnsg/PLiaTLbAC6DMV4D/9puJT0BHBDP9ie16f7Xc51jtrnxAexnd5viEu2
TZrP+bz6n80ybfY6Cw0jQnjsl0K/Dk1gVuHTAvIZy4RXkOVwoaKDNYbi2oaf+YrE
ebNSKNrLuzTK09qRSs+NdqKya5v5lv0JKtoRI03wy9aysQ4SbJoZZZiHyuTuJM5E
rJCPnRvFKp0CAwEAAaOCAQ4wggEKMAsGA1UdDwQEAwIFoDAJBgNVHRMEAjAAMBEG
CWCGSAGG+EIBAQQEAwIGQDAzBglghkgBhvhCAQ0EJhYkT3BlblNTTCBHZW5lcmF0
ZWQgU2VydmVyIENlcnRpZmljYXRlMB0GA1UdDgQWBBRNB5Ct/x0N5xrd1i76ujTL
qh8kxjB0BgNVHSMEbTBrgBT0p8DMkUavZPOR8if4yLJviocyc6FIpEYwRDELMAkG
A1UEBhMCREUxDzANBgNVBAgMBkhlc3NlbjEUMBIGA1UECgwLcHJpdmFjeWlkZWEx
DjAMBgNVBAMMBUNBMDAxggkA+8jrrIPNEgcwEwYDVR0lBAwwCgYIKwYBBQUHAwEw
DQYJKoZIhvcNAQEFBQADggEBACbD+lNIOlfEHnvS7NBdYegJKvngrAyQhN9umHud
tkWTv+NR9D+QmfVDwmJGeD2XWRYy+NUf/74Mx6OtFOr4229emuHPe3qziRClizvJ
X32gsMzEVbpeMTG5e3JzS+tbSKkHeywnatr2M/2oUNdC4L4f36QKc5SVRkzYxibl
cCCfWVnzKwW0ubk3MIBpxVv2r81XErY+D8fDrYvHdJELitlvU5jXuyEWsxTHKDIj
VAhm+qQv0tKwBbl7xCY7EYJnWtJnFO6JhSednGMts3PIhbNw7OvfIJjS+6PLwsOy
mUHlH/KvTNDyPc/EQ/1X7D9X5GnlhXVyHlMmj6YUa6ggTGg=
-----END CERTIFICATE-----
