Certificate:
    Data:
        Version: 3 (0x2)
        Serial Number: 268435611 (0x1000009b)
    Signature Algorithm: sha1WithRSAEncryption
        Issuer: C=DE, ST=Hessen, O=privacyidea, CN=CA001
        Validity
            Not Before: Sep  7 19:17:09 2015 GMT
            Not After : Sep  6 19:17:09 2016 GMT
        Subject: C=DE, ST=Hessen, O=privacyidea, CN=requester.localdomain
        Subject Public Key Info:
            Public Key Algorithm: rsaEncryption
                Public-Key: (2048 bit)
                Modulus:
                    00:cd:be:14:4f:fa:ce:01:3f:42:22:1b:1d:9c:af:
                    dd:92:d2:7f:db:6c:b7:3e:39:43:43:6b:13:03:f1:
                    05:f4:07:74:bc:76:69:28:0b:af:19:8e:d7:fc:e3:
                    cd:c6:58:f2:ca:7f:08:6d:53:fc:07:02:44:24:c6:
                    b4:34:4c:8c:04:fe:33:0e:40:e2:20:ba:02:73:5a:
                    f7:f5:4f:63:6e:cc:c6:b6:df:54:1d:37:39:7d:51:
                    36:26:5f:bd:dc:3f:a8:8b:6b:a2:ae:b6:9d:d6:21:
                    e7:df:41:b8:7a:28:2a:68:48:ca:a8:2d:ed:e1:e9:
                    46:5e:5a:72:6d:b4:84:38:87:91:fd:94:11:0b:28:
                    84:c6:c2:2f:2a:fb:01:f9:36:7a:09:75:d1:33:88:
                    3c:73:41:5b:c8:bf:94:89:70:a1:f0:c0:b9:2e:50:
                    53:1e:b1:17:64:69:f4:2d:81:e0:a9:0d:0e:32:e9:
                    ba:55:8a:85:f1:1b:6f:49:79:b4:7f:88:c3:0d:3e:
                    54:88:9b:3d:1f:38:8c:04:f3:ee:6a:63:2b:f5:c6:
                    db:b4:83:aa:c4:78:41:3a:7d:4b:e1:c8:3e:71:ca:
                    1b:61:59:ea:c6:c4:ca:32:5e:c9:e9:bf:12:29:e6:
                    c6:c3:63:fe:a0:55:da:7a:f1:60:98:4d:26:ed:fa:
                    70:2d
                Exponent: 65537 (0x10001)
        X509v3 extensions:
            X509v3 Key Usage: 
                Digital Signature, Key Encipherment
            X509v3 Basic Constraints: 
                CA:FALSE
            Netscape Cert Type: 
                SSL Server
            Netscape Comment: 
                OpenSSL Generated Server Certificate
            X509v3 Subject Key Identifier: 
                53:3F:ED:5D:09:07:B3:65:7B:AB:45:C9:24:5B:09:77:80:0A:96:ED
            X509v3 Authority Key Identifier: 
                keyid:F4:A7:C0:CC:91:46:AF:64:F3:91:F2:27:F8:C8:B2:6F:8A:87:32:73
                DirName:/C=DE/ST=Hessen/O=privacyidea/CN=CA001
                serial:FB:C8:EB:AC:83:CD:12:07

            X509v3 Extended Key Usage: 
                TLS Web Server Authentication
    Signature Algorithm: sha1WithRSAEncryption
         b0:03:1d:a2:df:58:bb:d2:23:44:25:bb:11:aa:24:5a:31:84:
         51:0c:da:8a:26:0d:6c:99:3b:3b:50:25:b4:2d:04:88:ba:d0:
         51:45:ce:f8:b5:78:c9:0c:d6:d9:e5:e7:49:5d:1e:94:74:ae:
         78:b6:bf:90:ae:25:d1:5b:2a:64:04:62:c2:f8:cf:b1:5d:f5:
         8d:8b:56:af:4e:55:ce:42:e9:f0:e5:77:16:68:5b:fe:70:4e:
         b4:9f:8b:4a:95:69:b7:bd:8b:dc:c2:3c:ca:b0:b9:6c:ba:1d:
         62:71:2a:d1:5d:5a:77:1b:ab:38:1d:3e:65:00:96:59:3b:60:
         9f:d1:c5:72:81:95:de:5a:78:fb:25:32:7d:2c:21:fd:aa:62:
         98:32:8a:8c:aa:c9:16:3d:35:6f:48:bd:db:5a:47:03:59:69:
         4b:44:04:48:5e:f5:5c:af:f2:14:e2:a4:77:be:3c:c5:33:f0:
         a0:4e:52:95:1b:00:f2:20:9a:e1:13:73:dc:19:24:40:db:82:
         4a:43:4f:8d:3b:2c:10:89:05:67:65:3c:8d:9d:80:db:fc:ef:
         38:7f:32:77:40:5c:ff:17:5f:2b:9a:6f:d0:2c:c2:fd:9a:5c:
         08:a2:12:b9:ea:ac:20:88:ec:7e:f6:cd:17:7c:bd:dd:21:90:
         55:b5:50:70
-----BEGIN CERTIFICATE-----
MIIEJjCCAw6gAwIBAgIEEAAAmzANBgkqhkiG9w0BAQUFADBEMQswCQYDVQQGEwJE
RTEPMA0GA1UECAwGSGVzc2VuMRQwEgYDVQQKDAtwcml2YWN5aWRlYTEOMAwGA1UE
AwwFQ0EwMDEwHhcNMTUwOTA3MTkxNzA5WhcNMTYwOTA2MTkxNzA5WjBUMQswCQYD
VQQGEwJERTEPMA0GA1UECAwGSGVzc2VuMRQwEgYDVQQKDAtwcml2YWN5aWRlYTEe
MBwGA1UEAwwVcmVxdWVzdGVyLmxvY2FsZG9tYWluMIIBIjANBgkqhkiG9w0BAQEF
AAOCAQ8AMIIBCgKCAQEAzb4UT/rOAT9CIhsdnK/dktJ/22y3PjlDQ2sTA/EF9Ad0
vHZpKAuvGY7X/OPNxljyyn8IbVP8BwJEJMa0NEyMBP4zDkDiILoCc1r39U9jbszG
tt9UHTc5fVE2Jl+93D+oi2uirrad1iHn30G4eigqaEjKqC3t4elGXlpybbSEOIeR
/ZQRCyiExsIvKvsB+TZ6CXXRM4g8c0FbyL+UiXCh8MC5LlBTHrEXZGn0LYHgqQ0O
Mum6VYqF8RtvSXm0f4jDDT5UiJs9HziMBPPuamMr9cbbtIOqxHhBOn1L4cg+ccob
YVnqxsTKMl7J6b8SKebGw2P+oFXaevFgmE0m7fpwLQIDAQABo4IBDjCCAQowCwYD
VR0PBAQDAgWgMAkGA1UdEwQCMAAwEQYJYIZIAYb4QgEBBAQDAgZAMDMGCWCGSAGG
+EIBDQQmFiRPcGVuU1NMIEdlbmVyYXRlZCBTZXJ2ZXIgQ2VydGlmaWNhdGUwHQYD
VR0OBBYEFFM/7V0JB7Nle6tFySRbCXeACpbtMHQGA1UdIwRtMGuAFPSnwMyRRq9k
85HyJ/jIsm+KhzJzoUikRjBEMQswCQYDVQQGEwJERTEPMA0GA1UECAwGSGVzc2Vu
MRQwEgYDVQQKDAtwcml2YWN5aWRlYTEOMAwGA1UEAwwFQ0EwMDGCCQD7yOusg80S
BzATBgNVHSUEDDAKBggrBgEFBQcDATANBgkqhkiG9w0BAQUFAAOCAQEAsAMdot9Y
u9IjRCW7EaokWjGEUQzaiiYNbJk7O1AltC0EiLrQUUXO+LV4yQzW2eXnSV0elHSu
eLa/kK4l0VsqZARiwvjPsV31jYtWr05VzkLp8OV3Fmhb/nBOtJ+LSpVpt72L3MI8
yrC5bLodYnEq0V1adxurOB0+ZQCWWTtgn9HFcoGV3lp4+yUyfSwh/apimDKKjKrJ
Fj01b0i921pHA1lpS0QESF71XK/yFOKkd748xTPwoE5SlRsA8iCa4RNz3BkkQNuC
SkNPjTssEIkFZ2U8jZ2A2/zvOH8yd0Bc/xdfK5pv0CzC/ZpcCKISueqsIIjsfvbN
F3y93SGQVbVQcA==
-----END CERTIFICATE-----
