Certificate:
    Data:
        Version: 3 (0x2)
        Serial Number: 268435614 (0x1000009e)
    Signature Algorithm: sha1WithRSAEncryption
        Issuer: C=DE, ST=Hessen, O=privacyidea, CN=CA001
        Validity
            Not Before: Aug 27 13:08:51 2015 GMT
            Not After : Aug 26 13:08:51 2016 GMT
        Subject: C=DE, ST=Hessen, O=privacyidea, CN=requester.localdomain
        Subject Public Key Info:
            Public Key Algorithm: rsaEncryption
                Public-Key: (2048 bit)
                Modulus:
                    00:cd:be:14:4f:fa:ce:01:3f:42:22:1b:1d:9c:af:
                    dd:92:d2:7f:db:6c:b7:3e:39:43:43:6b:13:03:f1:
                    05:f4:07:74:bc:76:69:28:0b:af:19:8e:d7:fc:e3:
                    cd:c6:58:f2:ca:7f:08:6d:53:fc:07:02:44:24:c6:
                    b4:34:4c:8c:04:fe:33:0e:40:e2:20:ba:02:73:5a:
                    f7:f5:4f:63:6e:cc:c6:b6:df:54:1d:37:39:7d:51:
                    36:26:5f:bd:dc:3f:a8:8b:6b:a2:ae:b6:9d:d6:21:
                    e7:df:41:b8:7a:28:2a:68:48:ca:a8:2d:ed:e1:e9:
                    46:5e:5a:72:6d:b4:84:38:87:91:fd:94:11:0b:28:
                    84:c6:c2:2f:2a:fb:01:f9:36:7a:09:75:d1:33:88:
                    3c:73:41:5b:c8:bf:94:89:70:a1:f0:c0:b9:2e:50:
                    53:1e:b1:17:64:69:f4:2d:81:e0:a9:0d:0e:32:e9:
                    ba:55:8a:85:f1:1b:6f:49:79:b4:7f:88:c3:0d:3e:
                    54:88:9b:3d:1f:38:8c:04:f3:ee:6a:63:2b:f5:c6:
                    db:b4:83:aa:c4:78:41:3a:7d:4b:e1:c8:3e:71:ca:
                    1b:61:59:ea:c6:c4:ca:32:5e:c9:e9:bf:12:29:e6:
                    c6:c3:63:fe:a0:55:da:7a:f1:60:98:4d:26:ed:fa:
                    70:2d
                Exponent: 65537 (0x10001)
        X509v3 extensions:
            X509v3 Key Usage: 
                Digital Signature, Key Encipherment
            X509v3 Basic Constraints: 
                CA:FALSE
            Netscape Cert Type: 
                SSL Server
            Netscape Comment: 
                OpenSSL Generated Server Certificate
            X509v3 Subject Key Identifier: 
                53:3F:ED:5D:09:07:B3:65:7B:AB:45:C9:24:5B:09:77:80:0A:96:ED
            X509v3 Authority Key Identifier: 
                keyid:F4:A7:C0:CC:91:46:AF:64:F3:91:F2:27:F8:C8:B2:6F:8A:87:32:73
                DirName:/C=DE/ST=Hessen/O=privacyidea/CN=CA001
                serial:FB:C8:EB:AC:83:CD:12:07

            X509v3 Extended Key Usage: 
                TLS Web Server Authentication
    Signature Algorithm: sha1WithRSAEncryption
         9a:b3:18:c2:3b:1e:7d:ba:44:2a:f0:fd:f4:6a:7c:7c:78:00:
         0c:c2:33:46:84:ff:a5:f0:6e:bc:f3:f0:3e:25:18:47:6e:b5:
         b8:b7:63:af:c8:3f:73:89:44:2f:84:19:63:d4:a9:48:d0:f2:
         62:98:4a:cc:af:95:7f:74:06:35:70:a6:3b:a3:89:bb:53:ed:
         21:66:f1:5b:6f:e4:a0:e7:76:ff:e3:4c:0e:5d:94:9a:2f:dc:
         87:59:68:fb:4b:d2:a7:a3:00:74:b1:ff:8c:bf:44:a4:d0:d7:
         e9:3a:fc:6a:60:84:76:06:67:83:66:75:c8:62:40:80:e6:b5:
         7e:de:11:ec:25:1c:7e:e8:49:7f:c4:4c:5d:51:bd:80:c7:06:
         2c:44:81:80:39:f6:36:1b:67:0d:e2:a5:c4:97:b4:36:05:e3:
         d9:7a:30:f3:42:74:48:70:1e:83:8b:4c:2b:e2:3d:6d:de:2f:
         6d:5c:3e:dc:af:45:17:ff:33:16:43:03:b1:e9:05:c0:ae:1e:
         6f:8e:d5:43:41:03:bb:d5:69:ee:ad:11:cb:c4:e9:24:50:4c:
         5a:5f:e0:42:ec:8b:92:7f:a7:a1:a7:18:93:7c:9f:96:e2:9e:
         04:95:20:12:af:e5:6a:d2:f3:76:23:e7:3c:b4:86:64:65:ca:
         9e:69:fe:5c
-----BEGIN CERTIFICATE-----
MIIEJjCCAw6gAwIBAgIEEAAAnjANBgkqhkiG9w0BAQUFADBEMQswCQYDVQQGEwJE
RTEPMA0GA1UECAwGSGVzc2VuMRQwEgYDVQQKDAtwcml2YWN5aWRlYTEOMAwGA1UE
AwwFQ0EwMDEwHhcNMTUwODI3MTMwODUxWhcNMTYwODI2MTMwODUxWjBUMQswCQYD
VQQGEwJERTEPMA0GA1UECAwGSGVzc2VuMRQwEgYDVQQKDAtwcml2YWN5aWRlYTEe
MBwGA1UEAwwVcmVxdWVzdGVyLmxvY2FsZG9tYWluMIIBIjANBgkqhkiG9w0BAQEF
AAOCAQ8AMIIBCgKCAQEAzb4UT/rOAT9CIhsdnK/dktJ/22y3PjlDQ2sTA/EF9Ad0
vHZpKAuvGY7X/OPNxljyyn8IbVP8BwJEJMa0NEyMBP4zDkDiILoCc1r39U9jbszG
tt9UHTc5fVE2Jl+93D+oi2uirrad1iHn30G4eigqaEjKqC3t4elGXlpybbSEOIeR
/ZQRCyiExsIvKvsB+TZ6CXXRM4g8c0FbyL+UiXCh8MC5LlBTHrEXZGn0LYHgqQ0O
Mum6VYqF8RtvSXm0f4jDDT5UiJs9HziMBPPuamMr9cbbtIOqxHhBOn1L4cg+ccob
YVnqxsTKMl7J6b8SKebGw2P+oFXaevFgmE0m7fpwLQIDAQABo4IBDjCCAQowCwYD
VR0PBAQDAgWgMAkGA1UdEwQCMAAwEQYJYIZIAYb4QgEBBAQDAgZAMDMGCWCGSAGG
+EIBDQQmFiRPcGVuU1NMIEdlbmVyYXRlZCBTZXJ2ZXIgQ2VydGlmaWNhdGUwHQYD
VR0OBBYEFFM/7V0JB7Nle6tFySRbCXeACpbtMHQGA1UdIwRtMGuAFPSnwMyRRq9k
85HyJ/jIsm+KhzJzoUikRjBEMQswCQYDVQQGEwJERTEPMA0GA1UECAwGSGVzc2Vu
MRQwEgYDVQQKDAtwcml2YWN5aWRlYTEOMAwGA1UEAwwFQ0EwMDGCCQD7yOusg80S
BzATBgNVHSUEDDAKBggrBgEFBQcDATANBgkqhkiG9w0BAQUFAAOCAQEAmrMYwjse
fbpEKvD99Gp8fHgADMIzRoT/pfBuvPPwPiUYR261uLdjr8g/c4lEL4QZY9SpSNDy
YphKzK+Vf3QGNXCmO6OJu1PtIWbxW2/koOd2/+NMDl2Umi/ch1lo+0vSp6MAdLH/
jL9EpNDX6Tr8amCEdgZng2Z1yGJAgOa1ft4R7CUcfuhJf8RMXVG9gMcGLESBgDn2
NhtnDeKlxJe0NgXj2Xow80J0SHAeg4tMK+I9bd4vbVw+3K9FF/8zFkMDsekFwK4e
b47VQ0EDu9Vp7q0Ry8TpJFBMWl/gQuyLkn+noacYk3yfluKeBJUgEq/latLzdiPn
PLSGZGXKnmn+XA==
-----END CERTIFICATE-----
