Certificate:
    Data:
        Version: 3 (0x2)
        Serial Number: 268435611 (0x1000009b)
    Signature Algorithm: sha1WithRSAEncryption
        Issuer: C=DE, ST=Hessen, O=privacyidea, CN=CA001
        Validity
            Not Before: Aug 31 10:46:48 2015 GMT
            Not After : Aug 30 10:46:48 2016 GMT
        Subject: C=DE, ST=Hessen, O=privacyidea, CN=requester.localdomain
        Subject Public Key Info:
            Public Key Algorithm: rsaEncryption
                Public-Key: (2048 bit)
                Modulus:
                    00:cd:be:14:4f:fa:ce:01:3f:42:22:1b:1d:9c:af:
                    dd:92:d2:7f:db:6c:b7:3e:39:43:43:6b:13:03:f1:
                    05:f4:07:74:bc:76:69:28:0b:af:19:8e:d7:fc:e3:
                    cd:c6:58:f2:ca:7f:08:6d:53:fc:07:02:44:24:c6:
                    b4:34:4c:8c:04:fe:33:0e:40:e2:20:ba:02:73:5a:
                    f7:f5:4f:63:6e:cc:c6:b6:df:54:1d:37:39:7d:51:
                    36:26:5f:bd:dc:3f:a8:8b:6b:a2:ae:b6:9d:d6:21:
                    e7:df:41:b8:7a:28:2a:68:48:ca:a8:2d:ed:e1:e9:
                    46:5e:5a:72:6d:b4:84:38:87:91:fd:94:11:0b:28:
                    84:c6:c2:2f:2a:fb:01:f9:36:7a:09:75:d1:33:88:
                    3c:73:41:5b:c8:bf:94:89:70:a1:f0:c0:b9:2e:50:
                    53:1e:b1:17:64:69:f4:2d:81:e0:a9:0d:0e:32:e9:
                    ba:55:8a:85:f1:1b:6f:49:79:b4:7f:88:c3:0d:3e:
                    54:88:9b:3d:1f:38:8c:04:f3:ee:6a:63:2b:f5:c6:
                    db:b4:83:aa:c4:78:41:3a:7d:4b:e1:c8:3e:71:ca:
                    1b:61:59:ea:c6:c4:ca:32:5e:c9:e9:bf:12:29:e6:
                    c6:c3:63:fe:a0:55:da:7a:f1:60:98:4d:26:ed:fa:
                    70:2d
                Exponent: 65537 (0x10001)
        X509v3 extensions:
            X509v3 Key Usage: 
                Digital Signature, Key Encipherment
            X509v3 Basic Constraints: 
                CA:FALSE
            Netscape Cert Type: 
                SSL Server
            Netscape Comment: 
                OpenSSL Generated Server Certificate
            X509v3 Subject Key Identifier: 
                53:3F:ED:5D:09:07:B3:65:7B:AB:45:C9:24:5B:09:77:80:0A:96:ED
            X509v3 Authority Key Identifier: 
                keyid:F4:A7:C0:CC:91:46:AF:64:F3:91:F2:27:F8:C8:B2:6F:8A:87:32:73
                DirName:/C=DE/ST=Hessen/O=privacyidea/CN=CA001
                serial:FB:C8:EB:AC:83:CD:12:07

            X509v3 Extended Key Usage: 
                TLS Web Server Authentication
    Signature Algorithm: sha1WithRSAEncryption
         37:d9:2f:b8:e0:08:b2:0e:17:4a:26:9c:02:99:b9:ac:2f:3b:
         82:75:6c:a9:85:39:7e:50:92:c9:4c:f3:c8:49:66:14:f1:66:
         b3:62:e1:47:b9:04:ff:dd:65:e4:e3:a8:29:60:a9:41:a7:c6:
         0d:34:4c:e9:ba:49:b2:35:cd:9e:8c:69:7c:56:6f:45:66:69:
         b6:c2:61:6a:e6:7c:68:1a:b4:8f:14:2a:3c:71:a0:83:26:18:
         99:a8:1b:11:e5:fd:f9:29:c1:f2:43:a1:75:38:fb:3e:4a:49:
         6a:ec:74:ed:b6:03:8c:1a:3e:90:96:a7:ce:8e:8f:52:fa:f5:
         d1:a8:b3:de:42:ab:d7:4c:3b:ed:ae:63:11:bb:99:ad:3a:f3:
         fb:82:31:2a:f3:39:07:1c:41:c8:ad:8d:96:9f:a9:d2:67:5c:
         4d:d3:85:74:22:9a:cf:a1:0a:85:9a:35:82:7b:2e:50:ac:a7:
         3c:d2:35:94:58:4e:02:f7:8c:d3:29:5b:24:ad:99:1a:a8:35:
         78:11:dc:f6:fe:32:71:b0:67:52:fe:38:50:b7:5d:88:21:31:
         47:64:34:5e:29:d0:5a:c8:8d:ca:f9:df:18:69:25:ae:39:e3:
         d4:7e:c6:22:72:34:e6:65:65:b9:6a:cd:69:d7:82:85:75:20:
         7e:c3:12:16
-----BEGIN CERTIFICATE-----
MIIEJjCCAw6gAwIBAgIEEAAAmzANBgkqhkiG9w0BAQUFADBEMQswCQYDVQQGEwJE
RTEPMA0GA1UECAwGSGVzc2VuMRQwEgYDVQQKDAtwcml2YWN5aWRlYTEOMAwGA1UE
AwwFQ0EwMDEwHhcNMTUwODMxMTA0NjQ4WhcNMTYwODMwMTA0NjQ4WjBUMQswCQYD
VQQGEwJERTEPMA0GA1UECAwGSGVzc2VuMRQwEgYDVQQKDAtwcml2YWN5aWRlYTEe
MBwGA1UEAwwVcmVxdWVzdGVyLmxvY2FsZG9tYWluMIIBIjANBgkqhkiG9w0BAQEF
AAOCAQ8AMIIBCgKCAQEAzb4UT/rOAT9CIhsdnK/dktJ/22y3PjlDQ2sTA/EF9Ad0
vHZpKAuvGY7X/OPNxljyyn8IbVP8BwJEJMa0NEyMBP4zDkDiILoCc1r39U9jbszG
tt9UHTc5fVE2Jl+93D+oi2uirrad1iHn30G4eigqaEjKqC3t4elGXlpybbSEOIeR
/ZQRCyiExsIvKvsB+TZ6CXXRM4g8c0FbyL+UiXCh8MC5LlBTHrEXZGn0LYHgqQ0O
Mum6VYqF8RtvSXm0f4jDDT5UiJs9HziMBPPuamMr9cbbtIOqxHhBOn1L4cg+ccob
YVnqxsTKMl7J6b8SKebGw2P+oFXaevFgmE0m7fpwLQIDAQABo4IBDjCCAQowCwYD
VR0PBAQDAgWgMAkGA1UdEwQCMAAwEQYJYIZIAYb4QgEBBAQDAgZAMDMGCWCGSAGG
+EIBDQQmFiRPcGVuU1NMIEdlbmVyYXRlZCBTZXJ2ZXIgQ2VydGlmaWNhdGUwHQYD
VR0OBBYEFFM/7V0JB7Nle6tFySRbCXeACpbtMHQGA1UdIwRtMGuAFPSnwMyRRq9k
85HyJ/jIsm+KhzJzoUikRjBEMQswCQYDVQQGEwJERTEPMA0GA1UECAwGSGVzc2Vu
MRQwEgYDVQQKDAtwcml2YWN5aWRlYTEOMAwGA1UEAwwFQ0EwMDGCCQD7yOusg80S
BzATBgNVHSUEDDAKBggrBgEFBQcDATANBgkqhkiG9w0BAQUFAAOCAQEAN9kvuOAI
sg4XSiacApm5rC87gnVsqYU5flCSyUzzyElmFPFms2LhR7kE/91l5OOoKWCpQafG
DTRM6bpJsjXNnoxpfFZvRWZptsJhauZ8aBq0jxQqPHGggyYYmagbEeX9+SnB8kOh
dTj7PkpJaux07bYDjBo+kJanzo6PUvr10aiz3kKr10w77a5jEbuZrTrz+4IxKvM5
BxxByK2Nlp+p0mdcTdOFdCKaz6EKhZo1gnsuUKynPNI1lFhOAveM0ylbJK2ZGqg1
eBHc9v4ycbBnUv44ULddiCExR2Q0XinQWsiNyvnfGGklrjnj1H7GInI05mVluWrN
adeChXUgfsMSFg==
-----END CERTIFICATE-----
