Certificate:
    Data:
        Version: 3 (0x2)
        Serial Number: 268435612 (0x1000009c)
    Signature Algorithm: sha1WithRSAEncryption
        Issuer: C=DE, ST=Hessen, O=privacyidea, CN=CA001
        Validity
            Not Before: Aug 31 10:47:37 2015 GMT
            Not After : Aug 30 10:47:37 2016 GMT
        Subject: CN=selfservice,CN=user,O=realm1/emailAddress=meine
        Subject Public Key Info:
            Public Key Algorithm: rsaEncryption
                Public-Key: (2048 bit)
                Modulus:
                    00:cf:3c:d4:33:0e:12:c4:e6:da:cd:b6:56:a1:1c:
                    26:bb:26:1c:8a:4a:73:a8:58:8a:b6:1e:b3:8b:99:
                    d2:1d:07:c2:92:89:79:c0:69:d8:c8:df:28:61:98:
                    1e:b3:fe:ae:2b:bd:78:a9:f7:6e:47:dc:a3:a0:16:
                    8c:85:02:c1:4e:92:fd:72:6e:f0:c8:03:29:9b:b8:
                    00:6e:c0:83:95:c8:34:20:36:9c:b3:e5:e4:e6:76:
                    73:a3:1a:ad:40:96:e0:53:54:00:ec:76:79:9a:c6:
                    0d:7e:b6:bd:29:ec:83:f3:cb:89:a4:cb:6c:00:ba:
                    0c:c5:78:0f:ff:69:b8:94:f4:04:70:43:3f:d8:9e:
                    d7:a7:fb:5d:ce:75:8e:da:e7:c4:07:b1:9d:de:6f:
                    88:4b:b6:4d:9a:cf:f9:bc:fa:9f:cd:32:6d:f6:3a:
                    0b:0d:23:42:78:ec:97:42:bf:0e:4d:60:56:e1:d3:
                    02:f2:19:cb:84:57:90:e5:70:a1:a2:83:35:86:e2:
                    da:86:9f:f9:8a:c4:79:b3:52:28:da:cb:bb:34:ca:
                    d3:da:91:4a:cf:8d:76:a2:b2:6b:9b:f9:96:fd:09:
                    2a:da:11:23:4d:f0:cb:d6:b2:b1:0e:12:6c:9a:19:
                    65:98:87:ca:e4:ee:24:ce:44:ac:90:8f:9d:1b:c5:
                    2a:9d
                Exponent: 65537 (0x10001)
        X509v3 extensions:
            X509v3 Key Usage: 
                Digital Signature, Key Encipherment
            X509v3 Basic Constraints: 
                CA:FALSE
            Netscape Cert Type: 
                SSL Server
            Netscape Comment: 
                OpenSSL Generated Server Certificate
            X509v3 Subject Key Identifier: 
                4D:07:90:AD:FF:1D:0D:E7:1A:DD:D6:2E:FA:BA:34:CB:AA:1F:24:C6
            X509v3 Authority Key Identifier: 
                keyid:F4:A7:C0:CC:91:46:AF:64:F3:91:F2:27:F8:C8:B2:6F:8A:87:32:73
                DirName:/C=DE/ST=Hessen/O=privacyidea/CN=CA001
                serial:FB:C8:EB:AC:83:CD:12:07

            X509v3 Extended Key Usage: 
                TLS Web Server Authentication
    Signature Algorithm: sha1WithRSAEncryption
         b1:db:d6:a3:7f:dc:87:09:f7:84:7f:1a:4f:b9:31:f1:8a:b6:
         0a:16:54:0f:cd:6b:80:77:d6:58:be:81:20:bb:ac:e6:73:7f:
         0a:25:52:4a:b0:00:01:ab:70:ee:82:d8:c2:65:37:77:f6:ce:
         e2:a7:50:b8:03:de:2a:81:96:89:26:1f:42:e1:d0:ea:5f:73:
         a1:bf:63:fd:52:08:4e:da:81:86:2d:19:71:36:68:2a:7a:92:
         4d:d0:10:87:b4:24:e5:68:7f:bb:09:69:31:ee:99:66:35:72:
         f9:f7:34:4b:85:25:ae:7a:7b:78:45:9c:71:01:31:f5:15:c3:
         54:6f:38:d5:51:0c:c1:a4:28:e3:82:0e:7d:c6:3a:90:21:98:
         33:ed:f2:4b:48:07:50:88:c4:61:52:b8:59:97:5e:6c:78:63:
         d0:4b:4b:55:3d:bb:cb:fd:12:15:47:0e:58:a8:d2:e9:a6:98:
         f2:ea:c4:29:bb:f8:58:6e:c8:02:45:6c:a9:dd:14:0c:5a:bb:
         dd:d2:0c:20:60:85:f6:aa:00:a3:29:45:28:8a:d9:95:58:6f:
         38:03:77:1c:c0:45:66:8f:05:41:53:8d:6f:37:2b:bc:6d:10:
         31:42:ff:89:88:70:5b:75:26:8f:4e:48:50:a2:98:7a:b8:bd:
         c7:98:95:56
-----BEGIN CERTIFICATE-----
MIIEDzCCAvegAwIBAgIEEAAAnDANBgkqhkiG9w0BAQUFADBEMQswCQYDVQQGEwJE
RTEPMA0GA1UECAwGSGVzc2VuMRQwEgYDVQQKDAtwcml2YWN5aWRlYTEOMAwGA1UE
AwwFQ0EwMDEwHhcNMTUwODMxMTA0NzM3WhcNMTYwODMwMTA0NzM3WjA9MSUwIwYD
VQQDExxzZWxmc2VydmljZSxDTj11c2VyLE89cmVhbG0xMRQwEgYJKoZIhvcNAQkB
FgVtZWluZTCCASIwDQYJKoZIhvcNAQEBBQADggEPADCCAQoCggEBAM881DMOEsTm
2s22VqEcJrsmHIpKc6hYirYes4uZ0h0HwpKJecBp2MjfKGGYHrP+riu9eKn3bkfc
o6AWjIUCwU6S/XJu8MgDKZu4AG7Ag5XINCA2nLPl5OZ2c6MarUCW4FNUAOx2eZrG
DX62vSnsg/PLiaTLbAC6DMV4D/9puJT0BHBDP9ie16f7Xc51jtrnxAexnd5viEu2
TZrP+bz6n80ybfY6Cw0jQnjsl0K/Dk1gVuHTAvIZy4RXkOVwoaKDNYbi2oaf+YrE
ebNSKNrLuzTK09qRSs+NdqKya5v5lv0JKtoRI03wy9aysQ4SbJoZZZiHyuTuJM5E
rJCPnRvFKp0CAwEAAaOCAQ4wggEKMAsGA1UdDwQEAwIFoDAJBgNVHRMEAjAAMBEG
CWCGSAGG+EIBAQQEAwIGQDAzBglghkgBhvhCAQ0EJhYkT3BlblNTTCBHZW5lcmF0
ZWQgU2VydmVyIENlcnRpZmljYXRlMB0GA1UdDgQWBBRNB5Ct/x0N5xrd1i76ujTL
qh8kxjB0BgNVHSMEbTBrgBT0p8DMkUavZPOR8if4yLJviocyc6FIpEYwRDELMAkG
A1UEBhMCREUxDzANBgNVBAgMBkhlc3NlbjEUMBIGA1UECgwLcHJpdmFjeWlkZWEx
DjAMBgNVBAMMBUNBMDAxggkA+8jrrIPNEgcwEwYDVR0lBAwwCgYIKwYBBQUHAwEw
DQYJKoZIhvcNAQEFBQADggEBALHb1qN/3IcJ94R/Gk+5MfGKtgoWVA/Na4B31li+
gSC7rOZzfwolUkqwAAGrcO6C2MJlN3f2zuKnULgD3iqBlokmH0Lh0Opfc6G/Y/1S
CE7agYYtGXE2aCp6kk3QEIe0JOVof7sJaTHumWY1cvn3NEuFJa56e3hFnHEBMfUV
w1RvONVRDMGkKOOCDn3GOpAhmDPt8ktIB1CIxGFSuFmXXmx4Y9BLS1U9u8v9EhVH
Dlio0ummmPLqxCm7+FhuyAJFbKndFAxau93SDCBghfaqAKMpRSiK2ZVYbzgDdxzA
RWaPBUFTjW83K7xtEDFC/4mIcFt1Jo9OSFCimHq4vceYlVY=
-----END CERTIFICATE-----
