Certificate:
    Data:
        Version: 3 (0x2)
        Serial Number: 268435634 (0x100000b2)
    Signature Algorithm: sha1WithRSAEncryption
        Issuer: C=DE, ST=Hessen, O=privacyidea, CN=CA001
        Validity
            Not Before: Jun 18 14:19:41 2015 GMT
            Not After : Jun 17 14:19:41 2016 GMT
        Subject: CN=admin,CN=admin,O=/emailAddress=meine
        Subject Public Key Info:
            Public Key Algorithm: rsaEncryption
                Public-Key: (2048 bit)
                Modulus:
                    00:ca:fe:8c:40:36:e0:9b:79:ea:8f:3c:ab:8c:26:
                    75:9c:cd:52:96:fc:5e:25:d0:f6:8d:f6:d8:7b:dc:
                    98:d3:d4:e0:33:c0:39:b2:eb:1e:8c:6b:90:28:40:
                    74:fe:5c:fb:3b:78:34:d1:81:ea:65:95:a4:f3:15:
                    74:23:98:27:1b:c1:78:28:07:e9:10:6b:56:92:d9:
                    4d:d7:01:85:97:ca:22:1b:7b:4d:6c:3a:4f:6c:3c:
                    a8:98:b2:e2:3c:fb:54:3c:0d:10:cd:9b:68:8e:0d:
                    bf:b5:4a:f2:ea:4a:cf:66:36:32:1d:47:56:d3:51:
                    40:db:cb:5f:49:1c:ca:df:e7:d6:7d:b0:14:e2:bf:
                    f6:a8:65:4e:73:74:5e:bb:a7:84:d5:21:1f:e3:e4:
                    11:c7:3c:89:b9:8a:be:14:db:b9:38:1b:c3:40:2f:
                    61:01:14:88:43:a2:f3:a8:de:72:83:77:3c:97:4d:
                    6a:22:e5:19:8f:11:78:19:6c:48:c3:db:19:74:b6:
                    5d:ad:fb:b4:82:96:8e:9a:3b:3b:1d:3c:0e:5d:41:
                    05:33:bf:a9:a6:e6:ce:0a:74:a7:28:f8:0a:aa:35:
                    ac:14:ae:a6:9b:21:33:06:07:c2:41:30:b0:74:f6:
                    58:e3:f5:a2:ca:f0:94:91:ee:1d:a5:9b:3e:b7:c2:
                    19:47
                Exponent: 65537 (0x10001)
        X509v3 extensions:
            X509v3 Key Usage: 
                Digital Signature, Key Encipherment
            X509v3 Basic Constraints: 
                CA:FALSE
            Netscape Cert Type: 
                SSL Server
            Netscape Comment: 
                OpenSSL Generated Server Certificate
            X509v3 Subject Key Identifier: 
                D7:60:69:F4:D9:73:5F:28:5D:86:0A:62:01:74:45:93:91:EC:56:32
            X509v3 Authority Key Identifier: 
                keyid:F4:A7:C0:CC:91:46:AF:64:F3:91:F2:27:F8:C8:B2:6F:8A:87:32:73
                DirName:/C=DE/ST=Hessen/O=privacyidea/CN=CA001
                serial:FB:C8:EB:AC:83:CD:12:07

            X509v3 Extended Key Usage: 
                TLS Web Server Authentication
    Signature Algorithm: sha1WithRSAEncryption
         7b:c1:30:4c:cd:0a:ce:4f:d3:5f:7b:7f:5c:6b:c8:36:f4:e1:
         28:22:cb:6c:0d:e1:5d:40:29:b2:e6:58:88:8c:4b:e4:4a:e1:
         53:d1:74:70:5a:dd:bc:d3:aa:98:84:a5:a1:4b:d7:e4:68:1a:
         0f:7c:7c:4e:f6:27:c1:ba:ed:0e:b9:54:dc:0e:67:b1:7c:61:
         bc:f9:e6:21:d3:fa:1c:40:f5:eb:d6:13:b1:e4:a4:d3:59:e0:
         07:a4:3b:14:eb:bd:98:57:56:18:17:22:a1:54:0a:ba:13:1e:
         34:e2:11:d5:fb:44:5f:2c:28:ba:98:ad:5b:5d:b7:bb:43:f4:
         f1:35:c0:bf:3b:f9:15:22:3d:19:39:b5:8d:a4:e3:6e:ae:fc:
         07:39:32:c5:48:c8:ba:91:c6:ce:17:9c:9e:7f:84:18:a1:60:
         fc:46:59:74:5c:c1:9b:5e:19:53:ff:00:c2:6a:93:18:60:40:
         b1:25:f1:55:3d:15:56:91:1a:83:37:0f:e6:85:3b:56:5b:df:
         a4:26:0b:11:5e:00:c5:56:4a:f8:d0:3e:05:87:49:00:aa:2b:
         93:d6:02:1e:5f:12:29:d3:08:bb:12:aa:37:e5:93:f4:23:90:
         47:9f:3b:2b:16:79:45:25:01:c2:a7:2c:47:aa:70:ac:da:ab:
         8c:f7:4d:5b
-----BEGIN CERTIFICATE-----
MIIEBDCCAuygAwIBAgIEEAAAsjANBgkqhkiG9w0BAQUFADBEMQswCQYDVQQGEwJE
RTEPMA0GA1UECAwGSGVzc2VuMRQwEgYDVQQKDAtwcml2YWN5aWRlYTEOMAwGA1UE
AwwFQ0EwMDEwHhcNMTUwNjE4MTQxOTQxWhcNMTYwNjE3MTQxOTQxWjAyMRowGAYD
VQQDExFhZG1pbixDTj1hZG1pbixPPTEUMBIGCSqGSIb3DQEJARYFbWVpbmUwggEi
MA0GCSqGSIb3DQEBAQUAA4IBDwAwggEKAoIBAQDK/oxANuCbeeqPPKuMJnWczVKW
/F4l0PaN9th73JjT1OAzwDmy6x6Ma5AoQHT+XPs7eDTRgepllaTzFXQjmCcbwXgo
B+kQa1aS2U3XAYWXyiIbe01sOk9sPKiYsuI8+1Q8DRDNm2iODb+1SvLqSs9mNjId
R1bTUUDby19JHMrf59Z9sBTiv/aoZU5zdF67p4TVIR/j5BHHPIm5ir4U27k4G8NA
L2EBFIhDovOo3nKDdzyXTWoi5RmPEXgZbEjD2xl0tl2t+7SClo6aOzsdPA5dQQUz
v6mm5s4KdKco+AqqNawUrqabITMGB8JBMLB09ljj9aLK8JSR7h2lmz63whlHAgMB
AAGjggEOMIIBCjALBgNVHQ8EBAMCBaAwCQYDVR0TBAIwADARBglghkgBhvhCAQEE
BAMCBkAwMwYJYIZIAYb4QgENBCYWJE9wZW5TU0wgR2VuZXJhdGVkIFNlcnZlciBD
ZXJ0aWZpY2F0ZTAdBgNVHQ4EFgQU12Bp9NlzXyhdhgpiAXRFk5HsVjIwdAYDVR0j
BG0wa4AU9KfAzJFGr2TzkfIn+Miyb4qHMnOhSKRGMEQxCzAJBgNVBAYTAkRFMQ8w
DQYDVQQIDAZIZXNzZW4xFDASBgNVBAoMC3ByaXZhY3lpZGVhMQ4wDAYDVQQDDAVD
QTAwMYIJAPvI66yDzRIHMBMGA1UdJQQMMAoGCCsGAQUFBwMBMA0GCSqGSIb3DQEB
BQUAA4IBAQB7wTBMzQrOT9Nfe39ca8g29OEoIstsDeFdQCmy5liIjEvkSuFT0XRw
Wt2806qYhKWhS9fkaBoPfHxO9ifBuu0OuVTcDmexfGG8+eYh0/ocQPXr1hOx5KTT
WeAHpDsU672YV1YYFyKhVAq6Ex404hHV+0RfLCi6mK1bXbe7Q/TxNcC/O/kVIj0Z
ObWNpONurvwHOTLFSMi6kcbOF5yef4QYoWD8Rll0XMGbXhlT/wDCapMYYECxJfFV
PRVWkRqDNw/mhTtWW9+kJgsRXgDFVkr40D4Fh0kAqiuT1gIeXxIp0wi7Eqo35ZP0
I5BHnzsrFnlFJQHCpyxHqnCs2quM901b
-----END CERTIFICATE-----
