Certificate:
    Data:
        Version: 3 (0x2)
        Serial Number: 268435610 (0x1000009a)
    Signature Algorithm: sha1WithRSAEncryption
        Issuer: C=DE, ST=Hessen, O=privacyidea, CN=CA001
        Validity
            Not Before: Aug 31 10:46:02 2015 GMT
            Not After : Aug 30 10:46:02 2016 GMT
        Subject: CN=Steve Test/emailAddress=steve@openssl.org
        Subject Public Key Info:
            Public Key Algorithm: rsaEncryption
                Public-Key: (2048 bit)
                Modulus:
                    00:d2:81:89:20:51:48:0f:73:f4:11:32:24:d5:1f:
                    1c:fd:5c:f5:b6:e6:c5:f0:52:81:dc:d2:af:66:4a:
                    7c:93:31:61:5c:af:d1:6d:06:70:03:60:7c:72:0c:
                    88:dd:49:cd:9e:02:6c:d2:5a:d7:53:0f:f3:da:be:
                    69:64:b5:0f:0c:00:e3:b3:50:47:a3:b3:9b:ba:13:
                    50:d6:58:5a:4b:ab:39:e0:11:ca:0a:27:67:03:78:
                    22:66:6d:92:1e:1b:5c:49:ae:e6:6b:d1:8e:3b:9d:
                    06:d3:c6:ac:4d:53:43:10:ab:e8:96:c1:87:82:97:
                    99:8f:20:d3:99:12:37:31:84:e1:8a:ff:29:03:5f:
                    22:90:3e:7f:9b:e0:20:c1:ad:dc:ae:4c:39:1a:31:
                    96:17:02:8c:b2:d9:b4:0d:20:12:9b:7d:86:54:fd:
                    33:fd:c1:2a:62:46:f8:60:96:cf:6e:01:6f:22:df:
                    13:47:e7:97:ec:05:72:23:a3:62:f8:fa:ef:ac:9c:
                    72:f0:37:cb:2f:37:cf:90:a8:27:51:86:c6:d7:78:
                    08:8f:7e:25:a2:15:70:a2:fb:1c:b6:15:5e:a0:97:
                    8b:81:4c:09:28:8a:27:3b:94:bc:71:db:5b:71:37:
                    9a:2b:16:e0:6f:b5:c9:f5:4b:4f:20:ba:65:cf:af:
                    ad:ad
                Exponent: 65537 (0x10001)
        X509v3 extensions:
            X509v3 Key Usage: 
                Digital Signature, Key Encipherment
            X509v3 Basic Constraints: 
                CA:FALSE
            Netscape Cert Type: 
                SSL Server
            Netscape Comment: 
                OpenSSL Generated Server Certificate
            X509v3 Subject Key Identifier: 
                E5:25:6D:3E:AF:0D:DD:3F:4C:F2:45:19:39:D5:14:DB:7E:9C:C0:AD
            X509v3 Authority Key Identifier: 
                keyid:F4:A7:C0:CC:91:46:AF:64:F3:91:F2:27:F8:C8:B2:6F:8A:87:32:73
                DirName:/C=DE/ST=Hessen/O=privacyidea/CN=CA001
                serial:FB:C8:EB:AC:83:CD:12:07

            X509v3 Extended Key Usage: 
                TLS Web Server Authentication
    Signature Algorithm: sha1WithRSAEncryption
         9f:39:1e:66:0f:fa:55:28:b0:21:fc:69:89:8e:de:bb:f7:4b:
         b8:70:96:d3:76:94:54:7f:a3:5a:94:c2:1c:f2:31:a3:59:12:
         00:d4:a5:63:c9:70:eb:9d:72:b8:19:04:99:4c:cb:4d:4a:20:
         20:9d:c0:07:e5:b3:f6:9d:12:9e:fa:c3:2e:45:9c:e5:43:ab:
         7d:f7:75:2a:4d:b2:aa:fd:87:c0:6c:5f:a7:35:b4:f2:56:94:
         6f:fa:0d:d0:85:4d:7c:d6:e7:a6:1b:01:cd:52:17:a8:5d:08:
         8b:42:1b:b2:8c:06:35:2b:fd:6f:90:79:3f:96:6d:08:dd:1c:
         fc:58:df:83:a0:da:9d:94:b7:f2:de:b1:a9:bd:01:85:f7:66:
         a5:83:31:dc:16:e9:a1:48:4f:6e:3f:06:25:6f:a2:b9:5d:18:
         61:02:e6:80:49:c7:da:cb:87:29:4d:51:f2:1a:e3:f1:88:6f:
         f2:4e:10:ab:6e:20:3d:8b:31:b1:64:da:d9:13:44:67:54:d8:
         c7:98:06:d1:8e:da:fa:97:60:6a:50:86:9d:15:4e:83:21:e4:
         e4:f3:3a:a1:73:d1:e4:7f:ad:67:15:e9:3e:c4:44:46:58:fd:
         ae:a0:e2:25:1a:81:b2:38:92:70:f2:2f:01:6d:20:14:1b:7e:
         e7:c4:0a:68
-----BEGIN CERTIFICATE-----
MIIECTCCAvGgAwIBAgIEEAAAmjANBgkqhkiG9w0BAQUFADBEMQswCQYDVQQGEwJE
RTEPMA0GA1UECAwGSGVzc2VuMRQwEgYDVQQKDAtwcml2YWN5aWRlYTEOMAwGA1UE
AwwFQ0EwMDEwHhcNMTUwODMxMTA0NjAyWhcNMTYwODMwMTA0NjAyWjA3MRMwEQYD
VQQDEwpTdGV2ZSBUZXN0MSAwHgYJKoZIhvcNAQkBFhFzdGV2ZUBvcGVuc3NsLm9y
ZzCCASIwDQYJKoZIhvcNAQEBBQADggEPADCCAQoCggEBANKBiSBRSA9z9BEyJNUf
HP1c9bbmxfBSgdzSr2ZKfJMxYVyv0W0GcANgfHIMiN1JzZ4CbNJa11MP89q+aWS1
DwwA47NQR6Ozm7oTUNZYWkurOeARygonZwN4ImZtkh4bXEmu5mvRjjudBtPGrE1T
QxCr6JbBh4KXmY8g05kSNzGE4Yr/KQNfIpA+f5vgIMGt3K5MORoxlhcCjLLZtA0g
Ept9hlT9M/3BKmJG+GCWz24BbyLfE0fnl+wFciOjYvj676yccvA3yy83z5CoJ1GG
xtd4CI9+JaIVcKL7HLYVXqCXi4FMCSiKJzuUvHHbW3E3misW4G+1yfVLTyC6Zc+v
ra0CAwEAAaOCAQ4wggEKMAsGA1UdDwQEAwIFoDAJBgNVHRMEAjAAMBEGCWCGSAGG
+EIBAQQEAwIGQDAzBglghkgBhvhCAQ0EJhYkT3BlblNTTCBHZW5lcmF0ZWQgU2Vy
dmVyIENlcnRpZmljYXRlMB0GA1UdDgQWBBTlJW0+rw3dP0zyRRk51RTbfpzArTB0
BgNVHSMEbTBrgBT0p8DMkUavZPOR8if4yLJviocyc6FIpEYwRDELMAkGA1UEBhMC
REUxDzANBgNVBAgMBkhlc3NlbjEUMBIGA1UECgwLcHJpdmFjeWlkZWExDjAMBgNV
BAMMBUNBMDAxggkA+8jrrIPNEgcwEwYDVR0lBAwwCgYIKwYBBQUHAwEwDQYJKoZI
hvcNAQEFBQADggEBAJ85HmYP+lUosCH8aYmO3rv3S7hwltN2lFR/o1qUwhzyMaNZ
EgDUpWPJcOudcrgZBJlMy01KICCdwAfls/adEp76wy5FnOVDq333dSpNsqr9h8Bs
X6c1tPJWlG/6DdCFTXzW56YbAc1SF6hdCItCG7KMBjUr/W+QeT+WbQjdHPxY34Og
2p2Ut/Lesam9AYX3ZqWDMdwW6aFIT24/BiVvorldGGEC5oBJx9rLhylNUfIa4/GI
b/JOEKtuID2LMbFk2tkTRGdU2MeYBtGO2vqXYGpQhp0VToMh5OTzOqFz0eR/rWcV
6T7EREZY/a6g4iUagbI4knDyLwFtIBQbfufECmg=
-----END CERTIFICATE-----
