Certificate:
    Data:
        Version: 3 (0x2)
        Serial Number: 268435613 (0x1000009d)
    Signature Algorithm: sha1WithRSAEncryption
        Issuer: C=DE, ST=Hessen, O=privacyidea, CN=CA001
        Validity
            Not Before: Aug 27 12:42:45 2015 GMT
            Not After : Aug 26 12:42:45 2016 GMT
        Subject: C=DE, ST=Hessen, O=privacyidea, CN=requester.localdomain
        Subject Public Key Info:
            Public Key Algorithm: rsaEncryption
                Public-Key: (2048 bit)
                Modulus:
                    00:cd:be:14:4f:fa:ce:01:3f:42:22:1b:1d:9c:af:
                    dd:92:d2:7f:db:6c:b7:3e:39:43:43:6b:13:03:f1:
                    05:f4:07:74:bc:76:69:28:0b:af:19:8e:d7:fc:e3:
                    cd:c6:58:f2:ca:7f:08:6d:53:fc:07:02:44:24:c6:
                    b4:34:4c:8c:04:fe:33:0e:40:e2:20:ba:02:73:5a:
                    f7:f5:4f:63:6e:cc:c6:b6:df:54:1d:37:39:7d:51:
                    36:26:5f:bd:dc:3f:a8:8b:6b:a2:ae:b6:9d:d6:21:
                    e7:df:41:b8:7a:28:2a:68:48:ca:a8:2d:ed:e1:e9:
                    46:5e:5a:72:6d:b4:84:38:87:91:fd:94:11:0b:28:
                    84:c6:c2:2f:2a:fb:01:f9:36:7a:09:75:d1:33:88:
                    3c:73:41:5b:c8:bf:94:89:70:a1:f0:c0:b9:2e:50:
                    53:1e:b1:17:64:69:f4:2d:81:e0:a9:0d:0e:32:e9:
                    ba:55:8a:85:f1:1b:6f:49:79:b4:7f:88:c3:0d:3e:
                    54:88:9b:3d:1f:38:8c:04:f3:ee:6a:63:2b:f5:c6:
                    db:b4:83:aa:c4:78:41:3a:7d:4b:e1:c8:3e:71:ca:
                    1b:61:59:ea:c6:c4:ca:32:5e:c9:e9:bf:12:29:e6:
                    c6:c3:63:fe:a0:55:da:7a:f1:60:98:4d:26:ed:fa:
                    70:2d
                Exponent: 65537 (0x10001)
        X509v3 extensions:
            X509v3 Key Usage: 
                Digital Signature, Key Encipherment
            X509v3 Basic Constraints: 
                CA:FALSE
            Netscape Cert Type: 
                SSL Server
            Netscape Comment: 
                OpenSSL Generated Server Certificate
            X509v3 Subject Key Identifier: 
                53:3F:ED:5D:09:07:B3:65:7B:AB:45:C9:24:5B:09:77:80:0A:96:ED
            X509v3 Authority Key Identifier: 
                keyid:F4:A7:C0:CC:91:46:AF:64:F3:91:F2:27:F8:C8:B2:6F:8A:87:32:73
                DirName:/C=DE/ST=Hessen/O=privacyidea/CN=CA001
                serial:FB:C8:EB:AC:83:CD:12:07

            X509v3 Extended Key Usage: 
                TLS Web Server Authentication
    Signature Algorithm: sha1WithRSAEncryption
         95:b2:7a:0c:f1:6d:9b:7f:ec:f0:b6:59:5a:48:05:c7:06:c4:
         be:e3:80:0c:53:64:78:ee:4d:d9:f3:35:64:b8:79:8e:5c:e1:
         f6:d8:e7:d9:f3:a8:6e:dc:9a:1f:9e:73:49:89:a1:91:42:53:
         8b:0e:d2:6b:a8:b5:4d:7f:f6:d6:2f:b7:23:11:3c:65:1a:1b:
         0c:2f:4d:16:9b:2e:50:be:8c:5b:72:70:7a:fb:7e:07:ce:ee:
         62:83:f2:7c:81:aa:e4:b2:6d:26:3a:ab:f0:91:b6:83:d9:06:
         2e:e4:e5:61:24:fe:64:a3:ed:72:b5:9c:5a:0b:a6:75:0e:75:
         3a:4d:39:7b:6f:ea:9b:c3:23:c8:8b:8d:0a:16:aa:2b:80:ca:
         3b:c6:0d:77:b0:83:d7:c1:d3:77:a8:a7:52:d8:72:56:73:cc:
         14:3d:b4:ef:a6:71:e4:11:bf:11:67:04:a8:76:fb:6d:bc:28:
         b4:98:42:b4:7d:b4:36:91:47:95:0f:5f:76:80:44:5b:9a:a1:
         0a:46:7f:37:b4:dc:08:19:46:3e:82:b1:91:af:5b:c7:b8:fb:
         13:32:39:38:a8:59:7a:02:5f:bf:4a:7d:17:8d:55:54:49:b3:
         5b:69:0d:1b:bc:18:d1:a4:c6:67:80:ef:ff:b2:19:b7:65:e3:
         c4:27:2c:5b
-----BEGIN CERTIFICATE-----
MIIEJjCCAw6gAwIBAgIEEAAAnTANBgkqhkiG9w0BAQUFADBEMQswCQYDVQQGEwJE
RTEPMA0GA1UECAwGSGVzc2VuMRQwEgYDVQQKDAtwcml2YWN5aWRlYTEOMAwGA1UE
AwwFQ0EwMDEwHhcNMTUwODI3MTI0MjQ1WhcNMTYwODI2MTI0MjQ1WjBUMQswCQYD
VQQGEwJERTEPMA0GA1UECAwGSGVzc2VuMRQwEgYDVQQKDAtwcml2YWN5aWRlYTEe
MBwGA1UEAwwVcmVxdWVzdGVyLmxvY2FsZG9tYWluMIIBIjANBgkqhkiG9w0BAQEF
AAOCAQ8AMIIBCgKCAQEAzb4UT/rOAT9CIhsdnK/dktJ/22y3PjlDQ2sTA/EF9Ad0
vHZpKAuvGY7X/OPNxljyyn8IbVP8BwJEJMa0NEyMBP4zDkDiILoCc1r39U9jbszG
tt9UHTc5fVE2Jl+93D+oi2uirrad1iHn30G4eigqaEjKqC3t4elGXlpybbSEOIeR
/ZQRCyiExsIvKvsB+TZ6CXXRM4g8c0FbyL+UiXCh8MC5LlBTHrEXZGn0LYHgqQ0O
Mum6VYqF8RtvSXm0f4jDDT5UiJs9HziMBPPuamMr9cbbtIOqxHhBOn1L4cg+ccob
YVnqxsTKMl7J6b8SKebGw2P+oFXaevFgmE0m7fpwLQIDAQABo4IBDjCCAQowCwYD
VR0PBAQDAgWgMAkGA1UdEwQCMAAwEQYJYIZIAYb4QgEBBAQDAgZAMDMGCWCGSAGG
+EIBDQQmFiRPcGVuU1NMIEdlbmVyYXRlZCBTZXJ2ZXIgQ2VydGlmaWNhdGUwHQYD
VR0OBBYEFFM/7V0JB7Nle6tFySRbCXeACpbtMHQGA1UdIwRtMGuAFPSnwMyRRq9k
85HyJ/jIsm+KhzJzoUikRjBEMQswCQYDVQQGEwJERTEPMA0GA1UECAwGSGVzc2Vu
MRQwEgYDVQQKDAtwcml2YWN5aWRlYTEOMAwGA1UEAwwFQ0EwMDGCCQD7yOusg80S
BzATBgNVHSUEDDAKBggrBgEFBQcDATANBgkqhkiG9w0BAQUFAAOCAQEAlbJ6DPFt
m3/s8LZZWkgFxwbEvuOADFNkeO5N2fM1ZLh5jlzh9tjn2fOobtyaH55zSYmhkUJT
iw7Sa6i1TX/21i+3IxE8ZRobDC9NFpsuUL6MW3Jwevt+B87uYoPyfIGq5LJtJjqr
8JG2g9kGLuTlYST+ZKPtcrWcWgumdQ51Ok05e2/qm8MjyIuNChaqK4DKO8YNd7CD
18HTd6inUthyVnPMFD2076Zx5BG/EWcEqHb7bbwotJhCtH20NpFHlQ9fdoBEW5qh
CkZ/N7TcCBlGPoKxka9bx7j7EzI5OKhZegJfv0p9F41VVEmzW2kNG7wY0aTGZ4Dv
/7IZt2XjxCcsWw==
-----END CERTIFICATE-----
