Certificate:
    Data:
        Version: 3 (0x2)
        Serial Number: 268435639 (0x100000b7)
    Signature Algorithm: sha1WithRSAEncryption
        Issuer: C=DE, ST=Hessen, O=privacyidea, CN=CA001
        Validity
            Not Before: Jun 18 14:24:56 2015 GMT
            Not After : Jun 17 14:24:56 2016 GMT
        Subject: CN=admin,CN=admin,O=/emailAddress=meine
        Subject Public Key Info:
            Public Key Algorithm: rsaEncryption
                Public-Key: (2048 bit)
                Modulus:
                    00:d0:b3:19:61:66:a4:be:cf:30:53:a6:d8:ac:fb:
                    85:d4:6c:9a:c6:9d:8f:25:07:2d:a3:22:87:89:3c:
                    0a:79:9e:60:2d:31:2f:eb:ff:38:ee:6a:7e:26:87:
                    84:e0:51:c7:71:dd:19:19:18:39:78:a0:bb:ff:7c:
                    6d:8c:f9:29:7b:50:fd:14:5c:1a:db:1b:f1:74:96:
                    1c:17:ef:64:f2:ae:7c:86:d0:dd:17:bd:1a:c7:ec:
                    31:ac:c0:1d:22:de:9a:b4:67:70:35:4d:db:06:c9:
                    29:e7:2c:c4:d8:2e:bc:86:d5:61:08:42:97:9d:68:
                    cc:ed:a3:7b:ad:5c:7b:42:05:b5:5d:a5:31:0c:0b:
                    18:4f:1c:69:6d:e4:26:86:eb:97:a2:d8:66:30:9e:
                    59:83:50:dd:b6:9a:93:f3:e8:48:1a:eb:3f:05:b6:
                    fc:d4:8a:8b:d3:69:4c:01:bf:86:d5:20:20:f0:d6:
                    dc:9d:7d:c5:fe:a7:06:49:f9:6f:0a:71:81:ff:8e:
                    f0:24:5e:56:43:22:02:80:13:89:85:0d:15:6e:62:
                    7b:dd:fb:45:8a:d0:9d:4b:45:10:51:05:31:50:1b:
                    47:2f:96:a4:7f:bd:ad:e7:d5:7c:45:9c:44:b3:6c:
                    84:e2:b6:b6:96:cd:94:75:c0:5a:f7:58:f9:aa:83:
                    c0:5f
                Exponent: 65537 (0x10001)
        X509v3 extensions:
            X509v3 Key Usage: 
                Digital Signature, Key Encipherment
            X509v3 Basic Constraints: 
                CA:FALSE
            Netscape Cert Type: 
                SSL Server
            Netscape Comment: 
                OpenSSL Generated Server Certificate
            X509v3 Subject Key Identifier: 
                4E:7B:CF:42:17:91:8E:B1:2B:E2:6A:53:05:6A:0B:4C:A3:7E:28:27
            X509v3 Authority Key Identifier: 
                keyid:F4:A7:C0:CC:91:46:AF:64:F3:91:F2:27:F8:C8:B2:6F:8A:87:32:73
                DirName:/C=DE/ST=Hessen/O=privacyidea/CN=CA001
                serial:FB:C8:EB:AC:83:CD:12:07

            X509v3 Extended Key Usage: 
                TLS Web Server Authentication
    Signature Algorithm: sha1WithRSAEncryption
         7a:ce:ab:66:98:7f:04:d1:4e:56:2a:6c:a1:c3:89:8f:19:be:
         45:87:f3:a1:af:57:1f:cf:08:4a:28:bb:f1:d2:ed:4b:35:41:
         71:21:9f:2f:1a:7a:a6:e1:28:88:35:96:c3:e3:a9:b9:b1:50:
         78:05:d1:f7:89:60:f2:e4:09:3d:db:a7:bc:58:03:50:d5:e6:
         42:70:08:1c:7f:e6:29:cd:79:07:7b:d2:78:a7:0e:fd:a9:5f:
         c5:f5:b8:9b:aa:06:32:69:6e:0d:88:1a:bc:fe:56:0c:dc:2f:
         87:ab:ae:93:80:2a:13:d9:a4:18:29:5a:3d:a9:5c:a5:70:52:
         80:7b:98:86:e7:87:5c:47:c1:a6:21:fe:1a:39:6f:6c:48:d9:
         37:aa:7a:97:ad:6e:a4:02:3e:f6:07:64:0d:92:89:12:c3:5f:
         fd:58:6a:16:50:e8:73:4a:cf:70:53:32:ea:30:36:5b:dd:54:
         00:bd:82:4f:a3:77:02:ca:75:55:3e:91:43:a4:ba:e0:05:d0:
         13:33:b9:8d:11:52:e6:69:44:1c:99:53:6a:04:11:05:3a:5c:
         7e:ee:21:b7:65:0d:86:8e:22:f5:90:3a:bd:69:e0:f1:6a:ac:
         2c:a5:2d:9b:73:81:0c:90:8c:84:7d:58:d2:f1:6f:98:76:be:
         32:61:69:ec
-----BEGIN CERTIFICATE-----
MIIEBDCCAuygAwIBAgIEEAAAtzANBgkqhkiG9w0BAQUFADBEMQswCQYDVQQGEwJE
RTEPMA0GA1UECAwGSGVzc2VuMRQwEgYDVQQKDAtwcml2YWN5aWRlYTEOMAwGA1UE
AwwFQ0EwMDEwHhcNMTUwNjE4MTQyNDU2WhcNMTYwNjE3MTQyNDU2WjAyMRowGAYD
VQQDExFhZG1pbixDTj1hZG1pbixPPTEUMBIGCSqGSIb3DQEJARYFbWVpbmUwggEi
MA0GCSqGSIb3DQEBAQUAA4IBDwAwggEKAoIBAQDQsxlhZqS+zzBTptis+4XUbJrG
nY8lBy2jIoeJPAp5nmAtMS/r/zjuan4mh4TgUcdx3RkZGDl4oLv/fG2M+Sl7UP0U
XBrbG/F0lhwX72TyrnyG0N0XvRrH7DGswB0i3pq0Z3A1TdsGySnnLMTYLryG1WEI
QpedaMzto3utXHtCBbVdpTEMCxhPHGlt5CaG65ei2GYwnlmDUN22mpPz6Ega6z8F
tvzUiovTaUwBv4bVICDw1tydfcX+pwZJ+W8KcYH/jvAkXlZDIgKAE4mFDRVuYnvd
+0WK0J1LRRBRBTFQG0cvlqR/va3n1XxFnESzbITitraWzZR1wFr3WPmqg8BfAgMB
AAGjggEOMIIBCjALBgNVHQ8EBAMCBaAwCQYDVR0TBAIwADARBglghkgBhvhCAQEE
BAMCBkAwMwYJYIZIAYb4QgENBCYWJE9wZW5TU0wgR2VuZXJhdGVkIFNlcnZlciBD
ZXJ0aWZpY2F0ZTAdBgNVHQ4EFgQUTnvPQheRjrEr4mpTBWoLTKN+KCcwdAYDVR0j
BG0wa4AU9KfAzJFGr2TzkfIn+Miyb4qHMnOhSKRGMEQxCzAJBgNVBAYTAkRFMQ8w
DQYDVQQIDAZIZXNzZW4xFDASBgNVBAoMC3ByaXZhY3lpZGVhMQ4wDAYDVQQDDAVD
QTAwMYIJAPvI66yDzRIHMBMGA1UdJQQMMAoGCCsGAQUFBwMBMA0GCSqGSIb3DQEB
BQUAA4IBAQB6zqtmmH8E0U5WKmyhw4mPGb5Fh/Ohr1cfzwhKKLvx0u1LNUFxIZ8v
Gnqm4SiINZbD46m5sVB4BdH3iWDy5Ak926e8WANQ1eZCcAgcf+YpzXkHe9J4pw79
qV/F9bibqgYyaW4NiBq8/lYM3C+Hq66TgCoT2aQYKVo9qVylcFKAe5iG54dcR8Gm
If4aOW9sSNk3qnqXrW6kAj72B2QNkokSw1/9WGoWUOhzSs9wUzLqMDZb3VQAvYJP
o3cCynVVPpFDpLrgBdATM7mNEVLmaUQcmVNqBBEFOlx+7iG3ZQ2GjiL1kDq9aeDx
aqwspS2bc4EMkIyEfVjS8W+Ydr4yYWns
-----END CERTIFICATE-----
