Certificate:
    Data:
        Version: 3 (0x2)
        Serial Number: 268435616 (0x100000a0)
    Signature Algorithm: sha1WithRSAEncryption
        Issuer: C=DE, ST=Hessen, O=privacyidea, CN=CA001
        Validity
            Not Before: Aug 27 13:09:17 2015 GMT
            Not After : Aug 26 13:09:17 2016 GMT
        Subject: C=DE, ST=Hessen, O=privacyidea, CN=usercert
        Subject Public Key Info:
            Public Key Algorithm: rsaEncryption
                Public-Key: (2048 bit)
                Modulus:
                    00:dc:2f:d1:5f:29:97:d4:7c:c3:53:c8:30:bd:4b:
                    67:70:2c:24:6b:b8:5e:eb:21:7a:48:12:56:7c:81:
                    5c:48:75:b6:68:eb:f6:f2:98:4e:50:51:d1:7f:6c:
                    73:f3:0a:a7:ae:be:48:5e:e5:d6:e1:d9:2a:7c:32:
                    6e:4e:fd:08:f6:5a:54:49:23:73:c3:b9:07:18:d1:
                    ef:b3:ac:f8:8a:dc:94:96:a4:90:3a:8e:74:df:e6:
                    0d:37:1b:bd:5b:b7:25:1a:56:39:da:6f:91:aa:5e:
                    1c:74:f3:f9:7c:14:01:83:12:65:76:c7:bb:fe:36:
                    5b:95:e9:72:65:83:ed:3e:98:30:71:fa:87:dd:a3:
                    36:5a:30:03:2e:26:e0:61:d1:bf:02:3f:b6:06:1f:
                    4a:89:28:1c:5c:a2:ff:4e:be:94:e6:8c:e0:da:82:
                    f1:9d:29:32:48:30:73:b4:04:f6:42:1e:be:f7:e2:
                    32:32:27:3c:9d:89:2f:70:3e:85:9a:6f:5c:c5:09:
                    c0:8c:32:2f:72:22:c9:d2:95:1f:b6:ac:72:60:72:
                    b7:82:4d:6b:ce:5b:e3:00:d0:d2:2f:58:c6:e0:10:
                    e5:51:ca:4d:3b:2e:e6:7e:ab:84:d6:56:f1:93:35:
                    a0:93:64:26:81:75:2f:91:b5:16:06:38:0b:db:cc:
                    2d:07
                Exponent: 65537 (0x10001)
        X509v3 extensions:
            X509v3 Key Usage: 
                Digital Signature, Key Encipherment
            X509v3 Basic Constraints: 
                CA:FALSE
            Netscape Cert Type: 
                SSL Server
            Netscape Comment: 
                OpenSSL Generated Server Certificate
            X509v3 Subject Key Identifier: 
                FC:14:D1:F0:4B:8D:00:90:F2:F5:B8:71:9E:4E:97:C3:92:54:AD:0B
            X509v3 Authority Key Identifier: 
                keyid:F4:A7:C0:CC:91:46:AF:64:F3:91:F2:27:F8:C8:B2:6F:8A:87:32:73
                DirName:/C=DE/ST=Hessen/O=privacyidea/CN=CA001
                serial:FB:C8:EB:AC:83:CD:12:07

            X509v3 Extended Key Usage: 
                TLS Web Server Authentication
    Signature Algorithm: sha1WithRSAEncryption
         20:0f:e1:1f:1f:84:3b:d9:ec:e3:30:2f:43:ea:e0:17:ac:5e:
         48:f8:79:53:b5:61:c9:5c:6f:8d:05:a6:5d:ee:13:47:f5:a6:
         ad:92:0a:42:09:56:33:a7:a9:5d:ab:b2:0d:38:5e:12:74:17:
         d1:5d:64:d6:25:ee:52:57:5a:ff:8d:5d:54:c2:cf:7c:39:64:
         d8:6f:c6:71:b0:9e:ea:9e:9a:5c:3b:1e:e9:55:e6:09:a1:5a:
         ab:a7:75:ec:2f:7d:c9:12:7d:03:11:75:75:e1:c4:c3:56:95:
         1d:c2:d3:dd:0c:7a:fb:09:e8:7b:6c:db:2e:46:17:f7:0a:bd:
         0f:cb:84:fc:b5:48:78:10:63:ed:a2:a6:2b:09:13:db:18:9f:
         74:a1:98:d7:58:40:ac:cd:74:b5:d4:64:55:a2:1b:b0:91:b7:
         ec:42:b4:9c:0b:bd:ab:10:01:46:21:8f:f9:cc:b1:bd:b4:29:
         39:9e:83:c8:ae:84:54:9e:ba:40:5c:bf:6b:fa:dc:9d:2d:9e:
         ab:d4:d1:fa:55:96:05:47:21:d7:bb:d8:fd:36:4a:75:47:10:
         79:f7:7e:f4:15:1b:43:b6:38:b1:0e:b8:b3:a2:56:f4:26:cc:
         91:80:6f:3c:f4:cd:9a:bd:bc:49:b2:10:e4:3c:65:9b:5f:8c:
         02:a6:d6:30
-----BEGIN CERTIFICATE-----
MIIEGTCCAwGgAwIBAgIEEAAAoDANBgkqhkiG9w0BAQUFADBEMQswCQYDVQQGEwJE
RTEPMA0GA1UECAwGSGVzc2VuMRQwEgYDVQQKDAtwcml2YWN5aWRlYTEOMAwGA1UE
AwwFQ0EwMDEwHhcNMTUwODI3MTMwOTE3WhcNMTYwODI2MTMwOTE3WjBHMQswCQYD
VQQGEwJERTEPMA0GA1UECAwGSGVzc2VuMRQwEgYDVQQKDAtwcml2YWN5aWRlYTER
MA8GA1UEAwwIdXNlcmNlcnQwggEiMA0GCSqGSIb3DQEBAQUAA4IBDwAwggEKAoIB
AQDcL9FfKZfUfMNTyDC9S2dwLCRruF7rIXpIElZ8gVxIdbZo6/bymE5QUdF/bHPz
Cqeuvkhe5dbh2Sp8Mm5O/Qj2WlRJI3PDuQcY0e+zrPiK3JSWpJA6jnTf5g03G71b
tyUaVjnab5GqXhx08/l8FAGDEmV2x7v+NluV6XJlg+0+mDBx+ofdozZaMAMuJuBh
0b8CP7YGH0qJKBxcov9OvpTmjODagvGdKTJIMHO0BPZCHr734jIyJzydiS9wPoWa
b1zFCcCMMi9yIsnSlR+2rHJgcreCTWvOW+MA0NIvWMbgEOVRyk07LuZ+q4TWVvGT
NaCTZCaBdS+RtRYGOAvbzC0HAgMBAAGjggEOMIIBCjALBgNVHQ8EBAMCBaAwCQYD
VR0TBAIwADARBglghkgBhvhCAQEEBAMCBkAwMwYJYIZIAYb4QgENBCYWJE9wZW5T
U0wgR2VuZXJhdGVkIFNlcnZlciBDZXJ0aWZpY2F0ZTAdBgNVHQ4EFgQU/BTR8EuN
AJDy9bhxnk6Xw5JUrQswdAYDVR0jBG0wa4AU9KfAzJFGr2TzkfIn+Miyb4qHMnOh
SKRGMEQxCzAJBgNVBAYTAkRFMQ8wDQYDVQQIDAZIZXNzZW4xFDASBgNVBAoMC3By
aXZhY3lpZGVhMQ4wDAYDVQQDDAVDQTAwMYIJAPvI66yDzRIHMBMGA1UdJQQMMAoG
CCsGAQUFBwMBMA0GCSqGSIb3DQEBBQUAA4IBAQAgD+EfH4Q72ezjMC9D6uAXrF5I
+HlTtWHJXG+NBaZd7hNH9aatkgpCCVYzp6ldq7INOF4SdBfRXWTWJe5SV1r/jV1U
ws98OWTYb8ZxsJ7qnppcOx7pVeYJoVqrp3XsL33JEn0DEXV14cTDVpUdwtPdDHr7
Ceh7bNsuRhf3Cr0Py4T8tUh4EGPtoqYrCRPbGJ90oZjXWECszXS11GRVohuwkbfs
QrScC72rEAFGIY/5zLG9tCk5noPIroRUnrpAXL9r+tydLZ6r1NH6VZYFRyHXu9j9
Nkp1RxB59370FRtDtjixDrizolb0JsyRgG889M2avbxJshDkPGWbX4wCptYw
-----END CERTIFICATE-----
