Certificate:
    Data:
        Version: 3 (0x2)
        Serial Number: 268435617 (0x100000a1)
    Signature Algorithm: sha1WithRSAEncryption
        Issuer: C=DE, ST=Hessen, O=privacyidea, CN=CA001
        Validity
            Not Before: Aug 27 13:09:17 2015 GMT
            Not After : Aug 26 13:09:17 2016 GMT
        Subject: CN=Steve Test/emailAddress=steve@openssl.org
        Subject Public Key Info:
            Public Key Algorithm: rsaEncryption
                Public-Key: (2048 bit)
                Modulus:
                    00:d2:81:89:20:51:48:0f:73:f4:11:32:24:d5:1f:
                    1c:fd:5c:f5:b6:e6:c5:f0:52:81:dc:d2:af:66:4a:
                    7c:93:31:61:5c:af:d1:6d:06:70:03:60:7c:72:0c:
                    88:dd:49:cd:9e:02:6c:d2:5a:d7:53:0f:f3:da:be:
                    69:64:b5:0f:0c:00:e3:b3:50:47:a3:b3:9b:ba:13:
                    50:d6:58:5a:4b:ab:39:e0:11:ca:0a:27:67:03:78:
                    22:66:6d:92:1e:1b:5c:49:ae:e6:6b:d1:8e:3b:9d:
                    06:d3:c6:ac:4d:53:43:10:ab:e8:96:c1:87:82:97:
                    99:8f:20:d3:99:12:37:31:84:e1:8a:ff:29:03:5f:
                    22:90:3e:7f:9b:e0:20:c1:ad:dc:ae:4c:39:1a:31:
                    96:17:02:8c:b2:d9:b4:0d:20:12:9b:7d:86:54:fd:
                    33:fd:c1:2a:62:46:f8:60:96:cf:6e:01:6f:22:df:
                    13:47:e7:97:ec:05:72:23:a3:62:f8:fa:ef:ac:9c:
                    72:f0:37:cb:2f:37:cf:90:a8:27:51:86:c6:d7:78:
                    08:8f:7e:25:a2:15:70:a2:fb:1c:b6:15:5e:a0:97:
                    8b:81:4c:09:28:8a:27:3b:94:bc:71:db:5b:71:37:
                    9a:2b:16:e0:6f:b5:c9:f5:4b:4f:20:ba:65:cf:af:
                    ad:ad
                Exponent: 65537 (0x10001)
        X509v3 extensions:
            X509v3 Key Usage: 
                Digital Signature, Key Encipherment
            X509v3 Basic Constraints: 
                CA:FALSE
            Netscape Cert Type: 
                SSL Server
            Netscape Comment: 
                OpenSSL Generated Server Certificate
            X509v3 Subject Key Identifier: 
                E5:25:6D:3E:AF:0D:DD:3F:4C:F2:45:19:39:D5:14:DB:7E:9C:C0:AD
            X509v3 Authority Key Identifier: 
                keyid:F4:A7:C0:CC:91:46:AF:64:F3:91:F2:27:F8:C8:B2:6F:8A:87:32:73
                DirName:/C=DE/ST=Hessen/O=privacyidea/CN=CA001
                serial:FB:C8:EB:AC:83:CD:12:07

            X509v3 Extended Key Usage: 
                TLS Web Server Authentication
    Signature Algorithm: sha1WithRSAEncryption
         2c:3c:c5:fe:7e:c0:30:9d:61:f5:35:d3:4f:a9:a3:6e:1c:90:
         aa:ac:af:67:71:b7:70:b2:52:a9:da:c0:88:6d:a2:e7:a4:90:
         3f:39:04:4d:b0:1a:9f:d5:59:01:b2:88:88:e8:10:3b:21:f1:
         fb:88:62:06:15:17:6b:46:cd:f8:e4:c0:2b:05:f9:90:c0:eb:
         8c:0c:71:a1:75:f1:0b:11:02:b4:c5:33:46:00:21:b8:42:e2:
         a6:57:e2:54:4a:2b:15:19:83:8c:6a:24:2b:83:f2:ca:fc:73:
         93:27:63:d6:be:4e:f4:29:92:ee:aa:61:3b:ba:92:ad:a5:6b:
         81:e3:e4:aa:e4:79:1d:12:0a:88:58:c7:c3:39:a0:b9:33:10:
         3d:e6:7b:82:2d:7f:bb:d0:8b:69:4f:5a:7f:7a:5b:52:7a:5b:
         c2:26:89:5b:b3:97:42:ab:aa:c8:91:55:cd:c9:a5:00:43:55:
         46:04:e0:8d:48:2a:e4:f8:f3:c7:72:53:7e:b3:ce:1a:85:4f:
         cb:25:42:09:c1:31:ab:52:3c:b3:72:90:fa:1a:53:d8:0d:bc:
         05:30:d5:ec:3a:cc:1c:d2:38:59:23:ca:a5:6b:ba:28:ff:b8:
         4f:fb:83:34:cc:ae:8c:c1:b2:53:41:4a:33:c4:8f:a7:56:e8:
         aa:eb:d1:69
-----BEGIN CERTIFICATE-----
MIIECTCCAvGgAwIBAgIEEAAAoTANBgkqhkiG9w0BAQUFADBEMQswCQYDVQQGEwJE
RTEPMA0GA1UECAwGSGVzc2VuMRQwEgYDVQQKDAtwcml2YWN5aWRlYTEOMAwGA1UE
AwwFQ0EwMDEwHhcNMTUwODI3MTMwOTE3WhcNMTYwODI2MTMwOTE3WjA3MRMwEQYD
VQQDEwpTdGV2ZSBUZXN0MSAwHgYJKoZIhvcNAQkBFhFzdGV2ZUBvcGVuc3NsLm9y
ZzCCASIwDQYJKoZIhvcNAQEBBQADggEPADCCAQoCggEBANKBiSBRSA9z9BEyJNUf
HP1c9bbmxfBSgdzSr2ZKfJMxYVyv0W0GcANgfHIMiN1JzZ4CbNJa11MP89q+aWS1
DwwA47NQR6Ozm7oTUNZYWkurOeARygonZwN4ImZtkh4bXEmu5mvRjjudBtPGrE1T
QxCr6JbBh4KXmY8g05kSNzGE4Yr/KQNfIpA+f5vgIMGt3K5MORoxlhcCjLLZtA0g
Ept9hlT9M/3BKmJG+GCWz24BbyLfE0fnl+wFciOjYvj676yccvA3yy83z5CoJ1GG
xtd4CI9+JaIVcKL7HLYVXqCXi4FMCSiKJzuUvHHbW3E3misW4G+1yfVLTyC6Zc+v
ra0CAwEAAaOCAQ4wggEKMAsGA1UdDwQEAwIFoDAJBgNVHRMEAjAAMBEGCWCGSAGG
+EIBAQQEAwIGQDAzBglghkgBhvhCAQ0EJhYkT3BlblNTTCBHZW5lcmF0ZWQgU2Vy
dmVyIENlcnRpZmljYXRlMB0GA1UdDgQWBBTlJW0+rw3dP0zyRRk51RTbfpzArTB0
BgNVHSMEbTBrgBT0p8DMkUavZPOR8if4yLJviocyc6FIpEYwRDELMAkGA1UEBhMC
REUxDzANBgNVBAgMBkhlc3NlbjEUMBIGA1UECgwLcHJpdmFjeWlkZWExDjAMBgNV
BAMMBUNBMDAxggkA+8jrrIPNEgcwEwYDVR0lBAwwCgYIKwYBBQUHAwEwDQYJKoZI
hvcNAQEFBQADggEBACw8xf5+wDCdYfU100+po24ckKqsr2dxt3CyUqnawIhtouek
kD85BE2wGp/VWQGyiIjoEDsh8fuIYgYVF2tGzfjkwCsF+ZDA64wMcaF18QsRArTF
M0YAIbhC4qZX4lRKKxUZg4xqJCuD8sr8c5MnY9a+TvQpku6qYTu6kq2la4Hj5Krk
eR0SCohYx8M5oLkzED3me4Itf7vQi2lPWn96W1J6W8ImiVuzl0KrqsiRVc3JpQBD
VUYE4I1IKuT488dyU36zzhqFT8slQgnBMatSPLNykPoaU9gNvAUw1ew6zBzSOFkj
yqVruij/uE/7gzTMrozBslNBSjPEj6dW6Krr0Wk=
-----END CERTIFICATE-----
