Certificate:
    Data:
        Version: 3 (0x2)
        Serial Number: 268435607 (0x10000097)
    Signature Algorithm: sha1WithRSAEncryption
        Issuer: C=DE, ST=Hessen, O=privacyidea, CN=CA001
        Validity
            Not Before: Aug 31 10:45:36 2015 GMT
            Not After : Aug 30 10:45:36 2016 GMT
        Subject: C=DE, ST=Hessen, O=privacyidea, CN=requester.localdomain
        Subject Public Key Info:
            Public Key Algorithm: rsaEncryption
                Public-Key: (2048 bit)
                Modulus:
                    00:cd:be:14:4f:fa:ce:01:3f:42:22:1b:1d:9c:af:
                    dd:92:d2:7f:db:6c:b7:3e:39:43:43:6b:13:03:f1:
                    05:f4:07:74:bc:76:69:28:0b:af:19:8e:d7:fc:e3:
                    cd:c6:58:f2:ca:7f:08:6d:53:fc:07:02:44:24:c6:
                    b4:34:4c:8c:04:fe:33:0e:40:e2:20:ba:02:73:5a:
                    f7:f5:4f:63:6e:cc:c6:b6:df:54:1d:37:39:7d:51:
                    36:26:5f:bd:dc:3f:a8:8b:6b:a2:ae:b6:9d:d6:21:
                    e7:df:41:b8:7a:28:2a:68:48:ca:a8:2d:ed:e1:e9:
                    46:5e:5a:72:6d:b4:84:38:87:91:fd:94:11:0b:28:
                    84:c6:c2:2f:2a:fb:01:f9:36:7a:09:75:d1:33:88:
                    3c:73:41:5b:c8:bf:94:89:70:a1:f0:c0:b9:2e:50:
                    53:1e:b1:17:64:69:f4:2d:81:e0:a9:0d:0e:32:e9:
                    ba:55:8a:85:f1:1b:6f:49:79:b4:7f:88:c3:0d:3e:
                    54:88:9b:3d:1f:38:8c:04:f3:ee:6a:63:2b:f5:c6:
                    db:b4:83:aa:c4:78:41:3a:7d:4b:e1:c8:3e:71:ca:
                    1b:61:59:ea:c6:c4:ca:32:5e:c9:e9:bf:12:29:e6:
                    c6:c3:63:fe:a0:55:da:7a:f1:60:98:4d:26:ed:fa:
                    70:2d
                Exponent: 65537 (0x10001)
        X509v3 extensions:
            X509v3 Key Usage: 
                Digital Signature, Key Encipherment
            X509v3 Basic Constraints: 
                CA:FALSE
            Netscape Cert Type: 
                SSL Server
            Netscape Comment: 
                OpenSSL Generated Server Certificate
            X509v3 Subject Key Identifier: 
                53:3F:ED:5D:09:07:B3:65:7B:AB:45:C9:24:5B:09:77:80:0A:96:ED
            X509v3 Authority Key Identifier: 
                keyid:F4:A7:C0:CC:91:46:AF:64:F3:91:F2:27:F8:C8:B2:6F:8A:87:32:73
                DirName:/C=DE/ST=Hessen/O=privacyidea/CN=CA001
                serial:FB:C8:EB:AC:83:CD:12:07

            X509v3 Extended Key Usage: 
                TLS Web Server Authentication
    Signature Algorithm: sha1WithRSAEncryption
         63:d3:3c:ae:93:ae:da:1c:0c:69:4c:03:aa:95:47:5a:38:70:
         ee:64:b7:74:60:1f:b8:64:0a:80:e6:7b:0b:2c:d0:a1:20:f3:
         56:1d:9c:1f:96:8c:63:3d:e8:69:4c:ec:61:cc:d2:35:09:7f:
         5e:fb:18:77:06:49:94:62:cb:fb:23:54:b6:8a:57:66:e6:67:
         c8:12:d3:cb:63:cb:c9:d1:e1:fa:19:64:b5:a2:0c:42:fa:f5:
         2d:d5:cf:56:79:f5:6f:02:9d:f4:97:82:32:53:eb:bd:94:33:
         56:3c:91:c4:1c:e2:9e:cc:de:71:14:70:46:f3:e8:2e:67:d5:
         b1:46:d6:db:6d:92:ec:43:22:b0:31:b7:2b:c0:b0:bd:43:81:
         da:88:35:b6:84:79:05:06:b4:77:12:de:00:ca:fe:c3:83:c5:
         a6:4f:7d:3b:59:2b:a9:d8:15:85:34:8c:d8:a8:51:7d:9e:6f:
         7c:d4:d3:fe:d4:45:36:7e:1f:75:67:e1:a8:23:3d:f5:55:a4:
         30:8a:0a:e9:91:10:e3:6a:66:f1:41:71:0a:14:b3:7d:c4:f9:
         96:63:b0:02:cb:c1:88:cc:0f:8e:06:02:0c:49:0c:df:37:b4:
         eb:8d:32:79:9d:50:79:63:b1:c4:5e:0a:98:15:49:8d:41:6c:
         90:2f:5d:05
-----BEGIN CERTIFICATE-----
MIIEJjCCAw6gAwIBAgIEEAAAlzANBgkqhkiG9w0BAQUFADBEMQswCQYDVQQGEwJE
RTEPMA0GA1UECAwGSGVzc2VuMRQwEgYDVQQKDAtwcml2YWN5aWRlYTEOMAwGA1UE
AwwFQ0EwMDEwHhcNMTUwODMxMTA0NTM2WhcNMTYwODMwMTA0NTM2WjBUMQswCQYD
VQQGEwJERTEPMA0GA1UECAwGSGVzc2VuMRQwEgYDVQQKDAtwcml2YWN5aWRlYTEe
MBwGA1UEAwwVcmVxdWVzdGVyLmxvY2FsZG9tYWluMIIBIjANBgkqhkiG9w0BAQEF
AAOCAQ8AMIIBCgKCAQEAzb4UT/rOAT9CIhsdnK/dktJ/22y3PjlDQ2sTA/EF9Ad0
vHZpKAuvGY7X/OPNxljyyn8IbVP8BwJEJMa0NEyMBP4zDkDiILoCc1r39U9jbszG
tt9UHTc5fVE2Jl+93D+oi2uirrad1iHn30G4eigqaEjKqC3t4elGXlpybbSEOIeR
/ZQRCyiExsIvKvsB+TZ6CXXRM4g8c0FbyL+UiXCh8MC5LlBTHrEXZGn0LYHgqQ0O
Mum6VYqF8RtvSXm0f4jDDT5UiJs9HziMBPPuamMr9cbbtIOqxHhBOn1L4cg+ccob
YVnqxsTKMl7J6b8SKebGw2P+oFXaevFgmE0m7fpwLQIDAQABo4IBDjCCAQowCwYD
VR0PBAQDAgWgMAkGA1UdEwQCMAAwEQYJYIZIAYb4QgEBBAQDAgZAMDMGCWCGSAGG
+EIBDQQmFiRPcGVuU1NMIEdlbmVyYXRlZCBTZXJ2ZXIgQ2VydGlmaWNhdGUwHQYD
VR0OBBYEFFM/7V0JB7Nle6tFySRbCXeACpbtMHQGA1UdIwRtMGuAFPSnwMyRRq9k
85HyJ/jIsm+KhzJzoUikRjBEMQswCQYDVQQGEwJERTEPMA0GA1UECAwGSGVzc2Vu
MRQwEgYDVQQKDAtwcml2YWN5aWRlYTEOMAwGA1UEAwwFQ0EwMDGCCQD7yOusg80S
BzATBgNVHSUEDDAKBggrBgEFBQcDATANBgkqhkiG9w0BAQUFAAOCAQEAY9M8rpOu
2hwMaUwDqpVHWjhw7mS3dGAfuGQKgOZ7CyzQoSDzVh2cH5aMYz3oaUzsYczSNQl/
XvsYdwZJlGLL+yNUtopXZuZnyBLTy2PLydHh+hlktaIMQvr1LdXPVnn1bwKd9JeC
MlPrvZQzVjyRxBzinszecRRwRvPoLmfVsUbW222S7EMisDG3K8CwvUOB2og1toR5
BQa0dxLeAMr+w4PFpk99O1krqdgVhTSM2KhRfZ5vfNTT/tRFNn4fdWfhqCM99VWk
MIoK6ZEQ42pm8UFxChSzfcT5lmOwAsvBiMwPjgYCDEkM3ze0640yeZ1QeWOxxF4K
mBVJjUFskC9dBQ==
-----END CERTIFICATE-----
