Certificate:
    Data:
        Version: 3 (0x2)
        Serial Number: 268435628 (0x100000ac)
    Signature Algorithm: sha1WithRSAEncryption
        Issuer: C=DE, ST=Hessen, O=privacyidea, CN=CA001
        Validity
            Not Before: Jul  1 14:10:41 2015 GMT
            Not After : Jun 30 14:10:41 2016 GMT
        Subject: CN=Steve Test/emailAddress=steve@openssl.org
        Subject Public Key Info:
            Public Key Algorithm: rsaEncryption
                Public-Key: (2048 bit)
                Modulus:
                    00:d2:81:89:20:51:48:0f:73:f4:11:32:24:d5:1f:
                    1c:fd:5c:f5:b6:e6:c5:f0:52:81:dc:d2:af:66:4a:
                    7c:93:31:61:5c:af:d1:6d:06:70:03:60:7c:72:0c:
                    88:dd:49:cd:9e:02:6c:d2:5a:d7:53:0f:f3:da:be:
                    69:64:b5:0f:0c:00:e3:b3:50:47:a3:b3:9b:ba:13:
                    50:d6:58:5a:4b:ab:39:e0:11:ca:0a:27:67:03:78:
                    22:66:6d:92:1e:1b:5c:49:ae:e6:6b:d1:8e:3b:9d:
                    06:d3:c6:ac:4d:53:43:10:ab:e8:96:c1:87:82:97:
                    99:8f:20:d3:99:12:37:31:84:e1:8a:ff:29:03:5f:
                    22:90:3e:7f:9b:e0:20:c1:ad:dc:ae:4c:39:1a:31:
                    96:17:02:8c:b2:d9:b4:0d:20:12:9b:7d:86:54:fd:
                    33:fd:c1:2a:62:46:f8:60:96:cf:6e:01:6f:22:df:
                    13:47:e7:97:ec:05:72:23:a3:62:f8:fa:ef:ac:9c:
                    72:f0:37:cb:2f:37:cf:90:a8:27:51:86:c6:d7:78:
                    08:8f:7e:25:a2:15:70:a2:fb:1c:b6:15:5e:a0:97:
                    8b:81:4c:09:28:8a:27:3b:94:bc:71:db:5b:71:37:
                    9a:2b:16:e0:6f:b5:c9:f5:4b:4f:20:ba:65:cf:af:
                    ad:ad
                Exponent: 65537 (0x10001)
        X509v3 extensions:
            X509v3 Key Usage: 
                Digital Signature, Key Encipherment
            X509v3 Basic Constraints: 
                CA:FALSE
            Netscape Cert Type: 
                SSL Server
            Netscape Comment: 
                OpenSSL Generated Server Certificate
            X509v3 Subject Key Identifier: 
                E5:25:6D:3E:AF:0D:DD:3F:4C:F2:45:19:39:D5:14:DB:7E:9C:C0:AD
            X509v3 Authority Key Identifier: 
                keyid:F4:A7:C0:CC:91:46:AF:64:F3:91:F2:27:F8:C8:B2:6F:8A:87:32:73
                DirName:/C=DE/ST=Hessen/O=privacyidea/CN=CA001
                serial:FB:C8:EB:AC:83:CD:12:07

            X509v3 Extended Key Usage: 
                TLS Web Server Authentication
    Signature Algorithm: sha1WithRSAEncryption
         58:ca:2c:bd:31:45:40:df:7a:1d:69:23:9f:10:9a:1f:c5:5c:
         20:4f:eb:a9:d2:da:6a:2b:c4:60:0b:09:29:0e:82:0c:2d:54:
         bd:2a:f3:16:4d:bc:87:76:3a:94:1a:ed:cb:df:f6:e6:c3:fd:
         74:9b:da:d7:f1:08:f0:fb:34:e4:33:56:7f:3f:81:22:b0:73:
         89:4b:10:ad:f4:7b:3d:ff:6b:61:43:96:40:c6:d7:81:c4:e4:
         82:69:56:0d:bf:72:d8:e0:00:85:e1:07:51:32:cf:4d:cc:d7:
         a5:f0:6a:61:35:77:d9:45:84:aa:45:50:23:a8:30:d7:45:26:
         b0:b2:b6:25:e3:9d:3c:93:f3:9f:11:39:b3:9e:50:6e:2e:b9:
         7f:03:b0:12:8d:c1:b2:31:63:ed:f9:ca:51:e0:ce:57:f8:90:
         e1:67:34:e2:84:dd:d1:d9:76:da:43:a7:70:e3:b5:30:ee:23:
         14:63:56:fb:ee:0c:f6:4d:60:89:47:1b:1e:ec:69:9f:33:38:
         45:3d:2d:e3:71:ed:ec:ca:83:c0:6e:e3:ce:6e:64:01:0f:6c:
         86:02:2d:92:68:4a:d6:3b:04:72:6e:1a:c8:64:79:74:ff:8a:
         cf:8f:97:38:9b:ff:a3:52:17:8d:67:13:c2:c2:9e:fc:e8:41:
         5a:ad:35:3e
-----BEGIN CERTIFICATE-----
MIIECTCCAvGgAwIBAgIEEAAArDANBgkqhkiG9w0BAQUFADBEMQswCQYDVQQGEwJE
RTEPMA0GA1UECAwGSGVzc2VuMRQwEgYDVQQKDAtwcml2YWN5aWRlYTEOMAwGA1UE
AwwFQ0EwMDEwHhcNMTUwNzAxMTQxMDQxWhcNMTYwNjMwMTQxMDQxWjA3MRMwEQYD
VQQDEwpTdGV2ZSBUZXN0MSAwHgYJKoZIhvcNAQkBFhFzdGV2ZUBvcGVuc3NsLm9y
ZzCCASIwDQYJKoZIhvcNAQEBBQADggEPADCCAQoCggEBANKBiSBRSA9z9BEyJNUf
HP1c9bbmxfBSgdzSr2ZKfJMxYVyv0W0GcANgfHIMiN1JzZ4CbNJa11MP89q+aWS1
DwwA47NQR6Ozm7oTUNZYWkurOeARygonZwN4ImZtkh4bXEmu5mvRjjudBtPGrE1T
QxCr6JbBh4KXmY8g05kSNzGE4Yr/KQNfIpA+f5vgIMGt3K5MORoxlhcCjLLZtA0g
Ept9hlT9M/3BKmJG+GCWz24BbyLfE0fnl+wFciOjYvj676yccvA3yy83z5CoJ1GG
xtd4CI9+JaIVcKL7HLYVXqCXi4FMCSiKJzuUvHHbW3E3misW4G+1yfVLTyC6Zc+v
ra0CAwEAAaOCAQ4wggEKMAsGA1UdDwQEAwIFoDAJBgNVHRMEAjAAMBEGCWCGSAGG
+EIBAQQEAwIGQDAzBglghkgBhvhCAQ0EJhYkT3BlblNTTCBHZW5lcmF0ZWQgU2Vy
dmVyIENlcnRpZmljYXRlMB0GA1UdDgQWBBTlJW0+rw3dP0zyRRk51RTbfpzArTB0
BgNVHSMEbTBrgBT0p8DMkUavZPOR8if4yLJviocyc6FIpEYwRDELMAkGA1UEBhMC
REUxDzANBgNVBAgMBkhlc3NlbjEUMBIGA1UECgwLcHJpdmFjeWlkZWExDjAMBgNV
BAMMBUNBMDAxggkA+8jrrIPNEgcwEwYDVR0lBAwwCgYIKwYBBQUHAwEwDQYJKoZI
hvcNAQEFBQADggEBAFjKLL0xRUDfeh1pI58Qmh/FXCBP66nS2morxGALCSkOggwt
VL0q8xZNvId2OpQa7cvf9ubD/XSb2tfxCPD7NOQzVn8/gSKwc4lLEK30ez3/a2FD
lkDG14HE5IJpVg2/ctjgAIXhB1Eyz03M16XwamE1d9lFhKpFUCOoMNdFJrCytiXj
nTyT858RObOeUG4uuX8DsBKNwbIxY+35ylHgzlf4kOFnNOKE3dHZdtpDp3DjtTDu
IxRjVvvuDPZNYIlHGx7saZ8zOEU9LeNx7ezKg8Bu485uZAEPbIYCLZJoStY7BHJu
GshkeXT/is+Plzib/6NSF41nE8LCnvzoQVqtNT4=
-----END CERTIFICATE-----
