Certificate:
    Data:
        Version: 3 (0x2)
        Serial Number: 268435621 (0x100000a5)
    Signature Algorithm: sha1WithRSAEncryption
        Issuer: C=DE, ST=Hessen, O=privacyidea, CN=CA001
        Validity
            Not Before: Aug 18 07:18:50 2015 GMT
            Not After : Aug 17 07:18:50 2016 GMT
        Subject: C=DE, ST=Hessen, O=privacyidea, CN=requester.localdomain
        Subject Public Key Info:
            Public Key Algorithm: rsaEncryption
                Public-Key: (2048 bit)
                Modulus:
                    00:cd:be:14:4f:fa:ce:01:3f:42:22:1b:1d:9c:af:
                    dd:92:d2:7f:db:6c:b7:3e:39:43:43:6b:13:03:f1:
                    05:f4:07:74:bc:76:69:28:0b:af:19:8e:d7:fc:e3:
                    cd:c6:58:f2:ca:7f:08:6d:53:fc:07:02:44:24:c6:
                    b4:34:4c:8c:04:fe:33:0e:40:e2:20:ba:02:73:5a:
                    f7:f5:4f:63:6e:cc:c6:b6:df:54:1d:37:39:7d:51:
                    36:26:5f:bd:dc:3f:a8:8b:6b:a2:ae:b6:9d:d6:21:
                    e7:df:41:b8:7a:28:2a:68:48:ca:a8:2d:ed:e1:e9:
                    46:5e:5a:72:6d:b4:84:38:87:91:fd:94:11:0b:28:
                    84:c6:c2:2f:2a:fb:01:f9:36:7a:09:75:d1:33:88:
                    3c:73:41:5b:c8:bf:94:89:70:a1:f0:c0:b9:2e:50:
                    53:1e:b1:17:64:69:f4:2d:81:e0:a9:0d:0e:32:e9:
                    ba:55:8a:85:f1:1b:6f:49:79:b4:7f:88:c3:0d:3e:
                    54:88:9b:3d:1f:38:8c:04:f3:ee:6a:63:2b:f5:c6:
                    db:b4:83:aa:c4:78:41:3a:7d:4b:e1:c8:3e:71:ca:
                    1b:61:59:ea:c6:c4:ca:32:5e:c9:e9:bf:12:29:e6:
                    c6:c3:63:fe:a0:55:da:7a:f1:60:98:4d:26:ed:fa:
                    70:2d
                Exponent: 65537 (0x10001)
        X509v3 extensions:
            X509v3 Key Usage: 
                Digital Signature, Key Encipherment
            X509v3 Basic Constraints: 
                CA:FALSE
            Netscape Cert Type: 
                SSL Server
            Netscape Comment: 
                OpenSSL Generated Server Certificate
            X509v3 Subject Key Identifier: 
                53:3F:ED:5D:09:07:B3:65:7B:AB:45:C9:24:5B:09:77:80:0A:96:ED
            X509v3 Authority Key Identifier: 
                keyid:F4:A7:C0:CC:91:46:AF:64:F3:91:F2:27:F8:C8:B2:6F:8A:87:32:73
                DirName:/C=DE/ST=Hessen/O=privacyidea/CN=CA001
                serial:FB:C8:EB:AC:83:CD:12:07

            X509v3 Extended Key Usage: 
                TLS Web Server Authentication
    Signature Algorithm: sha1WithRSAEncryption
         36:78:7b:4f:aa:95:b5:98:60:07:65:5b:00:1b:18:75:3a:80:
         06:00:68:85:16:df:76:f7:23:31:5a:05:b4:71:c1:3a:90:97:
         c0:54:0b:21:08:cc:d0:2f:75:49:64:6e:de:25:f3:65:c4:73:
         b1:ac:e4:63:4f:96:1a:9a:7d:88:d3:85:12:e5:00:33:2a:1b:
         45:91:81:e4:b1:43:73:30:e2:03:c6:dc:3a:0b:04:bf:59:df:
         fa:2d:41:5c:46:8a:44:26:c5:3d:48:8b:0b:6f:43:55:f2:cb:
         73:36:4c:eb:6a:a1:1e:c0:94:65:08:d2:72:77:00:b2:be:fb:
         9d:88:07:2b:4c:4d:23:d1:d5:99:4f:eb:4e:31:43:fa:8a:4a:
         9d:21:8e:1a:05:15:f3:4c:32:c2:1e:c5:ff:c6:14:16:ce:92:
         32:07:b3:df:e6:41:8c:0f:3d:73:11:b4:6e:f5:cf:dd:49:bd:
         91:18:bd:43:48:36:b1:ab:d6:cb:b0:0b:e4:d5:71:7e:27:20:
         87:f4:f8:44:43:84:89:41:86:a9:9f:50:e3:2b:48:87:f0:7a:
         e4:d9:6f:a1:38:be:19:66:f3:6d:0a:26:c2:87:73:8d:0b:f2:
         dd:58:0c:0b:99:c8:e7:64:e0:96:b2:e0:38:7e:5c:b2:26:7d:
         00:1f:5b:0a
-----BEGIN CERTIFICATE-----
MIIEJjCCAw6gAwIBAgIEEAAApTANBgkqhkiG9w0BAQUFADBEMQswCQYDVQQGEwJE
RTEPMA0GA1UECAwGSGVzc2VuMRQwEgYDVQQKDAtwcml2YWN5aWRlYTEOMAwGA1UE
AwwFQ0EwMDEwHhcNMTUwODE4MDcxODUwWhcNMTYwODE3MDcxODUwWjBUMQswCQYD
VQQGEwJERTEPMA0GA1UECAwGSGVzc2VuMRQwEgYDVQQKDAtwcml2YWN5aWRlYTEe
MBwGA1UEAwwVcmVxdWVzdGVyLmxvY2FsZG9tYWluMIIBIjANBgkqhkiG9w0BAQEF
AAOCAQ8AMIIBCgKCAQEAzb4UT/rOAT9CIhsdnK/dktJ/22y3PjlDQ2sTA/EF9Ad0
vHZpKAuvGY7X/OPNxljyyn8IbVP8BwJEJMa0NEyMBP4zDkDiILoCc1r39U9jbszG
tt9UHTc5fVE2Jl+93D+oi2uirrad1iHn30G4eigqaEjKqC3t4elGXlpybbSEOIeR
/ZQRCyiExsIvKvsB+TZ6CXXRM4g8c0FbyL+UiXCh8MC5LlBTHrEXZGn0LYHgqQ0O
Mum6VYqF8RtvSXm0f4jDDT5UiJs9HziMBPPuamMr9cbbtIOqxHhBOn1L4cg+ccob
YVnqxsTKMl7J6b8SKebGw2P+oFXaevFgmE0m7fpwLQIDAQABo4IBDjCCAQowCwYD
VR0PBAQDAgWgMAkGA1UdEwQCMAAwEQYJYIZIAYb4QgEBBAQDAgZAMDMGCWCGSAGG
+EIBDQQmFiRPcGVuU1NMIEdlbmVyYXRlZCBTZXJ2ZXIgQ2VydGlmaWNhdGUwHQYD
VR0OBBYEFFM/7V0JB7Nle6tFySRbCXeACpbtMHQGA1UdIwRtMGuAFPSnwMyRRq9k
85HyJ/jIsm+KhzJzoUikRjBEMQswCQYDVQQGEwJERTEPMA0GA1UECAwGSGVzc2Vu
MRQwEgYDVQQKDAtwcml2YWN5aWRlYTEOMAwGA1UEAwwFQ0EwMDGCCQD7yOusg80S
BzATBgNVHSUEDDAKBggrBgEFBQcDATANBgkqhkiG9w0BAQUFAAOCAQEANnh7T6qV
tZhgB2VbABsYdTqABgBohRbfdvcjMVoFtHHBOpCXwFQLIQjM0C91SWRu3iXzZcRz
sazkY0+WGpp9iNOFEuUAMyobRZGB5LFDczDiA8bcOgsEv1nf+i1BXEaKRCbFPUiL
C29DVfLLczZM62qhHsCUZQjScncAsr77nYgHK0xNI9HVmU/rTjFD+opKnSGOGgUV
80wywh7F/8YUFs6SMgez3+ZBjA89cxG0bvXP3Um9kRi9Q0g2savWy7AL5NVxficg
h/T4REOEiUGGqZ9Q4ytIh/B65NlvoTi+GWbzbQomwodzjQvy3VgMC5nI52TglrLg
OH5csiZ9AB9bCg==
-----END CERTIFICATE-----
