Certificate:
    Data:
        Version: 3 (0x2)
        Serial Number: 268435621 (0x100000a5)
    Signature Algorithm: sha1WithRSAEncryption
        Issuer: C=DE, ST=Hessen, O=privacyidea, CN=CA001
        Validity
            Not Before: Sep  7 09:07:26 2015 GMT
            Not After : Sep  6 09:07:26 2016 GMT
        Subject: C=DE, ST=Hessen, O=privacyidea, CN=usercert
        Subject Public Key Info:
            Public Key Algorithm: rsaEncryption
                Public-Key: (2048 bit)
                Modulus:
                    00:dc:2f:d1:5f:29:97:d4:7c:c3:53:c8:30:bd:4b:
                    67:70:2c:24:6b:b8:5e:eb:21:7a:48:12:56:7c:81:
                    5c:48:75:b6:68:eb:f6:f2:98:4e:50:51:d1:7f:6c:
                    73:f3:0a:a7:ae:be:48:5e:e5:d6:e1:d9:2a:7c:32:
                    6e:4e:fd:08:f6:5a:54:49:23:73:c3:b9:07:18:d1:
                    ef:b3:ac:f8:8a:dc:94:96:a4:90:3a:8e:74:df:e6:
                    0d:37:1b:bd:5b:b7:25:1a:56:39:da:6f:91:aa:5e:
                    1c:74:f3:f9:7c:14:01:83:12:65:76:c7:bb:fe:36:
                    5b:95:e9:72:65:83:ed:3e:98:30:71:fa:87:dd:a3:
                    36:5a:30:03:2e:26:e0:61:d1:bf:02:3f:b6:06:1f:
                    4a:89:28:1c:5c:a2:ff:4e:be:94:e6:8c:e0:da:82:
                    f1:9d:29:32:48:30:73:b4:04:f6:42:1e:be:f7:e2:
                    32:32:27:3c:9d:89:2f:70:3e:85:9a:6f:5c:c5:09:
                    c0:8c:32:2f:72:22:c9:d2:95:1f:b6:ac:72:60:72:
                    b7:82:4d:6b:ce:5b:e3:00:d0:d2:2f:58:c6:e0:10:
                    e5:51:ca:4d:3b:2e:e6:7e:ab:84:d6:56:f1:93:35:
                    a0:93:64:26:81:75:2f:91:b5:16:06:38:0b:db:cc:
                    2d:07
                Exponent: 65537 (0x10001)
        X509v3 extensions:
            X509v3 Key Usage: 
                Digital Signature, Key Encipherment
            X509v3 Basic Constraints: 
                CA:FALSE
            Netscape Cert Type: 
                SSL Server
            Netscape Comment: 
                OpenSSL Generated Server Certificate
            X509v3 Subject Key Identifier: 
                FC:14:D1:F0:4B:8D:00:90:F2:F5:B8:71:9E:4E:97:C3:92:54:AD:0B
            X509v3 Authority Key Identifier: 
                keyid:F4:A7:C0:CC:91:46:AF:64:F3:91:F2:27:F8:C8:B2:6F:8A:87:32:73
                DirName:/C=DE/ST=Hessen/O=privacyidea/CN=CA001
                serial:FB:C8:EB:AC:83:CD:12:07

            X509v3 Extended Key Usage: 
                TLS Web Server Authentication
    Signature Algorithm: sha1WithRSAEncryption
         02:a5:64:97:c0:b8:72:7a:3a:34:c4:ee:67:3d:09:b7:74:19:
         80:38:96:ec:5a:cb:f0:84:38:08:a0:d6:59:7f:30:72:fd:db:
         56:78:4f:4e:bc:ba:87:f2:23:63:2e:e4:b0:f4:56:76:16:67:
         0a:98:b8:6a:e9:fd:14:58:30:a0:c5:90:dd:ef:67:4c:06:39:
         64:41:d5:98:ba:62:e9:c1:97:0b:92:ea:ae:d8:fd:9d:c7:7a:
         76:a1:85:df:85:32:65:b6:3e:bb:15:0e:f5:a4:f3:bc:2c:7e:
         6c:13:6a:c1:eb:f2:d0:27:f3:ba:ae:18:7a:a2:6b:85:30:73:
         98:47:f5:17:e1:da:0b:1a:97:f8:35:02:53:86:13:f4:8e:2f:
         30:39:f6:06:c0:bf:c4:34:fd:99:ec:3c:f1:eb:21:84:39:1f:
         43:ea:d6:49:59:58:6b:95:dd:69:37:a9:ae:56:a5:5a:92:f8:
         66:07:ef:d8:d6:73:4d:99:c1:57:49:c0:94:9d:29:b8:b6:53:
         de:5b:23:d7:d3:55:28:99:a0:f2:11:b6:1e:52:03:00:55:8f:
         51:b1:d9:42:1d:e8:b1:78:0c:e0:58:f0:8a:1f:1f:ca:aa:0b:
         4c:bc:e0:2c:cc:f1:69:9d:2e:17:d6:c7:ea:36:86:01:fc:1c:
         98:89:9e:47
-----BEGIN CERTIFICATE-----
MIIEGTCCAwGgAwIBAgIEEAAApTANBgkqhkiG9w0BAQUFADBEMQswCQYDVQQGEwJE
RTEPMA0GA1UECAwGSGVzc2VuMRQwEgYDVQQKDAtwcml2YWN5aWRlYTEOMAwGA1UE
AwwFQ0EwMDEwHhcNMTUwOTA3MDkwNzI2WhcNMTYwOTA2MDkwNzI2WjBHMQswCQYD
VQQGEwJERTEPMA0GA1UECAwGSGVzc2VuMRQwEgYDVQQKDAtwcml2YWN5aWRlYTER
MA8GA1UEAwwIdXNlcmNlcnQwggEiMA0GCSqGSIb3DQEBAQUAA4IBDwAwggEKAoIB
AQDcL9FfKZfUfMNTyDC9S2dwLCRruF7rIXpIElZ8gVxIdbZo6/bymE5QUdF/bHPz
Cqeuvkhe5dbh2Sp8Mm5O/Qj2WlRJI3PDuQcY0e+zrPiK3JSWpJA6jnTf5g03G71b
tyUaVjnab5GqXhx08/l8FAGDEmV2x7v+NluV6XJlg+0+mDBx+ofdozZaMAMuJuBh
0b8CP7YGH0qJKBxcov9OvpTmjODagvGdKTJIMHO0BPZCHr734jIyJzydiS9wPoWa
b1zFCcCMMi9yIsnSlR+2rHJgcreCTWvOW+MA0NIvWMbgEOVRyk07LuZ+q4TWVvGT
NaCTZCaBdS+RtRYGOAvbzC0HAgMBAAGjggEOMIIBCjALBgNVHQ8EBAMCBaAwCQYD
VR0TBAIwADARBglghkgBhvhCAQEEBAMCBkAwMwYJYIZIAYb4QgENBCYWJE9wZW5T
U0wgR2VuZXJhdGVkIFNlcnZlciBDZXJ0aWZpY2F0ZTAdBgNVHQ4EFgQU/BTR8EuN
AJDy9bhxnk6Xw5JUrQswdAYDVR0jBG0wa4AU9KfAzJFGr2TzkfIn+Miyb4qHMnOh
SKRGMEQxCzAJBgNVBAYTAkRFMQ8wDQYDVQQIDAZIZXNzZW4xFDASBgNVBAoMC3By
aXZhY3lpZGVhMQ4wDAYDVQQDDAVDQTAwMYIJAPvI66yDzRIHMBMGA1UdJQQMMAoG
CCsGAQUFBwMBMA0GCSqGSIb3DQEBBQUAA4IBAQACpWSXwLhyejo0xO5nPQm3dBmA
OJbsWsvwhDgIoNZZfzBy/dtWeE9OvLqH8iNjLuSw9FZ2FmcKmLhq6f0UWDCgxZDd
72dMBjlkQdWYumLpwZcLkuqu2P2dx3p2oYXfhTJltj67FQ71pPO8LH5sE2rB6/LQ
J/O6rhh6omuFMHOYR/UX4doLGpf4NQJThhP0ji8wOfYGwL/ENP2Z7Dzx6yGEOR9D
6tZJWVhrld1pN6muVqVakvhmB+/Y1nNNmcFXScCUnSm4tlPeWyPX01UomaDyEbYe
UgMAVY9RsdlCHeixeAzgWPCKHx/KqgtMvOAszPFpnS4X1sfqNoYB/ByYiZ5H
-----END CERTIFICATE-----
