Certificate:
    Data:
        Version: 3 (0x2)
        Serial Number: 268435608 (0x10000098)
    Signature Algorithm: sha1WithRSAEncryption
        Issuer: C=DE, ST=Hessen, O=privacyidea, CN=CA001
        Validity
            Not Before: Sep  7 07:52:29 2015 GMT
            Not After : Sep  6 07:52:29 2016 GMT
        Subject: C=DE, ST=Hessen, O=privacyidea, CN=requester.localdomain
        Subject Public Key Info:
            Public Key Algorithm: rsaEncryption
                Public-Key: (2048 bit)
                Modulus:
                    00:cd:be:14:4f:fa:ce:01:3f:42:22:1b:1d:9c:af:
                    dd:92:d2:7f:db:6c:b7:3e:39:43:43:6b:13:03:f1:
                    05:f4:07:74:bc:76:69:28:0b:af:19:8e:d7:fc:e3:
                    cd:c6:58:f2:ca:7f:08:6d:53:fc:07:02:44:24:c6:
                    b4:34:4c:8c:04:fe:33:0e:40:e2:20:ba:02:73:5a:
                    f7:f5:4f:63:6e:cc:c6:b6:df:54:1d:37:39:7d:51:
                    36:26:5f:bd:dc:3f:a8:8b:6b:a2:ae:b6:9d:d6:21:
                    e7:df:41:b8:7a:28:2a:68:48:ca:a8:2d:ed:e1:e9:
                    46:5e:5a:72:6d:b4:84:38:87:91:fd:94:11:0b:28:
                    84:c6:c2:2f:2a:fb:01:f9:36:7a:09:75:d1:33:88:
                    3c:73:41:5b:c8:bf:94:89:70:a1:f0:c0:b9:2e:50:
                    53:1e:b1:17:64:69:f4:2d:81:e0:a9:0d:0e:32:e9:
                    ba:55:8a:85:f1:1b:6f:49:79:b4:7f:88:c3:0d:3e:
                    54:88:9b:3d:1f:38:8c:04:f3:ee:6a:63:2b:f5:c6:
                    db:b4:83:aa:c4:78:41:3a:7d:4b:e1:c8:3e:71:ca:
                    1b:61:59:ea:c6:c4:ca:32:5e:c9:e9:bf:12:29:e6:
                    c6:c3:63:fe:a0:55:da:7a:f1:60:98:4d:26:ed:fa:
                    70:2d
                Exponent: 65537 (0x10001)
        X509v3 extensions:
            X509v3 Key Usage: 
                Digital Signature, Key Encipherment
            X509v3 Basic Constraints: 
                CA:FALSE
            Netscape Cert Type: 
                SSL Server
            Netscape Comment: 
                OpenSSL Generated Server Certificate
            X509v3 Subject Key Identifier: 
                53:3F:ED:5D:09:07:B3:65:7B:AB:45:C9:24:5B:09:77:80:0A:96:ED
            X509v3 Authority Key Identifier: 
                keyid:F4:A7:C0:CC:91:46:AF:64:F3:91:F2:27:F8:C8:B2:6F:8A:87:32:73
                DirName:/C=DE/ST=Hessen/O=privacyidea/CN=CA001
                serial:FB:C8:EB:AC:83:CD:12:07

            X509v3 Extended Key Usage: 
                TLS Web Server Authentication
    Signature Algorithm: sha1WithRSAEncryption
         9c:8e:7a:3e:3c:ad:39:dc:1d:97:92:6b:d5:9a:fc:e7:ea:3d:
         f7:31:8e:8e:f2:ac:dd:5e:e8:38:b4:95:58:08:7e:85:e7:5b:
         43:b2:fe:73:cb:b2:3d:d2:6f:7f:4b:a8:cf:16:44:16:cd:f4:
         64:43:07:79:fa:9b:0f:24:ed:ea:a8:eb:3d:93:16:09:e8:ac:
         bb:f7:66:92:4f:80:3a:40:84:31:f8:db:79:c4:79:b6:68:a3:
         e4:ea:62:f9:69:16:11:21:9e:d9:87:0d:71:ce:d7:21:e3:27:
         08:cc:46:f1:2a:da:74:02:10:72:9c:a4:c7:48:11:05:38:8b:
         4c:dc:b6:68:79:b2:ca:dc:78:aa:7a:13:d5:1e:27:02:b0:d5:
         39:66:44:ae:cc:07:02:55:82:99:12:48:87:dc:8d:9d:3b:41:
         5e:e5:3f:5a:44:f5:20:a4:ee:36:0d:36:07:e0:f6:57:95:a3:
         ab:64:2a:a9:d3:54:60:f5:1a:fe:43:c5:ae:36:33:ed:0c:c6:
         23:77:72:b9:b4:f4:68:2e:00:a1:3d:07:7e:ac:b4:75:82:3d:
         9d:f9:41:e9:c3:17:f3:09:b8:d4:7e:2e:29:96:32:b9:40:76:
         e0:a3:3d:14:86:2d:90:c4:62:ad:a2:97:f1:a1:dc:ff:27:2b:
         dc:3a:0c:0c
-----BEGIN CERTIFICATE-----
MIIEJjCCAw6gAwIBAgIEEAAAmDANBgkqhkiG9w0BAQUFADBEMQswCQYDVQQGEwJE
RTEPMA0GA1UECAwGSGVzc2VuMRQwEgYDVQQKDAtwcml2YWN5aWRlYTEOMAwGA1UE
AwwFQ0EwMDEwHhcNMTUwOTA3MDc1MjI5WhcNMTYwOTA2MDc1MjI5WjBUMQswCQYD
VQQGEwJERTEPMA0GA1UECAwGSGVzc2VuMRQwEgYDVQQKDAtwcml2YWN5aWRlYTEe
MBwGA1UEAwwVcmVxdWVzdGVyLmxvY2FsZG9tYWluMIIBIjANBgkqhkiG9w0BAQEF
AAOCAQ8AMIIBCgKCAQEAzb4UT/rOAT9CIhsdnK/dktJ/22y3PjlDQ2sTA/EF9Ad0
vHZpKAuvGY7X/OPNxljyyn8IbVP8BwJEJMa0NEyMBP4zDkDiILoCc1r39U9jbszG
tt9UHTc5fVE2Jl+93D+oi2uirrad1iHn30G4eigqaEjKqC3t4elGXlpybbSEOIeR
/ZQRCyiExsIvKvsB+TZ6CXXRM4g8c0FbyL+UiXCh8MC5LlBTHrEXZGn0LYHgqQ0O
Mum6VYqF8RtvSXm0f4jDDT5UiJs9HziMBPPuamMr9cbbtIOqxHhBOn1L4cg+ccob
YVnqxsTKMl7J6b8SKebGw2P+oFXaevFgmE0m7fpwLQIDAQABo4IBDjCCAQowCwYD
VR0PBAQDAgWgMAkGA1UdEwQCMAAwEQYJYIZIAYb4QgEBBAQDAgZAMDMGCWCGSAGG
+EIBDQQmFiRPcGVuU1NMIEdlbmVyYXRlZCBTZXJ2ZXIgQ2VydGlmaWNhdGUwHQYD
VR0OBBYEFFM/7V0JB7Nle6tFySRbCXeACpbtMHQGA1UdIwRtMGuAFPSnwMyRRq9k
85HyJ/jIsm+KhzJzoUikRjBEMQswCQYDVQQGEwJERTEPMA0GA1UECAwGSGVzc2Vu
MRQwEgYDVQQKDAtwcml2YWN5aWRlYTEOMAwGA1UEAwwFQ0EwMDGCCQD7yOusg80S
BzATBgNVHSUEDDAKBggrBgEFBQcDATANBgkqhkiG9w0BAQUFAAOCAQEAnI56Pjyt
Odwdl5Jr1Zr85+o99zGOjvKs3V7oOLSVWAh+hedbQ7L+c8uyPdJvf0uozxZEFs30
ZEMHefqbDyTt6qjrPZMWCeisu/dmkk+AOkCEMfjbecR5tmij5Opi+WkWESGe2YcN
cc7XIeMnCMxG8SradAIQcpykx0gRBTiLTNy2aHmyytx4qnoT1R4nArDVOWZErswH
AlWCmRJIh9yNnTtBXuU/WkT1IKTuNg02B+D2V5Wjq2QqqdNUYPUa/kPFrjYz7QzG
I3dyubT0aC4AoT0Hfqy0dYI9nflB6cMX8wm41H4uKZYyuUB24KM9FIYtkMRiraKX
8aHc/ycr3DoMDA==
-----END CERTIFICATE-----
