Certificate:
    Data:
        Version: 3 (0x2)
        Serial Number: 268435625 (0x100000a9)
    Signature Algorithm: sha1WithRSAEncryption
        Issuer: C=DE, ST=Hessen, O=privacyidea, CN=CA001
        Validity
            Not Before: Sep  7 09:52:35 2015 GMT
            Not After : Sep  6 09:52:35 2016 GMT
        Subject: C=DE, ST=Hessen, O=privacyidea, CN=requester.localdomain
        Subject Public Key Info:
            Public Key Algorithm: rsaEncryption
                Public-Key: (2048 bit)
                Modulus:
                    00:cd:be:14:4f:fa:ce:01:3f:42:22:1b:1d:9c:af:
                    dd:92:d2:7f:db:6c:b7:3e:39:43:43:6b:13:03:f1:
                    05:f4:07:74:bc:76:69:28:0b:af:19:8e:d7:fc:e3:
                    cd:c6:58:f2:ca:7f:08:6d:53:fc:07:02:44:24:c6:
                    b4:34:4c:8c:04:fe:33:0e:40:e2:20:ba:02:73:5a:
                    f7:f5:4f:63:6e:cc:c6:b6:df:54:1d:37:39:7d:51:
                    36:26:5f:bd:dc:3f:a8:8b:6b:a2:ae:b6:9d:d6:21:
                    e7:df:41:b8:7a:28:2a:68:48:ca:a8:2d:ed:e1:e9:
                    46:5e:5a:72:6d:b4:84:38:87:91:fd:94:11:0b:28:
                    84:c6:c2:2f:2a:fb:01:f9:36:7a:09:75:d1:33:88:
                    3c:73:41:5b:c8:bf:94:89:70:a1:f0:c0:b9:2e:50:
                    53:1e:b1:17:64:69:f4:2d:81:e0:a9:0d:0e:32:e9:
                    ba:55:8a:85:f1:1b:6f:49:79:b4:7f:88:c3:0d:3e:
                    54:88:9b:3d:1f:38:8c:04:f3:ee:6a:63:2b:f5:c6:
                    db:b4:83:aa:c4:78:41:3a:7d:4b:e1:c8:3e:71:ca:
                    1b:61:59:ea:c6:c4:ca:32:5e:c9:e9:bf:12:29:e6:
                    c6:c3:63:fe:a0:55:da:7a:f1:60:98:4d:26:ed:fa:
                    70:2d
                Exponent: 65537 (0x10001)
        X509v3 extensions:
            X509v3 Key Usage: 
                Digital Signature, Key Encipherment
            X509v3 Basic Constraints: 
                CA:FALSE
            Netscape Cert Type: 
                SSL Server
            Netscape Comment: 
                OpenSSL Generated Server Certificate
            X509v3 Subject Key Identifier: 
                53:3F:ED:5D:09:07:B3:65:7B:AB:45:C9:24:5B:09:77:80:0A:96:ED
            X509v3 Authority Key Identifier: 
                keyid:F4:A7:C0:CC:91:46:AF:64:F3:91:F2:27:F8:C8:B2:6F:8A:87:32:73
                DirName:/C=DE/ST=Hessen/O=privacyidea/CN=CA001
                serial:FB:C8:EB:AC:83:CD:12:07

            X509v3 Extended Key Usage: 
                TLS Web Server Authentication
    Signature Algorithm: sha1WithRSAEncryption
         b6:03:ca:c7:7d:42:7e:16:3e:6d:41:2b:03:85:3b:e9:be:48:
         73:3a:88:a2:66:b0:f5:36:af:dd:32:61:51:37:c0:46:9d:69:
         5c:43:ba:94:eb:45:c0:70:b6:b9:7a:4b:05:bc:d8:e4:34:0f:
         56:df:b5:7d:fe:75:e0:5b:89:eb:14:d3:f8:fe:c9:96:fe:3a:
         ee:e5:35:ee:0a:fd:e0:26:32:2c:e0:90:1d:aa:17:e9:06:8c:
         1e:2c:c7:20:ce:f4:16:5b:32:61:ea:91:88:8c:5b:28:e2:26:
         40:b5:8e:ef:4d:be:8d:c0:fe:40:b3:71:2a:9f:fc:e6:7d:52:
         56:4c:6d:36:50:0c:a1:3c:a2:4e:93:24:c6:aa:b4:61:44:61:
         bf:e0:f1:08:9a:24:43:db:96:25:75:9f:c6:96:32:a5:c5:c1:
         b6:48:6d:ec:f9:9b:d3:a8:46:50:71:0b:3b:26:b6:bd:99:b0:
         9b:2e:68:c0:40:88:85:79:f8:45:75:3b:b5:59:6f:fd:09:0b:
         d2:c8:a9:cd:55:87:0e:49:59:7c:d0:5e:a9:ee:84:0d:15:4f:
         58:73:e6:65:17:11:b2:35:df:f8:7c:ac:71:1e:6c:80:41:c2:
         f6:61:29:57:60:a4:a1:91:c0:e2:db:dc:62:f0:30:a7:1b:59:
         9b:36:d1:a1
-----BEGIN CERTIFICATE-----
MIIEJjCCAw6gAwIBAgIEEAAAqTANBgkqhkiG9w0BAQUFADBEMQswCQYDVQQGEwJE
RTEPMA0GA1UECAwGSGVzc2VuMRQwEgYDVQQKDAtwcml2YWN5aWRlYTEOMAwGA1UE
AwwFQ0EwMDEwHhcNMTUwOTA3MDk1MjM1WhcNMTYwOTA2MDk1MjM1WjBUMQswCQYD
VQQGEwJERTEPMA0GA1UECAwGSGVzc2VuMRQwEgYDVQQKDAtwcml2YWN5aWRlYTEe
MBwGA1UEAwwVcmVxdWVzdGVyLmxvY2FsZG9tYWluMIIBIjANBgkqhkiG9w0BAQEF
AAOCAQ8AMIIBCgKCAQEAzb4UT/rOAT9CIhsdnK/dktJ/22y3PjlDQ2sTA/EF9Ad0
vHZpKAuvGY7X/OPNxljyyn8IbVP8BwJEJMa0NEyMBP4zDkDiILoCc1r39U9jbszG
tt9UHTc5fVE2Jl+93D+oi2uirrad1iHn30G4eigqaEjKqC3t4elGXlpybbSEOIeR
/ZQRCyiExsIvKvsB+TZ6CXXRM4g8c0FbyL+UiXCh8MC5LlBTHrEXZGn0LYHgqQ0O
Mum6VYqF8RtvSXm0f4jDDT5UiJs9HziMBPPuamMr9cbbtIOqxHhBOn1L4cg+ccob
YVnqxsTKMl7J6b8SKebGw2P+oFXaevFgmE0m7fpwLQIDAQABo4IBDjCCAQowCwYD
VR0PBAQDAgWgMAkGA1UdEwQCMAAwEQYJYIZIAYb4QgEBBAQDAgZAMDMGCWCGSAGG
+EIBDQQmFiRPcGVuU1NMIEdlbmVyYXRlZCBTZXJ2ZXIgQ2VydGlmaWNhdGUwHQYD
VR0OBBYEFFM/7V0JB7Nle6tFySRbCXeACpbtMHQGA1UdIwRtMGuAFPSnwMyRRq9k
85HyJ/jIsm+KhzJzoUikRjBEMQswCQYDVQQGEwJERTEPMA0GA1UECAwGSGVzc2Vu
MRQwEgYDVQQKDAtwcml2YWN5aWRlYTEOMAwGA1UEAwwFQ0EwMDGCCQD7yOusg80S
BzATBgNVHSUEDDAKBggrBgEFBQcDATANBgkqhkiG9w0BAQUFAAOCAQEAtgPKx31C
fhY+bUErA4U76b5IczqIomaw9Tav3TJhUTfARp1pXEO6lOtFwHC2uXpLBbzY5DQP
Vt+1ff514FuJ6xTT+P7Jlv467uU17gr94CYyLOCQHaoX6QaMHizHIM70FlsyYeqR
iIxbKOImQLWO702+jcD+QLNxKp/85n1SVkxtNlAMoTyiTpMkxqq0YURhv+DxCJok
Q9uWJXWfxpYypcXBtkht7Pmb06hGUHELOya2vZmwmy5owECIhXn4RXU7tVlv/QkL
0sipzVWHDklZfNBeqe6EDRVPWHPmZRcRsjXf+HyscR5sgEHC9mEpV2CkoZHA4tvc
YvAwpxtZmzbRoQ==
-----END CERTIFICATE-----
