Certificate:
    Data:
        Version: 3 (0x2)
        Serial Number: 268435613 (0x1000009d)
    Signature Algorithm: sha1WithRSAEncryption
        Issuer: C=DE, ST=Hessen, O=privacyidea, CN=CA001
        Validity
            Not Before: Sep  7 08:43:12 2015 GMT
            Not After : Sep  6 08:43:12 2016 GMT
        Subject: C=DE, ST=Hessen, O=privacyidea, CN=requester.localdomain
        Subject Public Key Info:
            Public Key Algorithm: rsaEncryption
                Public-Key: (2048 bit)
                Modulus:
                    00:cd:be:14:4f:fa:ce:01:3f:42:22:1b:1d:9c:af:
                    dd:92:d2:7f:db:6c:b7:3e:39:43:43:6b:13:03:f1:
                    05:f4:07:74:bc:76:69:28:0b:af:19:8e:d7:fc:e3:
                    cd:c6:58:f2:ca:7f:08:6d:53:fc:07:02:44:24:c6:
                    b4:34:4c:8c:04:fe:33:0e:40:e2:20:ba:02:73:5a:
                    f7:f5:4f:63:6e:cc:c6:b6:df:54:1d:37:39:7d:51:
                    36:26:5f:bd:dc:3f:a8:8b:6b:a2:ae:b6:9d:d6:21:
                    e7:df:41:b8:7a:28:2a:68:48:ca:a8:2d:ed:e1:e9:
                    46:5e:5a:72:6d:b4:84:38:87:91:fd:94:11:0b:28:
                    84:c6:c2:2f:2a:fb:01:f9:36:7a:09:75:d1:33:88:
                    3c:73:41:5b:c8:bf:94:89:70:a1:f0:c0:b9:2e:50:
                    53:1e:b1:17:64:69:f4:2d:81:e0:a9:0d:0e:32:e9:
                    ba:55:8a:85:f1:1b:6f:49:79:b4:7f:88:c3:0d:3e:
                    54:88:9b:3d:1f:38:8c:04:f3:ee:6a:63:2b:f5:c6:
                    db:b4:83:aa:c4:78:41:3a:7d:4b:e1:c8:3e:71:ca:
                    1b:61:59:ea:c6:c4:ca:32:5e:c9:e9:bf:12:29:e6:
                    c6:c3:63:fe:a0:55:da:7a:f1:60:98:4d:26:ed:fa:
                    70:2d
                Exponent: 65537 (0x10001)
        X509v3 extensions:
            X509v3 Key Usage: 
                Digital Signature, Key Encipherment
            X509v3 Basic Constraints: 
                CA:FALSE
            Netscape Cert Type: 
                SSL Server
            Netscape Comment: 
                OpenSSL Generated Server Certificate
            X509v3 Subject Key Identifier: 
                53:3F:ED:5D:09:07:B3:65:7B:AB:45:C9:24:5B:09:77:80:0A:96:ED
            X509v3 Authority Key Identifier: 
                keyid:F4:A7:C0:CC:91:46:AF:64:F3:91:F2:27:F8:C8:B2:6F:8A:87:32:73
                DirName:/C=DE/ST=Hessen/O=privacyidea/CN=CA001
                serial:FB:C8:EB:AC:83:CD:12:07

            X509v3 Extended Key Usage: 
                TLS Web Server Authentication
    Signature Algorithm: sha1WithRSAEncryption
         3a:0f:cd:90:29:3e:e7:b0:6c:73:56:52:81:ce:e9:11:23:03:
         8f:32:8b:56:05:3f:0c:1b:02:37:79:cd:c1:ab:61:e9:65:0b:
         16:e6:9f:b1:99:d3:19:9a:79:14:f7:93:40:2e:f4:37:98:d3:
         e0:d8:bd:a3:d6:8a:a3:d5:4d:3d:b1:a2:3e:de:2b:af:08:47:
         87:2d:b1:4c:41:71:d5:28:91:e5:2a:5b:a3:f0:86:ba:b5:d9:
         3d:a0:7c:e2:f2:29:b8:43:46:4b:8e:78:d5:ed:d3:ae:63:29:
         8e:03:d7:07:a8:c2:8c:3f:17:e8:b0:ac:66:87:bb:91:36:54:
         0b:14:94:df:5f:ac:ea:60:51:b4:85:32:50:6f:6f:25:54:e5:
         dd:11:62:a0:cc:f5:2f:2a:8b:69:b1:61:8d:a6:65:66:54:c9:
         ac:93:11:cd:5d:9e:7f:e6:49:b8:40:10:27:92:82:22:17:ee:
         3c:5f:6b:d6:df:d7:ca:81:4e:4a:5f:7b:2b:3f:46:cf:23:c7:
         43:af:4d:88:0d:21:4f:8c:62:91:c3:a7:14:bd:1f:c0:29:93:
         e0:1a:01:f1:00:e3:77:a4:23:6b:9c:75:cc:01:82:bc:66:03:
         41:23:82:21:ec:54:ad:e3:1c:6a:d7:87:51:55:c7:fc:c6:a0:
         e2:bc:7a:45
-----BEGIN CERTIFICATE-----
MIIEJjCCAw6gAwIBAgIEEAAAnTANBgkqhkiG9w0BAQUFADBEMQswCQYDVQQGEwJE
RTEPMA0GA1UECAwGSGVzc2VuMRQwEgYDVQQKDAtwcml2YWN5aWRlYTEOMAwGA1UE
AwwFQ0EwMDEwHhcNMTUwOTA3MDg0MzEyWhcNMTYwOTA2MDg0MzEyWjBUMQswCQYD
VQQGEwJERTEPMA0GA1UECAwGSGVzc2VuMRQwEgYDVQQKDAtwcml2YWN5aWRlYTEe
MBwGA1UEAwwVcmVxdWVzdGVyLmxvY2FsZG9tYWluMIIBIjANBgkqhkiG9w0BAQEF
AAOCAQ8AMIIBCgKCAQEAzb4UT/rOAT9CIhsdnK/dktJ/22y3PjlDQ2sTA/EF9Ad0
vHZpKAuvGY7X/OPNxljyyn8IbVP8BwJEJMa0NEyMBP4zDkDiILoCc1r39U9jbszG
tt9UHTc5fVE2Jl+93D+oi2uirrad1iHn30G4eigqaEjKqC3t4elGXlpybbSEOIeR
/ZQRCyiExsIvKvsB+TZ6CXXRM4g8c0FbyL+UiXCh8MC5LlBTHrEXZGn0LYHgqQ0O
Mum6VYqF8RtvSXm0f4jDDT5UiJs9HziMBPPuamMr9cbbtIOqxHhBOn1L4cg+ccob
YVnqxsTKMl7J6b8SKebGw2P+oFXaevFgmE0m7fpwLQIDAQABo4IBDjCCAQowCwYD
VR0PBAQDAgWgMAkGA1UdEwQCMAAwEQYJYIZIAYb4QgEBBAQDAgZAMDMGCWCGSAGG
+EIBDQQmFiRPcGVuU1NMIEdlbmVyYXRlZCBTZXJ2ZXIgQ2VydGlmaWNhdGUwHQYD
VR0OBBYEFFM/7V0JB7Nle6tFySRbCXeACpbtMHQGA1UdIwRtMGuAFPSnwMyRRq9k
85HyJ/jIsm+KhzJzoUikRjBEMQswCQYDVQQGEwJERTEPMA0GA1UECAwGSGVzc2Vu
MRQwEgYDVQQKDAtwcml2YWN5aWRlYTEOMAwGA1UEAwwFQ0EwMDGCCQD7yOusg80S
BzATBgNVHSUEDDAKBggrBgEFBQcDATANBgkqhkiG9w0BAQUFAAOCAQEAOg/NkCk+
57Bsc1ZSgc7pESMDjzKLVgU/DBsCN3nNwath6WULFuafsZnTGZp5FPeTQC70N5jT
4Ni9o9aKo9VNPbGiPt4rrwhHhy2xTEFx1SiR5Spbo/CGurXZPaB84vIpuENGS454
1e3TrmMpjgPXB6jCjD8X6LCsZoe7kTZUCxSU31+s6mBRtIUyUG9vJVTl3RFioMz1
LyqLabFhjaZlZlTJrJMRzV2ef+ZJuEAQJ5KCIhfuPF9r1t/XyoFOSl97Kz9GzyPH
Q69NiA0hT4xikcOnFL0fwCmT4BoB8QDjd6Qja5x1zAGCvGYDQSOCIexUreMcateH
UVXH/Mag4rx6RQ==
-----END CERTIFICATE-----
