Certificate:
    Data:
        Version: 3 (0x2)
        Serial Number: 268435609 (0x10000099)
    Signature Algorithm: sha1WithRSAEncryption
        Issuer: C=DE, ST=Hessen, O=privacyidea, CN=CA001
        Validity
            Not Before: Sep  7 07:52:29 2015 GMT
            Not After : Sep  6 07:52:29 2016 GMT
        Subject: C=DE, ST=Hessen, O=privacyidea, CN=usercert
        Subject Public Key Info:
            Public Key Algorithm: rsaEncryption
                Public-Key: (2048 bit)
                Modulus:
                    00:dc:2f:d1:5f:29:97:d4:7c:c3:53:c8:30:bd:4b:
                    67:70:2c:24:6b:b8:5e:eb:21:7a:48:12:56:7c:81:
                    5c:48:75:b6:68:eb:f6:f2:98:4e:50:51:d1:7f:6c:
                    73:f3:0a:a7:ae:be:48:5e:e5:d6:e1:d9:2a:7c:32:
                    6e:4e:fd:08:f6:5a:54:49:23:73:c3:b9:07:18:d1:
                    ef:b3:ac:f8:8a:dc:94:96:a4:90:3a:8e:74:df:e6:
                    0d:37:1b:bd:5b:b7:25:1a:56:39:da:6f:91:aa:5e:
                    1c:74:f3:f9:7c:14:01:83:12:65:76:c7:bb:fe:36:
                    5b:95:e9:72:65:83:ed:3e:98:30:71:fa:87:dd:a3:
                    36:5a:30:03:2e:26:e0:61:d1:bf:02:3f:b6:06:1f:
                    4a:89:28:1c:5c:a2:ff:4e:be:94:e6:8c:e0:da:82:
                    f1:9d:29:32:48:30:73:b4:04:f6:42:1e:be:f7:e2:
                    32:32:27:3c:9d:89:2f:70:3e:85:9a:6f:5c:c5:09:
                    c0:8c:32:2f:72:22:c9:d2:95:1f:b6:ac:72:60:72:
                    b7:82:4d:6b:ce:5b:e3:00:d0:d2:2f:58:c6:e0:10:
                    e5:51:ca:4d:3b:2e:e6:7e:ab:84:d6:56:f1:93:35:
                    a0:93:64:26:81:75:2f:91:b5:16:06:38:0b:db:cc:
                    2d:07
                Exponent: 65537 (0x10001)
        X509v3 extensions:
            X509v3 Key Usage: 
                Digital Signature, Key Encipherment
            X509v3 Basic Constraints: 
                CA:FALSE
            Netscape Cert Type: 
                SSL Server
            Netscape Comment: 
                OpenSSL Generated Server Certificate
            X509v3 Subject Key Identifier: 
                FC:14:D1:F0:4B:8D:00:90:F2:F5:B8:71:9E:4E:97:C3:92:54:AD:0B
            X509v3 Authority Key Identifier: 
                keyid:F4:A7:C0:CC:91:46:AF:64:F3:91:F2:27:F8:C8:B2:6F:8A:87:32:73
                DirName:/C=DE/ST=Hessen/O=privacyidea/CN=CA001
                serial:FB:C8:EB:AC:83:CD:12:07

            X509v3 Extended Key Usage: 
                TLS Web Server Authentication
    Signature Algorithm: sha1WithRSAEncryption
         4c:c3:fd:9e:98:c9:50:0a:d6:d0:97:72:a5:de:10:b1:d8:9f:
         75:1f:63:23:10:96:34:ff:7f:17:18:31:a5:8b:c6:cc:32:2c:
         e1:a8:7c:46:a2:c8:a2:48:75:8e:de:83:3a:cd:e6:e6:89:55:
         e4:a7:b8:d0:4d:b3:36:d1:56:30:a7:bc:2d:5d:00:35:3a:e0:
         3a:d5:c4:44:8e:af:ec:58:bb:29:14:2d:6e:7f:35:16:23:1d:
         9b:7d:e3:60:e0:9d:05:e0:ef:66:3e:c5:7b:89:03:ec:b9:d4:
         b2:b9:40:29:24:ae:ff:92:0f:94:c8:8d:87:99:34:9b:7c:9f:
         c7:01:2d:21:c8:fb:4d:29:8b:9e:d3:05:c0:cf:8a:2a:8e:83:
         22:db:d8:7f:e3:d8:40:7a:8b:8c:35:0d:cb:4d:55:9b:a7:7f:
         1a:6b:3f:6d:ac:6a:bb:20:70:f9:ee:a4:0d:f5:01:1d:a8:f1:
         01:50:e2:4a:c1:d8:60:de:a1:07:fd:4e:fe:38:c9:58:25:73:
         12:1e:bb:ff:56:93:07:8b:f8:fb:7c:24:97:f1:64:a8:12:2f:
         97:00:40:d5:d1:3d:f3:f4:c0:61:4e:ec:50:d8:da:52:8f:2c:
         b4:85:d5:07:80:b2:a6:f6:89:dd:ea:56:ce:74:1a:bb:f2:83:
         30:17:8f:fe
-----BEGIN CERTIFICATE-----
MIIEGTCCAwGgAwIBAgIEEAAAmTANBgkqhkiG9w0BAQUFADBEMQswCQYDVQQGEwJE
RTEPMA0GA1UECAwGSGVzc2VuMRQwEgYDVQQKDAtwcml2YWN5aWRlYTEOMAwGA1UE
AwwFQ0EwMDEwHhcNMTUwOTA3MDc1MjI5WhcNMTYwOTA2MDc1MjI5WjBHMQswCQYD
VQQGEwJERTEPMA0GA1UECAwGSGVzc2VuMRQwEgYDVQQKDAtwcml2YWN5aWRlYTER
MA8GA1UEAwwIdXNlcmNlcnQwggEiMA0GCSqGSIb3DQEBAQUAA4IBDwAwggEKAoIB
AQDcL9FfKZfUfMNTyDC9S2dwLCRruF7rIXpIElZ8gVxIdbZo6/bymE5QUdF/bHPz
Cqeuvkhe5dbh2Sp8Mm5O/Qj2WlRJI3PDuQcY0e+zrPiK3JSWpJA6jnTf5g03G71b
tyUaVjnab5GqXhx08/l8FAGDEmV2x7v+NluV6XJlg+0+mDBx+ofdozZaMAMuJuBh
0b8CP7YGH0qJKBxcov9OvpTmjODagvGdKTJIMHO0BPZCHr734jIyJzydiS9wPoWa
b1zFCcCMMi9yIsnSlR+2rHJgcreCTWvOW+MA0NIvWMbgEOVRyk07LuZ+q4TWVvGT
NaCTZCaBdS+RtRYGOAvbzC0HAgMBAAGjggEOMIIBCjALBgNVHQ8EBAMCBaAwCQYD
VR0TBAIwADARBglghkgBhvhCAQEEBAMCBkAwMwYJYIZIAYb4QgENBCYWJE9wZW5T
U0wgR2VuZXJhdGVkIFNlcnZlciBDZXJ0aWZpY2F0ZTAdBgNVHQ4EFgQU/BTR8EuN
AJDy9bhxnk6Xw5JUrQswdAYDVR0jBG0wa4AU9KfAzJFGr2TzkfIn+Miyb4qHMnOh
SKRGMEQxCzAJBgNVBAYTAkRFMQ8wDQYDVQQIDAZIZXNzZW4xFDASBgNVBAoMC3By
aXZhY3lpZGVhMQ4wDAYDVQQDDAVDQTAwMYIJAPvI66yDzRIHMBMGA1UdJQQMMAoG
CCsGAQUFBwMBMA0GCSqGSIb3DQEBBQUAA4IBAQBMw/2emMlQCtbQl3Kl3hCx2J91
H2MjEJY0/38XGDGli8bMMizhqHxGosiiSHWO3oM6zebmiVXkp7jQTbM20VYwp7wt
XQA1OuA61cREjq/sWLspFC1ufzUWIx2bfeNg4J0F4O9mPsV7iQPsudSyuUApJK7/
kg+UyI2HmTSbfJ/HAS0hyPtNKYue0wXAz4oqjoMi29h/49hAeouMNQ3LTVWbp38a
az9trGq7IHD57qQN9QEdqPEBUOJKwdhg3qEH/U7+OMlYJXMSHrv/VpMHi/j7fCSX
8WSoEi+XAEDV0T3z9MBhTuxQ2NpSjyy0hdUHgLKm9ond6lbOdBq78oMwF4/+
-----END CERTIFICATE-----
