Certificate:
    Data:
        Version: 3 (0x2)
        Serial Number: 268435619 (0x100000a3)
    Signature Algorithm: sha1WithRSAEncryption
        Issuer: C=DE, ST=Hessen, O=privacyidea, CN=CA001
        Validity
            Not Before: Sep  7 09:06:46 2015 GMT
            Not After : Sep  6 09:06:46 2016 GMT
        Subject: C=DE, ST=Hessen, O=privacyidea, CN=requester.localdomain
        Subject Public Key Info:
            Public Key Algorithm: rsaEncryption
                Public-Key: (2048 bit)
                Modulus:
                    00:cd:be:14:4f:fa:ce:01:3f:42:22:1b:1d:9c:af:
                    dd:92:d2:7f:db:6c:b7:3e:39:43:43:6b:13:03:f1:
                    05:f4:07:74:bc:76:69:28:0b:af:19:8e:d7:fc:e3:
                    cd:c6:58:f2:ca:7f:08:6d:53:fc:07:02:44:24:c6:
                    b4:34:4c:8c:04:fe:33:0e:40:e2:20:ba:02:73:5a:
                    f7:f5:4f:63:6e:cc:c6:b6:df:54:1d:37:39:7d:51:
                    36:26:5f:bd:dc:3f:a8:8b:6b:a2:ae:b6:9d:d6:21:
                    e7:df:41:b8:7a:28:2a:68:48:ca:a8:2d:ed:e1:e9:
                    46:5e:5a:72:6d:b4:84:38:87:91:fd:94:11:0b:28:
                    84:c6:c2:2f:2a:fb:01:f9:36:7a:09:75:d1:33:88:
                    3c:73:41:5b:c8:bf:94:89:70:a1:f0:c0:b9:2e:50:
                    53:1e:b1:17:64:69:f4:2d:81:e0:a9:0d:0e:32:e9:
                    ba:55:8a:85:f1:1b:6f:49:79:b4:7f:88:c3:0d:3e:
                    54:88:9b:3d:1f:38:8c:04:f3:ee:6a:63:2b:f5:c6:
                    db:b4:83:aa:c4:78:41:3a:7d:4b:e1:c8:3e:71:ca:
                    1b:61:59:ea:c6:c4:ca:32:5e:c9:e9:bf:12:29:e6:
                    c6:c3:63:fe:a0:55:da:7a:f1:60:98:4d:26:ed:fa:
                    70:2d
                Exponent: 65537 (0x10001)
        X509v3 extensions:
            X509v3 Key Usage: 
                Digital Signature, Key Encipherment
            X509v3 Basic Constraints: 
                CA:FALSE
            Netscape Cert Type: 
                SSL Server
            Netscape Comment: 
                OpenSSL Generated Server Certificate
            X509v3 Subject Key Identifier: 
                53:3F:ED:5D:09:07:B3:65:7B:AB:45:C9:24:5B:09:77:80:0A:96:ED
            X509v3 Authority Key Identifier: 
                keyid:F4:A7:C0:CC:91:46:AF:64:F3:91:F2:27:F8:C8:B2:6F:8A:87:32:73
                DirName:/C=DE/ST=Hessen/O=privacyidea/CN=CA001
                serial:FB:C8:EB:AC:83:CD:12:07

            X509v3 Extended Key Usage: 
                TLS Web Server Authentication
    Signature Algorithm: sha1WithRSAEncryption
         88:b0:67:93:e0:dc:4c:2c:21:9c:fd:27:57:cf:f4:45:65:e7:
         c0:ba:92:e2:4e:44:a7:36:88:bd:76:28:96:b8:7b:8a:5f:b0:
         2e:34:2d:f0:ec:b8:c0:5c:12:24:08:51:a9:11:1f:fc:d3:e9:
         6c:09:51:cc:15:3a:27:02:fc:b3:e5:b2:1e:24:c3:9c:9d:c6:
         48:cf:e9:f7:a8:fb:c4:a9:3d:bb:26:9c:b3:d0:e3:f6:68:28:
         38:27:a3:db:8f:ea:44:0c:ad:e2:c0:56:9d:92:ad:2a:3d:3a:
         a4:7e:5f:2b:82:c2:a5:35:78:6f:50:0f:74:6d:58:c5:9d:a4:
         60:0a:b1:7a:bb:49:5f:36:59:74:87:08:8c:5a:a2:b4:c7:ec:
         03:8c:04:2c:14:e4:45:f1:a6:a4:75:f3:58:77:18:79:c5:37:
         94:68:ad:c7:74:a3:aa:3e:b4:48:60:0b:54:9a:c8:b6:07:88:
         7c:2c:14:15:f2:14:be:3e:17:ea:cb:31:d2:73:a0:01:a6:d2:
         61:f9:05:f4:75:d6:b3:4d:67:2d:ee:ea:8c:52:9a:ba:55:74:
         7d:8d:54:5a:32:eb:fd:82:4a:72:f4:59:cd:10:43:28:04:bd:
         a9:af:bf:52:68:dd:fb:97:39:db:29:b0:e2:26:64:11:b8:3d:
         26:3c:56:8e
-----BEGIN CERTIFICATE-----
MIIEJjCCAw6gAwIBAgIEEAAAozANBgkqhkiG9w0BAQUFADBEMQswCQYDVQQGEwJE
RTEPMA0GA1UECAwGSGVzc2VuMRQwEgYDVQQKDAtwcml2YWN5aWRlYTEOMAwGA1UE
AwwFQ0EwMDEwHhcNMTUwOTA3MDkwNjQ2WhcNMTYwOTA2MDkwNjQ2WjBUMQswCQYD
VQQGEwJERTEPMA0GA1UECAwGSGVzc2VuMRQwEgYDVQQKDAtwcml2YWN5aWRlYTEe
MBwGA1UEAwwVcmVxdWVzdGVyLmxvY2FsZG9tYWluMIIBIjANBgkqhkiG9w0BAQEF
AAOCAQ8AMIIBCgKCAQEAzb4UT/rOAT9CIhsdnK/dktJ/22y3PjlDQ2sTA/EF9Ad0
vHZpKAuvGY7X/OPNxljyyn8IbVP8BwJEJMa0NEyMBP4zDkDiILoCc1r39U9jbszG
tt9UHTc5fVE2Jl+93D+oi2uirrad1iHn30G4eigqaEjKqC3t4elGXlpybbSEOIeR
/ZQRCyiExsIvKvsB+TZ6CXXRM4g8c0FbyL+UiXCh8MC5LlBTHrEXZGn0LYHgqQ0O
Mum6VYqF8RtvSXm0f4jDDT5UiJs9HziMBPPuamMr9cbbtIOqxHhBOn1L4cg+ccob
YVnqxsTKMl7J6b8SKebGw2P+oFXaevFgmE0m7fpwLQIDAQABo4IBDjCCAQowCwYD
VR0PBAQDAgWgMAkGA1UdEwQCMAAwEQYJYIZIAYb4QgEBBAQDAgZAMDMGCWCGSAGG
+EIBDQQmFiRPcGVuU1NMIEdlbmVyYXRlZCBTZXJ2ZXIgQ2VydGlmaWNhdGUwHQYD
VR0OBBYEFFM/7V0JB7Nle6tFySRbCXeACpbtMHQGA1UdIwRtMGuAFPSnwMyRRq9k
85HyJ/jIsm+KhzJzoUikRjBEMQswCQYDVQQGEwJERTEPMA0GA1UECAwGSGVzc2Vu
MRQwEgYDVQQKDAtwcml2YWN5aWRlYTEOMAwGA1UEAwwFQ0EwMDGCCQD7yOusg80S
BzATBgNVHSUEDDAKBggrBgEFBQcDATANBgkqhkiG9w0BAQUFAAOCAQEAiLBnk+Dc
TCwhnP0nV8/0RWXnwLqS4k5EpzaIvXYolrh7il+wLjQt8Oy4wFwSJAhRqREf/NPp
bAlRzBU6JwL8s+WyHiTDnJ3GSM/p96j7xKk9uyacs9Dj9mgoOCej24/qRAyt4sBW
nZKtKj06pH5fK4LCpTV4b1APdG1YxZ2kYAqxertJXzZZdIcIjFqitMfsA4wELBTk
RfGmpHXzWHcYecU3lGitx3Sjqj60SGALVJrItgeIfCwUFfIUvj4X6ssx0nOgAabS
YfkF9HXWs01nLe7qjFKaulV0fY1UWjLr/YJKcvRZzRBDKAS9qa+/Umjd+5c52ymw
4iZkEbg9JjxWjg==
-----END CERTIFICATE-----
