Certificate:
    Data:
        Version: 3 (0x2)
        Serial Number: 268435615 (0x1000009f)
    Signature Algorithm: sha1WithRSAEncryption
        Issuer: C=DE, ST=Hessen, O=privacyidea, CN=CA001
        Validity
            Not Before: Sep  7 08:43:51 2015 GMT
            Not After : Sep  6 08:43:51 2016 GMT
        Subject: C=DE, ST=Hessen, O=privacyidea, CN=usercert
        Subject Public Key Info:
            Public Key Algorithm: rsaEncryption
                Public-Key: (2048 bit)
                Modulus:
                    00:dc:2f:d1:5f:29:97:d4:7c:c3:53:c8:30:bd:4b:
                    67:70:2c:24:6b:b8:5e:eb:21:7a:48:12:56:7c:81:
                    5c:48:75:b6:68:eb:f6:f2:98:4e:50:51:d1:7f:6c:
                    73:f3:0a:a7:ae:be:48:5e:e5:d6:e1:d9:2a:7c:32:
                    6e:4e:fd:08:f6:5a:54:49:23:73:c3:b9:07:18:d1:
                    ef:b3:ac:f8:8a:dc:94:96:a4:90:3a:8e:74:df:e6:
                    0d:37:1b:bd:5b:b7:25:1a:56:39:da:6f:91:aa:5e:
                    1c:74:f3:f9:7c:14:01:83:12:65:76:c7:bb:fe:36:
                    5b:95:e9:72:65:83:ed:3e:98:30:71:fa:87:dd:a3:
                    36:5a:30:03:2e:26:e0:61:d1:bf:02:3f:b6:06:1f:
                    4a:89:28:1c:5c:a2:ff:4e:be:94:e6:8c:e0:da:82:
                    f1:9d:29:32:48:30:73:b4:04:f6:42:1e:be:f7:e2:
                    32:32:27:3c:9d:89:2f:70:3e:85:9a:6f:5c:c5:09:
                    c0:8c:32:2f:72:22:c9:d2:95:1f:b6:ac:72:60:72:
                    b7:82:4d:6b:ce:5b:e3:00:d0:d2:2f:58:c6:e0:10:
                    e5:51:ca:4d:3b:2e:e6:7e:ab:84:d6:56:f1:93:35:
                    a0:93:64:26:81:75:2f:91:b5:16:06:38:0b:db:cc:
                    2d:07
                Exponent: 65537 (0x10001)
        X509v3 extensions:
            X509v3 Key Usage: 
                Digital Signature, Key Encipherment
            X509v3 Basic Constraints: 
                CA:FALSE
            Netscape Cert Type: 
                SSL Server
            Netscape Comment: 
                OpenSSL Generated Server Certificate
            X509v3 Subject Key Identifier: 
                FC:14:D1:F0:4B:8D:00:90:F2:F5:B8:71:9E:4E:97:C3:92:54:AD:0B
            X509v3 Authority Key Identifier: 
                keyid:F4:A7:C0:CC:91:46:AF:64:F3:91:F2:27:F8:C8:B2:6F:8A:87:32:73
                DirName:/C=DE/ST=Hessen/O=privacyidea/CN=CA001
                serial:FB:C8:EB:AC:83:CD:12:07

            X509v3 Extended Key Usage: 
                TLS Web Server Authentication
    Signature Algorithm: sha1WithRSAEncryption
         a9:74:7a:cc:b6:d3:79:ba:d5:86:8a:1b:3b:d6:d1:ce:80:f0:
         64:a3:6d:e1:41:90:b7:40:36:ed:a4:e1:fc:22:cd:82:56:42:
         df:ab:69:14:d7:76:af:3e:5d:5f:8c:ca:b5:32:c9:54:05:14:
         e4:66:3d:58:4b:a7:b5:62:e9:a9:58:0e:fc:25:17:2b:22:e7:
         7d:35:9a:25:9f:28:81:10:c6:d3:f4:ac:4f:4d:13:d6:3f:7b:
         e9:b7:a7:52:e1:f7:c6:2f:48:af:a2:b3:49:15:a2:92:11:ac:
         26:3a:c9:2a:61:8d:20:a0:92:d2:17:db:22:2d:80:a1:ad:8f:
         bd:c6:46:38:50:70:03:33:53:35:1c:9d:da:d7:a2:d6:f2:f3:
         86:5a:db:68:c2:7f:ee:f8:12:69:bc:bd:61:2d:e7:cc:84:d5:
         35:43:11:b7:d1:0b:7f:7e:45:fc:08:32:6d:e6:33:a1:a1:5c:
         03:8b:92:c2:e3:a2:0b:3a:79:7e:6f:cd:21:98:d7:c0:6a:71:
         93:6c:ba:03:16:27:03:43:89:c1:b7:41:e2:71:fc:66:7c:61:
         be:25:c1:31:8a:04:8c:ff:00:67:bb:f9:02:54:6a:a6:b7:45:
         4b:2b:ec:7f:a8:dc:98:a1:b7:f8:62:60:0b:dd:50:36:9e:97:
         d4:8f:08:cd
-----BEGIN CERTIFICATE-----
MIIEGTCCAwGgAwIBAgIEEAAAnzANBgkqhkiG9w0BAQUFADBEMQswCQYDVQQGEwJE
RTEPMA0GA1UECAwGSGVzc2VuMRQwEgYDVQQKDAtwcml2YWN5aWRlYTEOMAwGA1UE
AwwFQ0EwMDEwHhcNMTUwOTA3MDg0MzUxWhcNMTYwOTA2MDg0MzUxWjBHMQswCQYD
VQQGEwJERTEPMA0GA1UECAwGSGVzc2VuMRQwEgYDVQQKDAtwcml2YWN5aWRlYTER
MA8GA1UEAwwIdXNlcmNlcnQwggEiMA0GCSqGSIb3DQEBAQUAA4IBDwAwggEKAoIB
AQDcL9FfKZfUfMNTyDC9S2dwLCRruF7rIXpIElZ8gVxIdbZo6/bymE5QUdF/bHPz
Cqeuvkhe5dbh2Sp8Mm5O/Qj2WlRJI3PDuQcY0e+zrPiK3JSWpJA6jnTf5g03G71b
tyUaVjnab5GqXhx08/l8FAGDEmV2x7v+NluV6XJlg+0+mDBx+ofdozZaMAMuJuBh
0b8CP7YGH0qJKBxcov9OvpTmjODagvGdKTJIMHO0BPZCHr734jIyJzydiS9wPoWa
b1zFCcCMMi9yIsnSlR+2rHJgcreCTWvOW+MA0NIvWMbgEOVRyk07LuZ+q4TWVvGT
NaCTZCaBdS+RtRYGOAvbzC0HAgMBAAGjggEOMIIBCjALBgNVHQ8EBAMCBaAwCQYD
VR0TBAIwADARBglghkgBhvhCAQEEBAMCBkAwMwYJYIZIAYb4QgENBCYWJE9wZW5T
U0wgR2VuZXJhdGVkIFNlcnZlciBDZXJ0aWZpY2F0ZTAdBgNVHQ4EFgQU/BTR8EuN
AJDy9bhxnk6Xw5JUrQswdAYDVR0jBG0wa4AU9KfAzJFGr2TzkfIn+Miyb4qHMnOh
SKRGMEQxCzAJBgNVBAYTAkRFMQ8wDQYDVQQIDAZIZXNzZW4xFDASBgNVBAoMC3By
aXZhY3lpZGVhMQ4wDAYDVQQDDAVDQTAwMYIJAPvI66yDzRIHMBMGA1UdJQQMMAoG
CCsGAQUFBwMBMA0GCSqGSIb3DQEBBQUAA4IBAQCpdHrMttN5utWGihs71tHOgPBk
o23hQZC3QDbtpOH8Is2CVkLfq2kU13avPl1fjMq1MslUBRTkZj1YS6e1YumpWA78
JRcrIud9NZolnyiBEMbT9KxPTRPWP3vpt6dS4ffGL0ivorNJFaKSEawmOskqYY0g
oJLSF9siLYChrY+9xkY4UHADM1M1HJ3a16LW8vOGWttown/u+BJpvL1hLefMhNU1
QxG30Qt/fkX8CDJt5jOhoVwDi5LC46ILOnl+b80hmNfAanGTbLoDFicDQ4nBt0Hi
cfxmfGG+JcExigSM/wBnu/kCVGqmt0VLK+x/qNyYobf4YmAL3VA2npfUjwjN
-----END CERTIFICATE-----
