Certificate:
    Data:
        Version: 3 (0x2)
        Serial Number: 268435612 (0x1000009c)
    Signature Algorithm: sha1WithRSAEncryption
        Issuer: C=DE, ST=Hessen, O=privacyidea, CN=CA001
        Validity
            Not Before: Sep  7 07:54:07 2015 GMT
            Not After : Sep  6 07:54:07 2016 GMT
        Subject: CN=selfservice,CN=user,O=realm1/emailAddress=meine
        Subject Public Key Info:
            Public Key Algorithm: rsaEncryption
                Public-Key: (2048 bit)
                Modulus:
                    00:cf:3c:d4:33:0e:12:c4:e6:da:cd:b6:56:a1:1c:
                    26:bb:26:1c:8a:4a:73:a8:58:8a:b6:1e:b3:8b:99:
                    d2:1d:07:c2:92:89:79:c0:69:d8:c8:df:28:61:98:
                    1e:b3:fe:ae:2b:bd:78:a9:f7:6e:47:dc:a3:a0:16:
                    8c:85:02:c1:4e:92:fd:72:6e:f0:c8:03:29:9b:b8:
                    00:6e:c0:83:95:c8:34:20:36:9c:b3:e5:e4:e6:76:
                    73:a3:1a:ad:40:96:e0:53:54:00:ec:76:79:9a:c6:
                    0d:7e:b6:bd:29:ec:83:f3:cb:89:a4:cb:6c:00:ba:
                    0c:c5:78:0f:ff:69:b8:94:f4:04:70:43:3f:d8:9e:
                    d7:a7:fb:5d:ce:75:8e:da:e7:c4:07:b1:9d:de:6f:
                    88:4b:b6:4d:9a:cf:f9:bc:fa:9f:cd:32:6d:f6:3a:
                    0b:0d:23:42:78:ec:97:42:bf:0e:4d:60:56:e1:d3:
                    02:f2:19:cb:84:57:90:e5:70:a1:a2:83:35:86:e2:
                    da:86:9f:f9:8a:c4:79:b3:52:28:da:cb:bb:34:ca:
                    d3:da:91:4a:cf:8d:76:a2:b2:6b:9b:f9:96:fd:09:
                    2a:da:11:23:4d:f0:cb:d6:b2:b1:0e:12:6c:9a:19:
                    65:98:87:ca:e4:ee:24:ce:44:ac:90:8f:9d:1b:c5:
                    2a:9d
                Exponent: 65537 (0x10001)
        X509v3 extensions:
            X509v3 Key Usage: 
                Digital Signature, Key Encipherment
            X509v3 Basic Constraints: 
                CA:FALSE
            Netscape Cert Type: 
                SSL Server
            Netscape Comment: 
                OpenSSL Generated Server Certificate
            X509v3 Subject Key Identifier: 
                4D:07:90:AD:FF:1D:0D:E7:1A:DD:D6:2E:FA:BA:34:CB:AA:1F:24:C6
            X509v3 Authority Key Identifier: 
                keyid:F4:A7:C0:CC:91:46:AF:64:F3:91:F2:27:F8:C8:B2:6F:8A:87:32:73
                DirName:/C=DE/ST=Hessen/O=privacyidea/CN=CA001
                serial:FB:C8:EB:AC:83:CD:12:07

            X509v3 Extended Key Usage: 
                TLS Web Server Authentication
    Signature Algorithm: sha1WithRSAEncryption
         09:b9:fc:f6:c2:66:dc:21:d8:24:d3:74:d2:2b:38:f1:d6:d4:
         7a:9e:05:36:dd:1c:05:9a:52:6d:b0:a9:8e:42:a6:20:45:3c:
         73:8b:27:2e:fd:6b:d0:74:31:13:c0:89:aa:36:f7:4c:4d:d6:
         c1:ea:31:88:af:c7:42:f8:7f:1e:00:df:0e:a2:8e:0c:f9:0d:
         d5:2a:08:eb:15:d8:ff:70:0a:c8:3b:f9:9d:4a:b2:39:6d:29:
         8a:19:b4:37:6e:0f:3d:51:ad:54:6b:aa:97:6d:e0:29:6f:f1:
         80:ef:41:14:98:d0:75:a6:df:3c:6e:1e:96:c0:46:5a:3c:5b:
         e5:08:1b:bf:c1:0d:dc:f3:bd:5c:96:c9:74:8a:ae:42:ba:cf:
         17:75:b1:df:46:e8:3d:a5:16:e3:bb:6e:91:09:55:54:9f:b2:
         0b:dd:59:ad:d1:29:bb:01:2b:86:9e:92:fc:c4:05:0d:58:ef:
         fe:4f:82:1e:62:53:43:19:11:58:fb:16:94:9c:57:a9:65:8e:
         de:1e:8a:8b:04:e5:af:ff:f3:b2:19:57:b4:2f:b2:2a:ff:6f:
         cf:9f:e4:87:3e:aa:ac:25:1e:a8:fe:d7:f5:aa:5f:a4:f5:8f:
         15:e3:11:c0:11:58:9b:05:ef:76:46:63:ba:a0:3f:ee:b4:d6:
         1e:62:ad:98
-----BEGIN CERTIFICATE-----
MIIEDzCCAvegAwIBAgIEEAAAnDANBgkqhkiG9w0BAQUFADBEMQswCQYDVQQGEwJE
RTEPMA0GA1UECAwGSGVzc2VuMRQwEgYDVQQKDAtwcml2YWN5aWRlYTEOMAwGA1UE
AwwFQ0EwMDEwHhcNMTUwOTA3MDc1NDA3WhcNMTYwOTA2MDc1NDA3WjA9MSUwIwYD
VQQDExxzZWxmc2VydmljZSxDTj11c2VyLE89cmVhbG0xMRQwEgYJKoZIhvcNAQkB
FgVtZWluZTCCASIwDQYJKoZIhvcNAQEBBQADggEPADCCAQoCggEBAM881DMOEsTm
2s22VqEcJrsmHIpKc6hYirYes4uZ0h0HwpKJecBp2MjfKGGYHrP+riu9eKn3bkfc
o6AWjIUCwU6S/XJu8MgDKZu4AG7Ag5XINCA2nLPl5OZ2c6MarUCW4FNUAOx2eZrG
DX62vSnsg/PLiaTLbAC6DMV4D/9puJT0BHBDP9ie16f7Xc51jtrnxAexnd5viEu2
TZrP+bz6n80ybfY6Cw0jQnjsl0K/Dk1gVuHTAvIZy4RXkOVwoaKDNYbi2oaf+YrE
ebNSKNrLuzTK09qRSs+NdqKya5v5lv0JKtoRI03wy9aysQ4SbJoZZZiHyuTuJM5E
rJCPnRvFKp0CAwEAAaOCAQ4wggEKMAsGA1UdDwQEAwIFoDAJBgNVHRMEAjAAMBEG
CWCGSAGG+EIBAQQEAwIGQDAzBglghkgBhvhCAQ0EJhYkT3BlblNTTCBHZW5lcmF0
ZWQgU2VydmVyIENlcnRpZmljYXRlMB0GA1UdDgQWBBRNB5Ct/x0N5xrd1i76ujTL
qh8kxjB0BgNVHSMEbTBrgBT0p8DMkUavZPOR8if4yLJviocyc6FIpEYwRDELMAkG
A1UEBhMCREUxDzANBgNVBAgMBkhlc3NlbjEUMBIGA1UECgwLcHJpdmFjeWlkZWEx
DjAMBgNVBAMMBUNBMDAxggkA+8jrrIPNEgcwEwYDVR0lBAwwCgYIKwYBBQUHAwEw
DQYJKoZIhvcNAQEFBQADggEBAAm5/PbCZtwh2CTTdNIrOPHW1HqeBTbdHAWaUm2w
qY5CpiBFPHOLJy79a9B0MRPAiao290xN1sHqMYivx0L4fx4A3w6ijgz5DdUqCOsV
2P9wCsg7+Z1KsjltKYoZtDduDz1RrVRrqpdt4Clv8YDvQRSY0HWm3zxuHpbARlo8
W+UIG7/BDdzzvVyWyXSKrkK6zxd1sd9G6D2lFuO7bpEJVVSfsgvdWa3RKbsBK4ae
kvzEBQ1Y7/5Pgh5iU0MZEVj7FpScV6lljt4eiosE5a//87IZV7Qvsir/b8+f5Ic+
qqwlHqj+1/WqX6T1jxXjEcARWJsF73ZGY7qgP+601h5irZg=
-----END CERTIFICATE-----
