Certificate:
    Data:
        Version: 3 (0x2)
        Serial Number: 268435610 (0x1000009a)
    Signature Algorithm: sha1WithRSAEncryption
        Issuer: C=DE, ST=Hessen, O=privacyidea, CN=CA001
        Validity
            Not Before: Sep  7 07:52:29 2015 GMT
            Not After : Sep  6 07:52:29 2016 GMT
        Subject: CN=Steve Test/emailAddress=steve@openssl.org
        Subject Public Key Info:
            Public Key Algorithm: rsaEncryption
                Public-Key: (2048 bit)
                Modulus:
                    00:d2:81:89:20:51:48:0f:73:f4:11:32:24:d5:1f:
                    1c:fd:5c:f5:b6:e6:c5:f0:52:81:dc:d2:af:66:4a:
                    7c:93:31:61:5c:af:d1:6d:06:70:03:60:7c:72:0c:
                    88:dd:49:cd:9e:02:6c:d2:5a:d7:53:0f:f3:da:be:
                    69:64:b5:0f:0c:00:e3:b3:50:47:a3:b3:9b:ba:13:
                    50:d6:58:5a:4b:ab:39:e0:11:ca:0a:27:67:03:78:
                    22:66:6d:92:1e:1b:5c:49:ae:e6:6b:d1:8e:3b:9d:
                    06:d3:c6:ac:4d:53:43:10:ab:e8:96:c1:87:82:97:
                    99:8f:20:d3:99:12:37:31:84:e1:8a:ff:29:03:5f:
                    22:90:3e:7f:9b:e0:20:c1:ad:dc:ae:4c:39:1a:31:
                    96:17:02:8c:b2:d9:b4:0d:20:12:9b:7d:86:54:fd:
                    33:fd:c1:2a:62:46:f8:60:96:cf:6e:01:6f:22:df:
                    13:47:e7:97:ec:05:72:23:a3:62:f8:fa:ef:ac:9c:
                    72:f0:37:cb:2f:37:cf:90:a8:27:51:86:c6:d7:78:
                    08:8f:7e:25:a2:15:70:a2:fb:1c:b6:15:5e:a0:97:
                    8b:81:4c:09:28:8a:27:3b:94:bc:71:db:5b:71:37:
                    9a:2b:16:e0:6f:b5:c9:f5:4b:4f:20:ba:65:cf:af:
                    ad:ad
                Exponent: 65537 (0x10001)
        X509v3 extensions:
            X509v3 Key Usage: 
                Digital Signature, Key Encipherment
            X509v3 Basic Constraints: 
                CA:FALSE
            Netscape Cert Type: 
                SSL Server
            Netscape Comment: 
                OpenSSL Generated Server Certificate
            X509v3 Subject Key Identifier: 
                E5:25:6D:3E:AF:0D:DD:3F:4C:F2:45:19:39:D5:14:DB:7E:9C:C0:AD
            X509v3 Authority Key Identifier: 
                keyid:F4:A7:C0:CC:91:46:AF:64:F3:91:F2:27:F8:C8:B2:6F:8A:87:32:73
                DirName:/C=DE/ST=Hessen/O=privacyidea/CN=CA001
                serial:FB:C8:EB:AC:83:CD:12:07

            X509v3 Extended Key Usage: 
                TLS Web Server Authentication
    Signature Algorithm: sha1WithRSAEncryption
         8c:f9:eb:1d:29:7b:df:6e:b4:4a:55:12:84:e2:7e:56:ff:8f:
         72:5b:10:b4:20:1a:45:44:a2:cb:8d:d1:a8:66:f2:2c:26:02:
         77:ae:e1:36:5b:38:ca:a4:cf:4d:ef:b8:54:f3:2a:57:f0:30:
         1a:2c:31:17:45:de:e6:a4:e5:64:53:89:c0:42:84:f4:1e:81:
         92:d6:95:38:85:4b:ec:9f:af:99:4a:a0:36:72:cd:39:2f:14:
         8d:b9:d3:6f:e1:5e:45:60:22:f1:3e:ea:21:88:68:d5:18:17:
         e3:e3:dc:79:b0:02:a7:79:7c:62:e1:fe:f4:fc:29:0b:37:4d:
         6c:bf:4e:9a:bd:6f:84:e0:92:e9:70:64:43:69:12:43:58:5e:
         8a:e4:f1:b9:01:dc:72:46:ca:29:b9:8b:ac:11:dc:67:f1:09:
         bd:15:9d:a9:72:a1:1b:b7:18:be:49:29:5d:1d:62:5f:82:ce:
         73:54:8a:24:92:72:9a:d5:6c:8b:ee:7d:81:59:94:6e:5d:84:
         05:70:c9:3d:b4:78:f1:be:ff:fa:62:c5:85:f9:3e:fd:b5:9c:
         b2:b6:f5:43:d5:c4:2a:99:bc:bd:e0:fd:b3:92:ee:15:ef:3c:
         75:af:db:25:d7:cd:69:20:72:00:0e:23:f6:d7:e7:03:c6:e1:
         d7:55:39:64
-----BEGIN CERTIFICATE-----
MIIECTCCAvGgAwIBAgIEEAAAmjANBgkqhkiG9w0BAQUFADBEMQswCQYDVQQGEwJE
RTEPMA0GA1UECAwGSGVzc2VuMRQwEgYDVQQKDAtwcml2YWN5aWRlYTEOMAwGA1UE
AwwFQ0EwMDEwHhcNMTUwOTA3MDc1MjI5WhcNMTYwOTA2MDc1MjI5WjA3MRMwEQYD
VQQDEwpTdGV2ZSBUZXN0MSAwHgYJKoZIhvcNAQkBFhFzdGV2ZUBvcGVuc3NsLm9y
ZzCCASIwDQYJKoZIhvcNAQEBBQADggEPADCCAQoCggEBANKBiSBRSA9z9BEyJNUf
HP1c9bbmxfBSgdzSr2ZKfJMxYVyv0W0GcANgfHIMiN1JzZ4CbNJa11MP89q+aWS1
DwwA47NQR6Ozm7oTUNZYWkurOeARygonZwN4ImZtkh4bXEmu5mvRjjudBtPGrE1T
QxCr6JbBh4KXmY8g05kSNzGE4Yr/KQNfIpA+f5vgIMGt3K5MORoxlhcCjLLZtA0g
Ept9hlT9M/3BKmJG+GCWz24BbyLfE0fnl+wFciOjYvj676yccvA3yy83z5CoJ1GG
xtd4CI9+JaIVcKL7HLYVXqCXi4FMCSiKJzuUvHHbW3E3misW4G+1yfVLTyC6Zc+v
ra0CAwEAAaOCAQ4wggEKMAsGA1UdDwQEAwIFoDAJBgNVHRMEAjAAMBEGCWCGSAGG
+EIBAQQEAwIGQDAzBglghkgBhvhCAQ0EJhYkT3BlblNTTCBHZW5lcmF0ZWQgU2Vy
dmVyIENlcnRpZmljYXRlMB0GA1UdDgQWBBTlJW0+rw3dP0zyRRk51RTbfpzArTB0
BgNVHSMEbTBrgBT0p8DMkUavZPOR8if4yLJviocyc6FIpEYwRDELMAkGA1UEBhMC
REUxDzANBgNVBAgMBkhlc3NlbjEUMBIGA1UECgwLcHJpdmFjeWlkZWExDjAMBgNV
BAMMBUNBMDAxggkA+8jrrIPNEgcwEwYDVR0lBAwwCgYIKwYBBQUHAwEwDQYJKoZI
hvcNAQEFBQADggEBAIz56x0pe99utEpVEoTiflb/j3JbELQgGkVEosuN0ahm8iwm
Aneu4TZbOMqkz03vuFTzKlfwMBosMRdF3uak5WRTicBChPQegZLWlTiFS+yfr5lK
oDZyzTkvFI2502/hXkVgIvE+6iGIaNUYF+Pj3HmwAqd5fGLh/vT8KQs3TWy/Tpq9
b4TgkulwZENpEkNYXork8bkB3HJGyim5i6wR3GfxCb0VnalyoRu3GL5JKV0dYl+C
znNUiiSScprVbIvufYFZlG5dhAVwyT20ePG+//pixYX5Pv21nLK29UPVxCqZvL3g
/bOS7hXvPHWv2yXXzWkgcgAOI/bX5wPG4ddVOWQ=
-----END CERTIFICATE-----
