Certificate:
    Data:
        Version: 3 (0x2)
        Serial Number: 268435611 (0x1000009b)
    Signature Algorithm: sha1WithRSAEncryption
        Issuer: C=DE, ST=Hessen, O=privacyidea, CN=CA001
        Validity
            Not Before: Sep  7 07:53:17 2015 GMT
            Not After : Sep  6 07:53:17 2016 GMT
        Subject: C=DE, ST=Hessen, O=privacyidea, CN=requester.localdomain
        Subject Public Key Info:
            Public Key Algorithm: rsaEncryption
                Public-Key: (2048 bit)
                Modulus:
                    00:cd:be:14:4f:fa:ce:01:3f:42:22:1b:1d:9c:af:
                    dd:92:d2:7f:db:6c:b7:3e:39:43:43:6b:13:03:f1:
                    05:f4:07:74:bc:76:69:28:0b:af:19:8e:d7:fc:e3:
                    cd:c6:58:f2:ca:7f:08:6d:53:fc:07:02:44:24:c6:
                    b4:34:4c:8c:04:fe:33:0e:40:e2:20:ba:02:73:5a:
                    f7:f5:4f:63:6e:cc:c6:b6:df:54:1d:37:39:7d:51:
                    36:26:5f:bd:dc:3f:a8:8b:6b:a2:ae:b6:9d:d6:21:
                    e7:df:41:b8:7a:28:2a:68:48:ca:a8:2d:ed:e1:e9:
                    46:5e:5a:72:6d:b4:84:38:87:91:fd:94:11:0b:28:
                    84:c6:c2:2f:2a:fb:01:f9:36:7a:09:75:d1:33:88:
                    3c:73:41:5b:c8:bf:94:89:70:a1:f0:c0:b9:2e:50:
                    53:1e:b1:17:64:69:f4:2d:81:e0:a9:0d:0e:32:e9:
                    ba:55:8a:85:f1:1b:6f:49:79:b4:7f:88:c3:0d:3e:
                    54:88:9b:3d:1f:38:8c:04:f3:ee:6a:63:2b:f5:c6:
                    db:b4:83:aa:c4:78:41:3a:7d:4b:e1:c8:3e:71:ca:
                    1b:61:59:ea:c6:c4:ca:32:5e:c9:e9:bf:12:29:e6:
                    c6:c3:63:fe:a0:55:da:7a:f1:60:98:4d:26:ed:fa:
                    70:2d
                Exponent: 65537 (0x10001)
        X509v3 extensions:
            X509v3 Key Usage: 
                Digital Signature, Key Encipherment
            X509v3 Basic Constraints: 
                CA:FALSE
            Netscape Cert Type: 
                SSL Server
            Netscape Comment: 
                OpenSSL Generated Server Certificate
            X509v3 Subject Key Identifier: 
                53:3F:ED:5D:09:07:B3:65:7B:AB:45:C9:24:5B:09:77:80:0A:96:ED
            X509v3 Authority Key Identifier: 
                keyid:F4:A7:C0:CC:91:46:AF:64:F3:91:F2:27:F8:C8:B2:6F:8A:87:32:73
                DirName:/C=DE/ST=Hessen/O=privacyidea/CN=CA001
                serial:FB:C8:EB:AC:83:CD:12:07

            X509v3 Extended Key Usage: 
                TLS Web Server Authentication
    Signature Algorithm: sha1WithRSAEncryption
         4e:bf:4f:cf:96:bb:19:b6:4a:7f:7c:a0:9e:69:c6:fe:28:78:
         41:36:b1:41:ed:db:04:ca:e3:49:47:12:9f:1e:77:1f:43:29:
         ae:d5:1f:59:31:f2:43:42:df:93:f7:04:db:87:2b:cf:e3:3b:
         fa:75:0b:48:f4:f6:03:24:b4:7b:ad:64:ba:b0:e0:fd:56:a3:
         b6:88:6c:e1:8b:33:fd:73:6d:3f:1a:72:9b:c6:76:8a:52:23:
         07:6c:bd:18:dc:4b:81:83:85:70:84:45:e4:47:a4:73:a1:ae:
         b4:6c:ef:56:5a:55:c6:fb:77:79:e4:72:23:be:73:90:21:b0:
         10:90:d3:ec:7e:17:e9:78:4b:14:97:0d:e8:13:ca:78:95:0d:
         62:17:3f:db:5e:f5:c5:e4:f6:29:6e:63:75:06:92:2d:55:8d:
         22:91:3b:f8:e9:bd:96:3f:a7:57:79:e9:cb:f4:7f:69:44:40:
         28:c4:c0:36:12:8b:a6:88:91:d3:09:ae:0e:e6:9a:90:61:ed:
         c4:91:a6:59:89:75:e4:e5:11:94:d2:88:fb:0e:d5:92:a2:6d:
         53:06:c0:2d:dd:01:6d:d7:f4:55:9a:99:0a:08:11:6e:68:be:
         40:89:af:7d:2d:c2:c7:79:f8:79:e7:2a:53:a1:29:17:14:9b:
         fc:cb:f4:85
-----BEGIN CERTIFICATE-----
MIIEJjCCAw6gAwIBAgIEEAAAmzANBgkqhkiG9w0BAQUFADBEMQswCQYDVQQGEwJE
RTEPMA0GA1UECAwGSGVzc2VuMRQwEgYDVQQKDAtwcml2YWN5aWRlYTEOMAwGA1UE
AwwFQ0EwMDEwHhcNMTUwOTA3MDc1MzE3WhcNMTYwOTA2MDc1MzE3WjBUMQswCQYD
VQQGEwJERTEPMA0GA1UECAwGSGVzc2VuMRQwEgYDVQQKDAtwcml2YWN5aWRlYTEe
MBwGA1UEAwwVcmVxdWVzdGVyLmxvY2FsZG9tYWluMIIBIjANBgkqhkiG9w0BAQEF
AAOCAQ8AMIIBCgKCAQEAzb4UT/rOAT9CIhsdnK/dktJ/22y3PjlDQ2sTA/EF9Ad0
vHZpKAuvGY7X/OPNxljyyn8IbVP8BwJEJMa0NEyMBP4zDkDiILoCc1r39U9jbszG
tt9UHTc5fVE2Jl+93D+oi2uirrad1iHn30G4eigqaEjKqC3t4elGXlpybbSEOIeR
/ZQRCyiExsIvKvsB+TZ6CXXRM4g8c0FbyL+UiXCh8MC5LlBTHrEXZGn0LYHgqQ0O
Mum6VYqF8RtvSXm0f4jDDT5UiJs9HziMBPPuamMr9cbbtIOqxHhBOn1L4cg+ccob
YVnqxsTKMl7J6b8SKebGw2P+oFXaevFgmE0m7fpwLQIDAQABo4IBDjCCAQowCwYD
VR0PBAQDAgWgMAkGA1UdEwQCMAAwEQYJYIZIAYb4QgEBBAQDAgZAMDMGCWCGSAGG
+EIBDQQmFiRPcGVuU1NMIEdlbmVyYXRlZCBTZXJ2ZXIgQ2VydGlmaWNhdGUwHQYD
VR0OBBYEFFM/7V0JB7Nle6tFySRbCXeACpbtMHQGA1UdIwRtMGuAFPSnwMyRRq9k
85HyJ/jIsm+KhzJzoUikRjBEMQswCQYDVQQGEwJERTEPMA0GA1UECAwGSGVzc2Vu
MRQwEgYDVQQKDAtwcml2YWN5aWRlYTEOMAwGA1UEAwwFQ0EwMDGCCQD7yOusg80S
BzATBgNVHSUEDDAKBggrBgEFBQcDATANBgkqhkiG9w0BAQUFAAOCAQEATr9Pz5a7
GbZKf3ygnmnG/ih4QTaxQe3bBMrjSUcSnx53H0MprtUfWTHyQ0Lfk/cE24crz+M7
+nULSPT2AyS0e61kurDg/Vajtohs4Ysz/XNtPxpym8Z2ilIjB2y9GNxLgYOFcIRF
5Eekc6GutGzvVlpVxvt3eeRyI75zkCGwEJDT7H4X6XhLFJcN6BPKeJUNYhc/2171
xeT2KW5jdQaSLVWNIpE7+Om9lj+nV3npy/R/aURAKMTANhKLpoiR0wmuDuaakGHt
xJGmWYl15OURlNKI+w7VkqJtUwbALd0Bbdf0VZqZCggRbmi+QImvfS3Cx3n4eecq
U6EpFxSb/Mv0hQ==
-----END CERTIFICATE-----
