Certificate:
    Data:
        Version: 3 (0x2)
        Serial Number: 268435607 (0x10000097)
    Signature Algorithm: sha1WithRSAEncryption
        Issuer: C=DE, ST=Hessen, O=privacyidea, CN=CA001
        Validity
            Not Before: Sep  7 07:51:49 2015 GMT
            Not After : Sep  6 07:51:49 2016 GMT
        Subject: C=DE, ST=Hessen, O=privacyidea, CN=requester.localdomain
        Subject Public Key Info:
            Public Key Algorithm: rsaEncryption
                Public-Key: (2048 bit)
                Modulus:
                    00:cd:be:14:4f:fa:ce:01:3f:42:22:1b:1d:9c:af:
                    dd:92:d2:7f:db:6c:b7:3e:39:43:43:6b:13:03:f1:
                    05:f4:07:74:bc:76:69:28:0b:af:19:8e:d7:fc:e3:
                    cd:c6:58:f2:ca:7f:08:6d:53:fc:07:02:44:24:c6:
                    b4:34:4c:8c:04:fe:33:0e:40:e2:20:ba:02:73:5a:
                    f7:f5:4f:63:6e:cc:c6:b6:df:54:1d:37:39:7d:51:
                    36:26:5f:bd:dc:3f:a8:8b:6b:a2:ae:b6:9d:d6:21:
                    e7:df:41:b8:7a:28:2a:68:48:ca:a8:2d:ed:e1:e9:
                    46:5e:5a:72:6d:b4:84:38:87:91:fd:94:11:0b:28:
                    84:c6:c2:2f:2a:fb:01:f9:36:7a:09:75:d1:33:88:
                    3c:73:41:5b:c8:bf:94:89:70:a1:f0:c0:b9:2e:50:
                    53:1e:b1:17:64:69:f4:2d:81:e0:a9:0d:0e:32:e9:
                    ba:55:8a:85:f1:1b:6f:49:79:b4:7f:88:c3:0d:3e:
                    54:88:9b:3d:1f:38:8c:04:f3:ee:6a:63:2b:f5:c6:
                    db:b4:83:aa:c4:78:41:3a:7d:4b:e1:c8:3e:71:ca:
                    1b:61:59:ea:c6:c4:ca:32:5e:c9:e9:bf:12:29:e6:
                    c6:c3:63:fe:a0:55:da:7a:f1:60:98:4d:26:ed:fa:
                    70:2d
                Exponent: 65537 (0x10001)
        X509v3 extensions:
            X509v3 Key Usage: 
                Digital Signature, Key Encipherment
            X509v3 Basic Constraints: 
                CA:FALSE
            Netscape Cert Type: 
                SSL Server
            Netscape Comment: 
                OpenSSL Generated Server Certificate
            X509v3 Subject Key Identifier: 
                53:3F:ED:5D:09:07:B3:65:7B:AB:45:C9:24:5B:09:77:80:0A:96:ED
            X509v3 Authority Key Identifier: 
                keyid:F4:A7:C0:CC:91:46:AF:64:F3:91:F2:27:F8:C8:B2:6F:8A:87:32:73
                DirName:/C=DE/ST=Hessen/O=privacyidea/CN=CA001
                serial:FB:C8:EB:AC:83:CD:12:07

            X509v3 Extended Key Usage: 
                TLS Web Server Authentication
    Signature Algorithm: sha1WithRSAEncryption
         93:bf:72:72:aa:ad:75:fd:b4:c1:f6:cf:e8:20:ce:1a:d4:8f:
         1d:50:56:f8:dc:e9:eb:04:69:c1:f7:dc:5e:0f:ec:87:d4:be:
         c6:92:c4:1d:b4:d2:d7:7f:84:a2:77:29:bb:71:1b:25:25:f5:
         f7:05:ad:5f:f9:55:06:57:5f:3f:52:00:6c:3f:de:3c:28:6a:
         cf:07:56:2d:7a:1a:9f:02:fd:ce:ff:d1:21:ec:bf:5c:26:7f:
         a2:27:52:61:82:d0:36:d9:bf:74:cf:b5:79:0c:56:c2:cd:df:
         d2:00:2f:ba:10:43:3f:3f:fd:67:f0:a6:82:9c:22:99:a0:68:
         e0:32:5b:0e:40:87:6b:7c:50:9f:3b:f6:3a:50:b3:90:bc:e1:
         e5:f2:3c:9a:c7:31:a8:04:94:fd:3c:55:5c:d9:30:6c:77:0b:
         cd:16:ea:28:77:1e:18:ce:9a:23:05:73:a7:80:6e:f0:af:4a:
         31:b7:80:91:cd:67:c5:a4:66:6f:44:e4:e3:df:5d:7d:c2:ea:
         e8:59:8f:e2:e2:75:90:8c:42:f1:ea:d0:0f:36:0b:79:17:fa:
         91:5a:74:f4:51:25:b9:84:40:3b:4e:bf:5a:d0:ea:66:a1:1c:
         79:29:3e:96:fa:89:a5:cb:f2:3d:89:3c:6e:86:ce:2a:86:89:
         26:20:b4:9a
-----BEGIN CERTIFICATE-----
MIIEJjCCAw6gAwIBAgIEEAAAlzANBgkqhkiG9w0BAQUFADBEMQswCQYDVQQGEwJE
RTEPMA0GA1UECAwGSGVzc2VuMRQwEgYDVQQKDAtwcml2YWN5aWRlYTEOMAwGA1UE
AwwFQ0EwMDEwHhcNMTUwOTA3MDc1MTQ5WhcNMTYwOTA2MDc1MTQ5WjBUMQswCQYD
VQQGEwJERTEPMA0GA1UECAwGSGVzc2VuMRQwEgYDVQQKDAtwcml2YWN5aWRlYTEe
MBwGA1UEAwwVcmVxdWVzdGVyLmxvY2FsZG9tYWluMIIBIjANBgkqhkiG9w0BAQEF
AAOCAQ8AMIIBCgKCAQEAzb4UT/rOAT9CIhsdnK/dktJ/22y3PjlDQ2sTA/EF9Ad0
vHZpKAuvGY7X/OPNxljyyn8IbVP8BwJEJMa0NEyMBP4zDkDiILoCc1r39U9jbszG
tt9UHTc5fVE2Jl+93D+oi2uirrad1iHn30G4eigqaEjKqC3t4elGXlpybbSEOIeR
/ZQRCyiExsIvKvsB+TZ6CXXRM4g8c0FbyL+UiXCh8MC5LlBTHrEXZGn0LYHgqQ0O
Mum6VYqF8RtvSXm0f4jDDT5UiJs9HziMBPPuamMr9cbbtIOqxHhBOn1L4cg+ccob
YVnqxsTKMl7J6b8SKebGw2P+oFXaevFgmE0m7fpwLQIDAQABo4IBDjCCAQowCwYD
VR0PBAQDAgWgMAkGA1UdEwQCMAAwEQYJYIZIAYb4QgEBBAQDAgZAMDMGCWCGSAGG
+EIBDQQmFiRPcGVuU1NMIEdlbmVyYXRlZCBTZXJ2ZXIgQ2VydGlmaWNhdGUwHQYD
VR0OBBYEFFM/7V0JB7Nle6tFySRbCXeACpbtMHQGA1UdIwRtMGuAFPSnwMyRRq9k
85HyJ/jIsm+KhzJzoUikRjBEMQswCQYDVQQGEwJERTEPMA0GA1UECAwGSGVzc2Vu
MRQwEgYDVQQKDAtwcml2YWN5aWRlYTEOMAwGA1UEAwwFQ0EwMDGCCQD7yOusg80S
BzATBgNVHSUEDDAKBggrBgEFBQcDATANBgkqhkiG9w0BAQUFAAOCAQEAk79ycqqt
df20wfbP6CDOGtSPHVBW+Nzp6wRpwffcXg/sh9S+xpLEHbTS13+Eoncpu3EbJSX1
9wWtX/lVBldfP1IAbD/ePChqzwdWLXoanwL9zv/RIey/XCZ/oidSYYLQNtm/dM+1
eQxWws3f0gAvuhBDPz/9Z/CmgpwimaBo4DJbDkCHa3xQnzv2OlCzkLzh5fI8mscx
qASU/TxVXNkwbHcLzRbqKHceGM6aIwVzp4Bu8K9KMbeAkc1nxaRmb0Tk499dfcLq
6FmP4uJ1kIxC8erQDzYLeRf6kVp09FEluYRAO06/WtDqZqEceSk+lvqJpcvyPYk8
bobOKoaJJiC0mg==
-----END CERTIFICATE-----
