Certificate:
    Data:
        Version: 3 (0x2)
        Serial Number: 268435624 (0x100000a8)
    Signature Algorithm: sha1WithRSAEncryption
        Issuer: C=DE, ST=Hessen, O=privacyidea, CN=CA001
        Validity
            Not Before: Sep  7 09:09:08 2015 GMT
            Not After : Sep  6 09:09:08 2016 GMT
        Subject: CN=selfservice,CN=user,O=realm1/emailAddress=meine
        Subject Public Key Info:
            Public Key Algorithm: rsaEncryption
                Public-Key: (2048 bit)
                Modulus:
                    00:cf:3c:d4:33:0e:12:c4:e6:da:cd:b6:56:a1:1c:
                    26:bb:26:1c:8a:4a:73:a8:58:8a:b6:1e:b3:8b:99:
                    d2:1d:07:c2:92:89:79:c0:69:d8:c8:df:28:61:98:
                    1e:b3:fe:ae:2b:bd:78:a9:f7:6e:47:dc:a3:a0:16:
                    8c:85:02:c1:4e:92:fd:72:6e:f0:c8:03:29:9b:b8:
                    00:6e:c0:83:95:c8:34:20:36:9c:b3:e5:e4:e6:76:
                    73:a3:1a:ad:40:96:e0:53:54:00:ec:76:79:9a:c6:
                    0d:7e:b6:bd:29:ec:83:f3:cb:89:a4:cb:6c:00:ba:
                    0c:c5:78:0f:ff:69:b8:94:f4:04:70:43:3f:d8:9e:
                    d7:a7:fb:5d:ce:75:8e:da:e7:c4:07:b1:9d:de:6f:
                    88:4b:b6:4d:9a:cf:f9:bc:fa:9f:cd:32:6d:f6:3a:
                    0b:0d:23:42:78:ec:97:42:bf:0e:4d:60:56:e1:d3:
                    02:f2:19:cb:84:57:90:e5:70:a1:a2:83:35:86:e2:
                    da:86:9f:f9:8a:c4:79:b3:52:28:da:cb:bb:34:ca:
                    d3:da:91:4a:cf:8d:76:a2:b2:6b:9b:f9:96:fd:09:
                    2a:da:11:23:4d:f0:cb:d6:b2:b1:0e:12:6c:9a:19:
                    65:98:87:ca:e4:ee:24:ce:44:ac:90:8f:9d:1b:c5:
                    2a:9d
                Exponent: 65537 (0x10001)
        X509v3 extensions:
            X509v3 Key Usage: 
                Digital Signature, Key Encipherment
            X509v3 Basic Constraints: 
                CA:FALSE
            Netscape Cert Type: 
                SSL Server
            Netscape Comment: 
                OpenSSL Generated Server Certificate
            X509v3 Subject Key Identifier: 
                4D:07:90:AD:FF:1D:0D:E7:1A:DD:D6:2E:FA:BA:34:CB:AA:1F:24:C6
            X509v3 Authority Key Identifier: 
                keyid:F4:A7:C0:CC:91:46:AF:64:F3:91:F2:27:F8:C8:B2:6F:8A:87:32:73
                DirName:/C=DE/ST=Hessen/O=privacyidea/CN=CA001
                serial:FB:C8:EB:AC:83:CD:12:07

            X509v3 Extended Key Usage: 
                TLS Web Server Authentication
    Signature Algorithm: sha1WithRSAEncryption
         93:2a:3b:ee:8c:24:d1:fb:23:c1:b2:8c:bf:39:24:de:21:83:
         3f:6e:b1:34:fe:f2:77:85:98:e0:98:14:59:70:bc:46:94:96:
         a9:46:b4:b3:c0:08:c6:71:8f:a0:bd:65:94:e1:42:33:ca:c6:
         b7:6a:4d:58:57:36:28:7b:7d:f6:d2:84:d0:41:59:58:56:84:
         95:46:2f:b0:a3:46:8a:c7:11:9d:72:63:57:3c:68:d6:ec:d5:
         8f:b7:8e:b1:c1:e7:13:2d:d4:90:94:cd:6a:1a:de:6b:0b:cd:
         8c:a0:a7:c6:88:ff:29:3b:76:81:11:24:7b:d5:41:26:cc:55:
         4f:37:d3:54:89:17:dd:94:51:12:55:2e:3f:7f:67:57:7d:83:
         25:69:6c:4b:d5:c4:6b:de:83:a5:68:5a:69:c6:ad:b5:7d:79:
         a5:99:a7:0b:11:47:77:47:4f:bf:50:fc:56:e0:df:cc:a5:1d:
         a8:fc:55:91:1b:bd:86:b2:b1:b3:c5:e6:dd:64:56:66:67:8c:
         21:16:20:ff:d0:91:f4:91:25:a4:b5:10:91:b1:73:1d:e7:e0:
         ff:52:77:f2:70:1e:c7:af:c1:06:61:07:25:de:4c:12:a6:af:
         a2:93:43:4c:98:3f:bb:4c:c3:db:cf:f4:2b:1a:39:7e:a9:9e:
         c4:88:bb:b2
-----BEGIN CERTIFICATE-----
MIIEDzCCAvegAwIBAgIEEAAAqDANBgkqhkiG9w0BAQUFADBEMQswCQYDVQQGEwJE
RTEPMA0GA1UECAwGSGVzc2VuMRQwEgYDVQQKDAtwcml2YWN5aWRlYTEOMAwGA1UE
AwwFQ0EwMDEwHhcNMTUwOTA3MDkwOTA4WhcNMTYwOTA2MDkwOTA4WjA9MSUwIwYD
VQQDExxzZWxmc2VydmljZSxDTj11c2VyLE89cmVhbG0xMRQwEgYJKoZIhvcNAQkB
FgVtZWluZTCCASIwDQYJKoZIhvcNAQEBBQADggEPADCCAQoCggEBAM881DMOEsTm
2s22VqEcJrsmHIpKc6hYirYes4uZ0h0HwpKJecBp2MjfKGGYHrP+riu9eKn3bkfc
o6AWjIUCwU6S/XJu8MgDKZu4AG7Ag5XINCA2nLPl5OZ2c6MarUCW4FNUAOx2eZrG
DX62vSnsg/PLiaTLbAC6DMV4D/9puJT0BHBDP9ie16f7Xc51jtrnxAexnd5viEu2
TZrP+bz6n80ybfY6Cw0jQnjsl0K/Dk1gVuHTAvIZy4RXkOVwoaKDNYbi2oaf+YrE
ebNSKNrLuzTK09qRSs+NdqKya5v5lv0JKtoRI03wy9aysQ4SbJoZZZiHyuTuJM5E
rJCPnRvFKp0CAwEAAaOCAQ4wggEKMAsGA1UdDwQEAwIFoDAJBgNVHRMEAjAAMBEG
CWCGSAGG+EIBAQQEAwIGQDAzBglghkgBhvhCAQ0EJhYkT3BlblNTTCBHZW5lcmF0
ZWQgU2VydmVyIENlcnRpZmljYXRlMB0GA1UdDgQWBBRNB5Ct/x0N5xrd1i76ujTL
qh8kxjB0BgNVHSMEbTBrgBT0p8DMkUavZPOR8if4yLJviocyc6FIpEYwRDELMAkG
A1UEBhMCREUxDzANBgNVBAgMBkhlc3NlbjEUMBIGA1UECgwLcHJpdmFjeWlkZWEx
DjAMBgNVBAMMBUNBMDAxggkA+8jrrIPNEgcwEwYDVR0lBAwwCgYIKwYBBQUHAwEw
DQYJKoZIhvcNAQEFBQADggEBAJMqO+6MJNH7I8GyjL85JN4hgz9usTT+8neFmOCY
FFlwvEaUlqlGtLPACMZxj6C9ZZThQjPKxrdqTVhXNih7ffbShNBBWVhWhJVGL7Cj
RorHEZ1yY1c8aNbs1Y+3jrHB5xMt1JCUzWoa3msLzYygp8aI/yk7doERJHvVQSbM
VU8301SJF92UURJVLj9/Z1d9gyVpbEvVxGveg6VoWmnGrbV9eaWZpwsRR3dHT79Q
/Fbg38ylHaj8VZEbvYaysbPF5t1kVmZnjCEWIP/QkfSRJaS1EJGxcx3n4P9Sd/Jw
HsevwQZhByXeTBKmr6KTQ0yYP7tMw9vP9CsaOX6pnsSIu7I=
-----END CERTIFICATE-----
